ARM GAS  C:\Users\mathi\AppData\Local\Temp\ccj4lHAz.s 			page 1


   1              		.cpu cortex-m4
   2              		.arch armv7e-m
   3              		.fpu fpv4-sp-d16
   4              		.eabi_attribute 27, 1
   5              		.eabi_attribute 28, 1
   6              		.eabi_attribute 20, 1
   7              		.eabi_attribute 21, 1
   8              		.eabi_attribute 23, 3
   9              		.eabi_attribute 24, 1
  10              		.eabi_attribute 25, 1
  11              		.eabi_attribute 26, 1
  12              		.eabi_attribute 30, 1
  13              		.eabi_attribute 34, 1
  14              		.eabi_attribute 18, 4
  15              		.file	"encoder.c"
  16              		.text
  17              	.Ltext0:
  18              		.cfi_sections	.debug_frame
  19              		.file 1 "Core/Src/encoder.c"
  20              		.section	.text.encoder_init,"ax",%progbits
  21              		.align	1
  22              		.global	encoder_init
  23              		.syntax unified
  24              		.thumb
  25              		.thumb_func
  27              	encoder_init:
  28              	.LVL0:
  29              	.LFB292:
   1:Core/Src/encoder.c **** /*
   2:Core/Src/encoder.c ****  * ------------------------------------------------------------------------------------------------
   3:Core/Src/encoder.c ****  * File: encoder.c
   4:Core/Src/encoder.c ****  * Created Date: Monday, March 4th 2024, 12:12:44 pm
   5:Core/Src/encoder.c ****  * Author: Florian Hye
   6:Core/Src/encoder.c ****  * Description: This file implemnts the encoder functions
   7:Core/Src/encoder.c ****  * ------------------------------------------------------------------------------------------------
   8:Core/Src/encoder.c ****  */
   9:Core/Src/encoder.c **** 
  10:Core/Src/encoder.c **** #include "encoder.h"
  11:Core/Src/encoder.c **** 
  12:Core/Src/encoder.c **** void encoder_init(encoder_t *encoder, GPIO_TypeDef *gpio_a_port, uint16_t gpio_a_pin, GPIO_TypeDef 
  13:Core/Src/encoder.c ****                   uint16_t gpio_b_pin) {
  30              		.loc 1 13 40 view -0
  31              		.cfi_startproc
  32              		@ args = 4, pretend = 0, frame = 0
  33              		@ frame_needed = 0, uses_anonymous_args = 0
  34              		@ link register save eliminated.
  14:Core/Src/encoder.c ****   encoder->gpio_a_port = gpio_a_port;
  35              		.loc 1 14 3 view .LVU1
  36              		.loc 1 14 24 is_stmt 0 view .LVU2
  37 0000 0160     		str	r1, [r0]
  15:Core/Src/encoder.c ****   encoder->gpio_a_pin = gpio_a_pin;
  38              		.loc 1 15 3 is_stmt 1 view .LVU3
  39              		.loc 1 15 23 is_stmt 0 view .LVU4
  40 0002 8280     		strh	r2, [r0, #4]	@ movhi
  16:Core/Src/encoder.c ****   encoder->gpio_b_port = gpio_b_port;
  41              		.loc 1 16 3 is_stmt 1 view .LVU5
  42              		.loc 1 16 24 is_stmt 0 view .LVU6
ARM GAS  C:\Users\mathi\AppData\Local\Temp\ccj4lHAz.s 			page 2


  43 0004 8360     		str	r3, [r0, #8]
  17:Core/Src/encoder.c ****   encoder->gpio_b_pin = gpio_b_pin;
  44              		.loc 1 17 3 is_stmt 1 view .LVU7
  45              		.loc 1 17 23 is_stmt 0 view .LVU8
  46 0006 BDF80030 		ldrh	r3, [sp]
  47              	.LVL1:
  48              		.loc 1 17 23 view .LVU9
  49 000a 8381     		strh	r3, [r0, #12]	@ movhi
  18:Core/Src/encoder.c ****   encoder->counter = 0;
  50              		.loc 1 18 3 is_stmt 1 view .LVU10
  51              		.loc 1 18 20 is_stmt 0 view .LVU11
  52 000c 0023     		movs	r3, #0
  53 000e 0361     		str	r3, [r0, #16]
  19:Core/Src/encoder.c **** }
  54              		.loc 1 19 1 view .LVU12
  55 0010 7047     		bx	lr
  56              		.cfi_endproc
  57              	.LFE292:
  59              		.section	.text.encoder_handle_interrupt,"ax",%progbits
  60              		.align	1
  61              		.global	encoder_handle_interrupt
  62              		.syntax unified
  63              		.thumb
  64              		.thumb_func
  66              	encoder_handle_interrupt:
  67              	.LVL2:
  68              	.LFB293:
  20:Core/Src/encoder.c **** 
  21:Core/Src/encoder.c **** void encoder_handle_interrupt(encoder_t *encoder) {
  69              		.loc 1 21 51 is_stmt 1 view -0
  70              		.cfi_startproc
  71              		@ args = 0, pretend = 0, frame = 0
  72              		@ frame_needed = 0, uses_anonymous_args = 0
  73              		.loc 1 21 51 is_stmt 0 view .LVU14
  74 0000 10B5     		push	{r4, lr}
  75              		.cfi_def_cfa_offset 8
  76              		.cfi_offset 4, -8
  77              		.cfi_offset 14, -4
  78 0002 0446     		mov	r4, r0
  22:Core/Src/encoder.c ****   // Get the state of the B pin
  23:Core/Src/encoder.c ****   GPIO_PinState state_b = HAL_GPIO_ReadPin(encoder->gpio_b_port, encoder->gpio_b_pin);
  79              		.loc 1 23 3 is_stmt 1 view .LVU15
  80              		.loc 1 23 27 is_stmt 0 view .LVU16
  81 0004 8189     		ldrh	r1, [r0, #12]
  82 0006 8068     		ldr	r0, [r0, #8]
  83              	.LVL3:
  84              		.loc 1 23 27 view .LVU17
  85 0008 FFF7FEFF 		bl	HAL_GPIO_ReadPin
  86              	.LVL4:
  24:Core/Src/encoder.c **** 
  25:Core/Src/encoder.c ****   // Check B pin state and adjust the counter accordingly.
  26:Core/Src/encoder.c ****   if (state_b == GPIO_PIN_SET)
  87              		.loc 1 26 3 is_stmt 1 view .LVU18
  88              		.loc 1 26 6 is_stmt 0 view .LVU19
  89 000c 0128     		cmp	r0, #1
  90 000e 04D0     		beq	.L6
  27:Core/Src/encoder.c ****     encoder->counter++;
ARM GAS  C:\Users\mathi\AppData\Local\Temp\ccj4lHAz.s 			page 3


  28:Core/Src/encoder.c ****   else if (state_b == GPIO_PIN_RESET)
  91              		.loc 1 28 8 is_stmt 1 view .LVU20
  92              		.loc 1 28 11 is_stmt 0 view .LVU21
  93 0010 30B9     		cbnz	r0, .L2
  29:Core/Src/encoder.c ****     encoder->counter--;
  94              		.loc 1 29 5 is_stmt 1 view .LVU22
  95              		.loc 1 29 12 is_stmt 0 view .LVU23
  96 0012 2369     		ldr	r3, [r4, #16]
  97              		.loc 1 29 21 view .LVU24
  98 0014 013B     		subs	r3, r3, #1
  99 0016 2361     		str	r3, [r4, #16]
  30:Core/Src/encoder.c **** }
 100              		.loc 1 30 1 view .LVU25
 101 0018 02E0     		b	.L2
 102              	.L6:
  27:Core/Src/encoder.c ****     encoder->counter++;
 103              		.loc 1 27 5 is_stmt 1 view .LVU26
  27:Core/Src/encoder.c ****     encoder->counter++;
 104              		.loc 1 27 12 is_stmt 0 view .LVU27
 105 001a 2369     		ldr	r3, [r4, #16]
  27:Core/Src/encoder.c ****     encoder->counter++;
 106              		.loc 1 27 21 view .LVU28
 107 001c 0133     		adds	r3, r3, #1
 108 001e 2361     		str	r3, [r4, #16]
 109              	.L2:
 110              		.loc 1 30 1 view .LVU29
 111 0020 10BD     		pop	{r4, pc}
 112              		.loc 1 30 1 view .LVU30
 113              		.cfi_endproc
 114              	.LFE293:
 116              		.text
 117              	.Letext0:
 118              		.file 2 "C:/Users/mathi/AppData/Roaming/Code/User/globalStorage/bmd.stm32-for-vscode/@xpack-dev-to
 119              		.file 3 "C:/Users/mathi/AppData/Roaming/Code/User/globalStorage/bmd.stm32-for-vscode/@xpack-dev-to
 120              		.file 4 "Drivers/CMSIS/Device/ST/STM32L4xx/Include/stm32l452xx.h"
 121              		.file 5 "Drivers/STM32L4xx_HAL_Driver/Inc/stm32l4xx_hal_gpio.h"
 122              		.file 6 "Core/Inc/encoder.h"
ARM GAS  C:\Users\mathi\AppData\Local\Temp\ccj4lHAz.s 			page 4


DEFINED SYMBOLS
                            *ABS*:00000000 encoder.c
C:\Users\mathi\AppData\Local\Temp\ccj4lHAz.s:21     .text.encoder_init:00000000 $t
C:\Users\mathi\AppData\Local\Temp\ccj4lHAz.s:27     .text.encoder_init:00000000 encoder_init
C:\Users\mathi\AppData\Local\Temp\ccj4lHAz.s:60     .text.encoder_handle_interrupt:00000000 $t
C:\Users\mathi\AppData\Local\Temp\ccj4lHAz.s:66     .text.encoder_handle_interrupt:00000000 encoder_handle_interrupt

UNDEFINED SYMBOLS
HAL_GPIO_ReadPin
