ARM GAS  C:\Users\mathi\AppData\Local\Temp\ccccnnkE.s 			page 1


   1              		.cpu cortex-m4
   2              		.arch armv7e-m
   3              		.fpu fpv4-sp-d16
   4              		.eabi_attribute 27, 1
   5              		.eabi_attribute 28, 1
   6              		.eabi_attribute 20, 1
   7              		.eabi_attribute 21, 1
   8              		.eabi_attribute 23, 3
   9              		.eabi_attribute 24, 1
  10              		.eabi_attribute 25, 1
  11              		.eabi_attribute 26, 1
  12              		.eabi_attribute 30, 1
  13              		.eabi_attribute 34, 1
  14              		.eabi_attribute 18, 4
  15              		.file	"freertos.c"
  16              		.text
  17              	.Ltext0:
  18              		.cfi_sections	.debug_frame
  19              		.file 1 "Core/Src/freertos.c"
  20              		.section	.rodata.StartDefaultTask.str1.4,"aMS",%progbits,1
  21              		.align	2
  22              	.LC0:
  23 0000 4572726F 		.ascii	"Error on default allocators (line %d)\012\000"
  23      72206F6E 
  23      20646566 
  23      61756C74 
  23      20616C6C 
  24 0027 00       		.align	2
  25              	.LC1:
  26 0028 57616974 		.ascii	"Waiting for agent...\000"
  26      696E6720 
  26      666F7220 
  26      6167656E 
  26      742E2E2E 
  27 003d 000000   		.align	2
  28              	.LC2:
  29 0040 75735F66 		.ascii	"us_front_left\000"
  29      726F6E74 
  29      5F6C6566 
  29      7400
  30 004e 0000     		.align	2
  31              	.LC3:
  32 0050 75735F66 		.ascii	"us_front_right\000"
  32      726F6E74 
  32      5F726967 
  32      687400
  33 005f 00       		.align	2
  34              	.LC4:
  35 0060 75735F63 		.ascii	"us_center_left\000"
  35      656E7465 
  35      725F6C65 
  35      667400
  36 006f 00       		.align	2
  37              	.LC5:
  38 0070 75735F63 		.ascii	"us_center_right\000"
  38      656E7465 
  38      725F7269 
ARM GAS  C:\Users\mathi\AppData\Local\Temp\ccccnnkE.s 			page 2


  38      67687400 
  39              		.align	2
  40              	.LC6:
  41 0080 75735F72 		.ascii	"us_rear_left\000"
  41      6561725F 
  41      6C656674 
  41      00
  42 008d 000000   		.align	2
  43              	.LC7:
  44 0090 75735F72 		.ascii	"us_rear_right\000"
  44      6561725F 
  44      72696768 
  44      7400
  45 009e 0000     		.align	2
  46              	.LC8:
  47 00a0 656E636F 		.ascii	"encoders\000"
  47      64657273 
  47      00
  48 00a9 000000   		.align	2
  49              	.LC9:
  50 00ac 00       		.ascii	"\000"
  51 00ad 000000   		.align	2
  52              	.LC10:
  53 00b0 73746D33 		.ascii	"stm32\000"
  53      3200
  54 00b6 0000     		.align	2
  55              	.LC11:
  56 00b8 2F656E63 		.ascii	"/encoder\000"
  56      6F646572 
  56      00
  57 00c1 000000   		.align	2
  58              	.LC12:
  59 00c4 2F756C74 		.ascii	"/ultra_ranges\000"
  59      72615F72 
  59      616E6765 
  59      7300
  60 00d2 0000     		.align	2
  61              	.LC13:
  62 00d4 2F636D64 		.ascii	"/cmd_vel\000"
  62      5F76656C 
  62      00
  63              		.section	.text.StartDefaultTask,"ax",%progbits
  64              		.align	1
  65              		.global	StartDefaultTask
  66              		.syntax unified
  67              		.thumb
  68              		.thumb_func
  70              	StartDefaultTask:
  71              	.LVL0:
  72              	.LFB302:
   1:Core/Src/freertos.c **** /* USER CODE BEGIN Header */
   2:Core/Src/freertos.c **** /**
   3:Core/Src/freertos.c ****   ******************************************************************************
   4:Core/Src/freertos.c ****   * File Name          : freertos.c
   5:Core/Src/freertos.c ****   * Description        : Code for freertos applications
   6:Core/Src/freertos.c ****   ******************************************************************************
   7:Core/Src/freertos.c ****   * @attention
ARM GAS  C:\Users\mathi\AppData\Local\Temp\ccccnnkE.s 			page 3


   8:Core/Src/freertos.c ****   *
   9:Core/Src/freertos.c ****   * Copyright (c) 2024 STMicroelectronics.
  10:Core/Src/freertos.c ****   * All rights reserved.
  11:Core/Src/freertos.c ****   *
  12:Core/Src/freertos.c ****   * This software is licensed under terms that can be found in the LICENSE file
  13:Core/Src/freertos.c ****   * in the root directory of this software component.
  14:Core/Src/freertos.c ****   * If no LICENSE file comes with this software, it is provided AS-IS.
  15:Core/Src/freertos.c ****   *
  16:Core/Src/freertos.c ****   ******************************************************************************
  17:Core/Src/freertos.c ****   */
  18:Core/Src/freertos.c **** /* USER CODE END Header */
  19:Core/Src/freertos.c **** 
  20:Core/Src/freertos.c **** /* Includes ------------------------------------------------------------------*/
  21:Core/Src/freertos.c **** #include "FreeRTOS.h"
  22:Core/Src/freertos.c **** #include "task.h"
  23:Core/Src/freertos.c **** #include "main.h"
  24:Core/Src/freertos.c **** #include "cmsis_os.h"
  25:Core/Src/freertos.c **** 
  26:Core/Src/freertos.c **** /* Private includes ----------------------------------------------------------*/
  27:Core/Src/freertos.c **** /* USER CODE BEGIN Includes */
  28:Core/Src/freertos.c **** #include <stdio.h>
  29:Core/Src/freertos.c **** #include <std_msgs/msg/string.h>
  30:Core/Src/freertos.c **** #include <std_msgs/msg/int32.h>
  31:Core/Src/freertos.c **** #include <rclc/rclc.h>
  32:Core/Src/freertos.c **** #include <rclc/executor.h>
  33:Core/Src/freertos.c **** #include <rcl/rcl.h>
  34:Core/Src/freertos.c **** #include <rcl/error_handling.h>
  35:Core/Src/freertos.c **** #include <rclc/executor.h>
  36:Core/Src/freertos.c **** #include <uxr/client/transport.h>
  37:Core/Src/freertos.c **** #include <rmw_microxrcedds_c/config.h>
  38:Core/Src/freertos.c **** #include <rmw_microros/rmw_microros.h>
  39:Core/Src/freertos.c **** 
  40:Core/Src/freertos.c **** 
  41:Core/Src/freertos.c **** #include "usart.h"
  42:Core/Src/freertos.c **** #include <uxr/client/transport.h>
  43:Core/Src/freertos.c **** #include <rmw_microxrcedds_c/config.h>
  44:Core/Src/freertos.c **** #include <rmw_microros/rmw_microros.h>
  45:Core/Src/freertos.c **** #include "usart.h"
  46:Core/Src/freertos.c **** #include <geometry_msgs/msg/twist.h>
  47:Core/Src/freertos.c **** 
  48:Core/Src/freertos.c **** #include <micro_ros_utilities/string_utilities.h>
  49:Core/Src/freertos.c **** #include <mobi_interfaces/msg/encoders_stamped.h>
  50:Core/Src/freertos.c **** #include <mobi_interfaces/msg/ultra_ranges.h>
  51:Core/Src/freertos.c **** #include <mobi_interfaces/srv/get_calib_status.h>
  52:Core/Src/freertos.c **** #include <mobi_interfaces/srv/get_imu_calib_data.h>
  53:Core/Src/freertos.c **** #include <mobi_interfaces/srv/get_pozyx_info.h>
  54:Core/Src/freertos.c **** #include <mobi_interfaces/srv/set_imu_calib_data.h>
  55:Core/Src/freertos.c **** #include <mobi_interfaces/srv/set_led_strip.h>
  56:Core/Src/freertos.c **** #include <mobi_interfaces/srv/set_power.h>
  57:Core/Src/freertos.c **** #include "encoder.h"
  58:Core/Src/freertos.c **** #include "utils.h"
  59:Core/Src/freertos.c **** #include "motor_control.h"
  60:Core/Src/freertos.c **** #include "servo_control.h"
  61:Core/Src/freertos.c **** #include "motion_control.h"
  62:Core/Src/freertos.c **** #include "robot_config.h"
  63:Core/Src/freertos.c **** 
  64:Core/Src/freertos.c **** #include <math.h>
ARM GAS  C:\Users\mathi\AppData\Local\Temp\ccccnnkE.s 			page 4


  65:Core/Src/freertos.c **** 
  66:Core/Src/freertos.c **** /* USER CODE END Includes */
  67:Core/Src/freertos.c **** 
  68:Core/Src/freertos.c **** /* Private typedef -----------------------------------------------------------*/
  69:Core/Src/freertos.c **** typedef StaticTask_t osStaticThreadDef_t;
  70:Core/Src/freertos.c **** /* USER CODE BEGIN PTD */
  71:Core/Src/freertos.c **** #define RCCHECK(fn){                                                                               
  72:Core/Src/freertos.c ****   rcl_ret_t temp_rc = fn;                                                                          
  73:Core/Src/freertos.c ****   if ((temp_rc != RCL_RET_OK)) {                                                                   
  74:Core/Src/freertos.c ****     RCUTILS_LOG_DEBUG_NAMED(LOGGER_NAME, "Failed status on line %d: %d. Aborting.", __LINE__, (int)
  75:Core/Src/freertos.c ****     return;                                                                                        
  76:Core/Src/freertos.c ****   }                                                                                                
  77:Core/Src/freertos.c **** }
  78:Core/Src/freertos.c **** /* USER CODE END PTD */
  79:Core/Src/freertos.c **** 
  80:Core/Src/freertos.c **** /* Private define ------------------------------------------------------------*/
  81:Core/Src/freertos.c **** /* USER CODE BEGIN PD */
  82:Core/Src/freertos.c **** 
  83:Core/Src/freertos.c **** /* USER CODE END PD */
  84:Core/Src/freertos.c **** 
  85:Core/Src/freertos.c **** /* Private macro -------------------------------------------------------------*/
  86:Core/Src/freertos.c **** /* USER CODE BEGIN PM */
  87:Core/Src/freertos.c **** 
  88:Core/Src/freertos.c **** /* USER CODE END PM */
  89:Core/Src/freertos.c **** 
  90:Core/Src/freertos.c **** /* Private variables ---------------------------------------------------------*/
  91:Core/Src/freertos.c **** /* USER CODE BEGIN Variables */
  92:Core/Src/freertos.c **** 
  93:Core/Src/freertos.c **** // Declare Publishers
  94:Core/Src/freertos.c **** rcl_publisher_t encoders_pub;
  95:Core/Src/freertos.c **** rcl_publisher_t ultra_ranges_pub;
  96:Core/Src/freertos.c **** 
  97:Core/Src/freertos.c **** // Declare Publisher msgs
  98:Core/Src/freertos.c **** mobi_interfaces__msg__EncodersStamped encoders_msg;
  99:Core/Src/freertos.c **** mobi_interfaces__msg__UltraRanges ultra_ranges_msg;
 100:Core/Src/freertos.c **** 
 101:Core/Src/freertos.c **** // Declare Subscribers
 102:Core/Src/freertos.c **** rcl_subscription_t cmd_vel_sub;
 103:Core/Src/freertos.c **** 
 104:Core/Src/freertos.c **** // Declare Subscriber msgs
 105:Core/Src/freertos.c **** geometry_msgs__msg__Twist cmd_vel_msg;
 106:Core/Src/freertos.c **** 
 107:Core/Src/freertos.c **** /* USER CODE END Variables */
 108:Core/Src/freertos.c **** /* Definitions for defaultTask */
 109:Core/Src/freertos.c **** osThreadId_t defaultTaskHandle;
 110:Core/Src/freertos.c **** uint32_t defaultTaskBuffer[ 3000 ];
 111:Core/Src/freertos.c **** osStaticThreadDef_t defaultTaskControlBlock;
 112:Core/Src/freertos.c **** const osThreadAttr_t defaultTask_attributes = {
 113:Core/Src/freertos.c ****   .name = "defaultTask",
 114:Core/Src/freertos.c ****   .cb_mem = &defaultTaskControlBlock,
 115:Core/Src/freertos.c ****   .cb_size = sizeof(defaultTaskControlBlock),
 116:Core/Src/freertos.c ****   .stack_mem = &defaultTaskBuffer[0],
 117:Core/Src/freertos.c ****   .stack_size = sizeof(defaultTaskBuffer),
 118:Core/Src/freertos.c ****   .priority = (osPriority_t) osPriorityNormal,
 119:Core/Src/freertos.c **** };
 120:Core/Src/freertos.c **** 
 121:Core/Src/freertos.c **** /* Private function prototypes -----------------------------------------------*/
ARM GAS  C:\Users\mathi\AppData\Local\Temp\ccccnnkE.s 			page 5


 122:Core/Src/freertos.c **** /* USER CODE BEGIN FunctionPrototypes */
 123:Core/Src/freertos.c **** bool cubemx_transport_open(struct uxrCustomTransport *transport);
 124:Core/Src/freertos.c **** bool cubemx_transport_close(struct uxrCustomTransport *transport);
 125:Core/Src/freertos.c **** size_t cubemx_transport_write(struct uxrCustomTransport *transport, const uint8_t *buf, size_t len,
 126:Core/Src/freertos.c **** size_t cubemx_transport_read(struct uxrCustomTransport *transport, uint8_t *buf, size_t len, int ti
 127:Core/Src/freertos.c **** 
 128:Core/Src/freertos.c **** void *microros_allocate(size_t size, void *state);
 129:Core/Src/freertos.c **** void microros_deallocate(void *pointer, void *state);
 130:Core/Src/freertos.c **** void *microros_reallocate(void *pointer, size_t size, void *state);
 131:Core/Src/freertos.c **** void *microros_zero_allocate(size_t number_of_elements, size_t size_of_element, void *state);
 132:Core/Src/freertos.c **** 
 133:Core/Src/freertos.c **** void timer_100ms_callback(rcl_timer_t *timer, int64_t last_call_time);
 134:Core/Src/freertos.c **** void timer_250ms_callback(rcl_timer_t *timer, int64_t last_call_time);
 135:Core/Src/freertos.c **** void timer_1s_callback(rcl_timer_t *timer, int64_t last_call_time);
 136:Core/Src/freertos.c **** 
 137:Core/Src/freertos.c **** void cmd_vel_callback(const void *argument);
 138:Core/Src/freertos.c **** 
 139:Core/Src/freertos.c **** 
 140:Core/Src/freertos.c **** 
 141:Core/Src/freertos.c **** extern Motor_HandleTypeDef motor_left, motor_right;
 142:Core/Src/freertos.c **** extern Servo_HandleTypeDef steering_servo;
 143:Core/Src/freertos.c **** extern MotionState motion_state;
 144:Core/Src/freertos.c **** static bool motors_initialized = false;
 145:Core/Src/freertos.c **** /* USER CODE END FunctionPrototypes */
 146:Core/Src/freertos.c **** 
 147:Core/Src/freertos.c **** void StartDefaultTask(void *argument);
 148:Core/Src/freertos.c **** 
 149:Core/Src/freertos.c **** void MX_FREERTOS_Init(void); /* (MISRA C 2004 rule 8.1) */
 150:Core/Src/freertos.c **** 
 151:Core/Src/freertos.c **** /**
 152:Core/Src/freertos.c ****   * @brief  FreeRTOS initialization
 153:Core/Src/freertos.c ****   * @param  None
 154:Core/Src/freertos.c ****   * @retval None
 155:Core/Src/freertos.c ****   */
 156:Core/Src/freertos.c **** void MX_FREERTOS_Init(void) {
 157:Core/Src/freertos.c ****   /* USER CODE BEGIN Init */
 158:Core/Src/freertos.c **** 
 159:Core/Src/freertos.c ****   /* USER CODE END Init */
 160:Core/Src/freertos.c **** 
 161:Core/Src/freertos.c ****   /* USER CODE BEGIN RTOS_MUTEX */
 162:Core/Src/freertos.c ****   /* add mutexes, ... */
 163:Core/Src/freertos.c ****   /* USER CODE END RTOS_MUTEX */
 164:Core/Src/freertos.c **** 
 165:Core/Src/freertos.c ****   /* USER CODE BEGIN RTOS_SEMAPHORES */
 166:Core/Src/freertos.c ****   /* add semaphores, ... */
 167:Core/Src/freertos.c ****   /* USER CODE END RTOS_SEMAPHORES */
 168:Core/Src/freertos.c **** 
 169:Core/Src/freertos.c ****   /* USER CODE BEGIN RTOS_TIMERS */
 170:Core/Src/freertos.c ****   /* start timers, add new ones, ... */
 171:Core/Src/freertos.c ****   /* USER CODE END RTOS_TIMERS */
 172:Core/Src/freertos.c **** 
 173:Core/Src/freertos.c ****   /* USER CODE BEGIN RTOS_QUEUES */
 174:Core/Src/freertos.c ****   /* add queues, ... */
 175:Core/Src/freertos.c ****   /* USER CODE END RTOS_QUEUES */
 176:Core/Src/freertos.c **** 
 177:Core/Src/freertos.c ****   /* Create the thread(s) */
 178:Core/Src/freertos.c ****   /* creation of defaultTask */
ARM GAS  C:\Users\mathi\AppData\Local\Temp\ccccnnkE.s 			page 6


 179:Core/Src/freertos.c ****   defaultTaskHandle = osThreadNew(StartDefaultTask, NULL, &defaultTask_attributes);
 180:Core/Src/freertos.c **** 
 181:Core/Src/freertos.c ****   /* USER CODE BEGIN RTOS_THREADS */
 182:Core/Src/freertos.c ****   /* add threads, ... */
 183:Core/Src/freertos.c ****   /* USER CODE END RTOS_THREADS */
 184:Core/Src/freertos.c **** 
 185:Core/Src/freertos.c ****   /* USER CODE BEGIN RTOS_EVENTS */
 186:Core/Src/freertos.c ****   /* add events, ... */
 187:Core/Src/freertos.c ****   /* USER CODE END RTOS_EVENTS */
 188:Core/Src/freertos.c **** 
 189:Core/Src/freertos.c **** }
 190:Core/Src/freertos.c **** 
 191:Core/Src/freertos.c **** /* USER CODE BEGIN Header_StartDefaultTask */
 192:Core/Src/freertos.c **** /**
 193:Core/Src/freertos.c ****   * @brief  Function implementing the defaultTask thread.
 194:Core/Src/freertos.c ****   * @param  argument: Not used
 195:Core/Src/freertos.c ****   * @retval None
 196:Core/Src/freertos.c ****   */
 197:Core/Src/freertos.c **** /* USER CODE END Header_StartDefaultTask */
 198:Core/Src/freertos.c **** void StartDefaultTask(void *argument)
 199:Core/Src/freertos.c **** {
  73              		.loc 1 199 1 view -0
  74              		.cfi_startproc
  75              		@ Volatile: function does not return.
  76              		@ args = 0, pretend = 0, frame = 328
  77              		@ frame_needed = 0, uses_anonymous_args = 0
  78              		.loc 1 199 1 is_stmt 0 view .LVU1
  79 0000 80B5     		push	{r7, lr}
  80              		.cfi_def_cfa_offset 8
  81              		.cfi_offset 7, -8
  82              		.cfi_offset 14, -4
  83 0002 D4B0     		sub	sp, sp, #336
  84              		.cfi_def_cfa_offset 344
 200:Core/Src/freertos.c ****   /* USER CODE BEGIN StartDefaultTask */
 201:Core/Src/freertos.c **** 
 202:Core/Src/freertos.c **** 
 203:Core/Src/freertos.c **** 
 204:Core/Src/freertos.c ****   rmw_uros_set_custom_transport(
  85              		.loc 1 204 3 is_stmt 1 view .LVU2
  86 0004 7E4B     		ldr	r3, .L7+16
  87 0006 0193     		str	r3, [sp, #4]
  88 0008 7E4B     		ldr	r3, .L7+20
  89 000a 0093     		str	r3, [sp]
  90 000c 7E4B     		ldr	r3, .L7+24
  91 000e 7F4A     		ldr	r2, .L7+28
  92 0010 7F49     		ldr	r1, .L7+32
  93 0012 0120     		movs	r0, #1
  94              	.LVL1:
  95              		.loc 1 204 3 is_stmt 0 view .LVU3
  96 0014 FFF7FEFF 		bl	rmw_uros_set_custom_transport
  97              	.LVL2:
 205:Core/Src/freertos.c ****     true,
 206:Core/Src/freertos.c ****     (void *) &huart2,
 207:Core/Src/freertos.c ****     cubemx_transport_open,
 208:Core/Src/freertos.c ****     cubemx_transport_close,
 209:Core/Src/freertos.c ****     cubemx_transport_write,
 210:Core/Src/freertos.c ****     cubemx_transport_read);
ARM GAS  C:\Users\mathi\AppData\Local\Temp\ccccnnkE.s 			page 7


 211:Core/Src/freertos.c ****     
 212:Core/Src/freertos.c ****     rcl_allocator_t freeRTOS_allocator = rcutils_get_zero_initialized_allocator();
  98              		.loc 1 212 5 is_stmt 1 view .LVU4
  99              		.loc 1 212 42 is_stmt 0 view .LVU5
 100 0018 3DAC     		add	r4, sp, #244
 101 001a 2046     		mov	r0, r4
 102 001c FFF7FEFF 		bl	rcutils_get_zero_initialized_allocator
 103              	.LVL3:
 213:Core/Src/freertos.c ****     freeRTOS_allocator.allocate = microros_allocate;
 104              		.loc 1 213 5 is_stmt 1 view .LVU6
 105              		.loc 1 213 33 is_stmt 0 view .LVU7
 106 0020 7C4B     		ldr	r3, .L7+36
 107 0022 3D93     		str	r3, [sp, #244]
 214:Core/Src/freertos.c ****     freeRTOS_allocator.deallocate = microros_deallocate;
 108              		.loc 1 214 5 is_stmt 1 view .LVU8
 109              		.loc 1 214 35 is_stmt 0 view .LVU9
 110 0024 7C4B     		ldr	r3, .L7+40
 111 0026 3E93     		str	r3, [sp, #248]
 215:Core/Src/freertos.c ****     freeRTOS_allocator.reallocate = microros_reallocate;
 112              		.loc 1 215 5 is_stmt 1 view .LVU10
 113              		.loc 1 215 35 is_stmt 0 view .LVU11
 114 0028 7C4B     		ldr	r3, .L7+44
 115 002a 3F93     		str	r3, [sp, #252]
 216:Core/Src/freertos.c ****     freeRTOS_allocator.zero_allocate =  microros_zero_allocate;
 116              		.loc 1 216 5 is_stmt 1 view .LVU12
 117              		.loc 1 216 38 is_stmt 0 view .LVU13
 118 002c 7C4B     		ldr	r3, .L7+48
 119 002e 4093     		str	r3, [sp, #256]
 217:Core/Src/freertos.c **** 
 218:Core/Src/freertos.c ****     if (!rcutils_set_default_allocator(&freeRTOS_allocator)) {
 120              		.loc 1 218 5 is_stmt 1 view .LVU14
 121              		.loc 1 218 10 is_stmt 0 view .LVU15
 122 0030 2046     		mov	r0, r4
 123 0032 FFF7FEFF 		bl	rcutils_set_default_allocator
 124              	.LVL4:
 125              		.loc 1 218 8 discriminator 1 view .LVU16
 126 0036 50B9     		cbnz	r0, .L3
 219:Core/Src/freertos.c ****         printf("Error on default allocators (line %d)\n", __LINE__);
 127              		.loc 1 219 9 is_stmt 1 view .LVU17
 128 0038 DB21     		movs	r1, #219
 129 003a 7A48     		ldr	r0, .L7+52
 130 003c FFF7FEFF 		bl	printf
 131              	.LVL5:
 132 0040 05E0     		b	.L3
 133              	.L4:
 220:Core/Src/freertos.c ****     }
 221:Core/Src/freertos.c **** 
 222:Core/Src/freertos.c **** 
 223:Core/Src/freertos.c ****   rclc_support_t support;
 224:Core/Src/freertos.c ****   //rcl_ret_t rc;
 225:Core/Src/freertos.c **** 
 226:Core/Src/freertos.c ****   // After transport setup, before node creation
 227:Core/Src/freertos.c ****   while (rmw_uros_ping_agent(100, 3) != RCL_RET_OK) {
 228:Core/Src/freertos.c ****     printf("Waiting for agent...\n");
 134              		.loc 1 228 5 view .LVU18
 135 0042 7948     		ldr	r0, .L7+56
 136 0044 FFF7FEFF 		bl	puts
ARM GAS  C:\Users\mathi\AppData\Local\Temp\ccccnnkE.s 			page 8


 137              	.LVL6:
 229:Core/Src/freertos.c ****     osDelay(100);  // Don't block indefinitely
 138              		.loc 1 229 5 view .LVU19
 139 0048 6420     		movs	r0, #100
 140 004a FFF7FEFF 		bl	osDelay
 141              	.LVL7:
 142              	.L3:
 227:Core/Src/freertos.c ****     printf("Waiting for agent...\n");
 143              		.loc 1 227 38 view .LVU20
 227:Core/Src/freertos.c ****     printf("Waiting for agent...\n");
 144              		.loc 1 227 10 is_stmt 0 view .LVU21
 145 004e 0321     		movs	r1, #3
 146 0050 6420     		movs	r0, #100
 147 0052 FFF7FEFF 		bl	rmw_uros_ping_agent
 148              	.LVL8:
 227:Core/Src/freertos.c ****     printf("Waiting for agent...\n");
 149              		.loc 1 227 38 discriminator 1 view .LVU22
 150 0056 0028     		cmp	r0, #0
 151 0058 F3D1     		bne	.L4
 230:Core/Src/freertos.c ****   }
 231:Core/Src/freertos.c **** 
 232:Core/Src/freertos.c ****   hcsr04_init_range_msg(&ultra_ranges_msg.front_left, micro_ros_string_utilities_init("us_front_lef
 152              		.loc 1 232 3 is_stmt 1 view .LVU23
 153 005a 42AD     		add	r5, sp, #264
 154 005c 7349     		ldr	r1, .L7+60
 155 005e 2846     		mov	r0, r5
 156 0060 FFF7FEFF 		bl	micro_ros_string_utilities_init
 157              	.LVL9:
 158              		.loc 1 232 3 is_stmt 0 discriminator 1 view .LVU24
 159 0064 724C     		ldr	r4, .L7+64
 160 0066 95E80E00 		ldm	r5, {r1, r2, r3}
 161 006a 2046     		mov	r0, r4
 162 006c FFF7FEFF 		bl	hcsr04_init_range_msg
 163              	.LVL10:
 233:Core/Src/freertos.c ****   hcsr04_init_range_msg(&ultra_ranges_msg.front_right, micro_ros_string_utilities_init("us_front_ri
 164              		.loc 1 233 3 is_stmt 1 view .LVU25
 165 0070 45AD     		add	r5, sp, #276
 166 0072 7049     		ldr	r1, .L7+68
 167 0074 2846     		mov	r0, r5
 168 0076 FFF7FEFF 		bl	micro_ros_string_utilities_init
 169              	.LVL11:
 170              		.loc 1 233 3 is_stmt 0 discriminator 1 view .LVU26
 171 007a 95E80E00 		ldm	r5, {r1, r2, r3}
 172 007e 04F12C00 		add	r0, r4, #44
 173 0082 FFF7FEFF 		bl	hcsr04_init_range_msg
 174              	.LVL12:
 234:Core/Src/freertos.c ****   hcsr04_init_range_msg(&ultra_ranges_msg.center_left, micro_ros_string_utilities_init("us_center_l
 175              		.loc 1 234 3 is_stmt 1 view .LVU27
 176 0086 48AD     		add	r5, sp, #288
 177 0088 6B49     		ldr	r1, .L7+72
 178 008a 2846     		mov	r0, r5
 179 008c FFF7FEFF 		bl	micro_ros_string_utilities_init
 180              	.LVL13:
 181              		.loc 1 234 3 is_stmt 0 discriminator 1 view .LVU28
 182 0090 95E80E00 		ldm	r5, {r1, r2, r3}
 183 0094 04F15800 		add	r0, r4, #88
 184 0098 FFF7FEFF 		bl	hcsr04_init_range_msg
ARM GAS  C:\Users\mathi\AppData\Local\Temp\ccccnnkE.s 			page 9


 185              	.LVL14:
 235:Core/Src/freertos.c ****   hcsr04_init_range_msg(&ultra_ranges_msg.center_right, micro_ros_string_utilities_init("us_center_
 186              		.loc 1 235 3 is_stmt 1 view .LVU29
 187 009c 4BAD     		add	r5, sp, #300
 188 009e 6749     		ldr	r1, .L7+76
 189 00a0 2846     		mov	r0, r5
 190 00a2 FFF7FEFF 		bl	micro_ros_string_utilities_init
 191              	.LVL15:
 192              		.loc 1 235 3 is_stmt 0 discriminator 1 view .LVU30
 193 00a6 95E80E00 		ldm	r5, {r1, r2, r3}
 194 00aa 04F18400 		add	r0, r4, #132
 195 00ae FFF7FEFF 		bl	hcsr04_init_range_msg
 196              	.LVL16:
 236:Core/Src/freertos.c ****   hcsr04_init_range_msg(&ultra_ranges_msg.rear_left, micro_ros_string_utilities_init("us_rear_left"
 197              		.loc 1 236 3 is_stmt 1 view .LVU31
 198 00b2 4EAD     		add	r5, sp, #312
 199 00b4 6249     		ldr	r1, .L7+80
 200 00b6 2846     		mov	r0, r5
 201 00b8 FFF7FEFF 		bl	micro_ros_string_utilities_init
 202              	.LVL17:
 203              		.loc 1 236 3 is_stmt 0 discriminator 1 view .LVU32
 204 00bc 95E80E00 		ldm	r5, {r1, r2, r3}
 205 00c0 04F1B000 		add	r0, r4, #176
 206 00c4 FFF7FEFF 		bl	hcsr04_init_range_msg
 207              	.LVL18:
 237:Core/Src/freertos.c ****   hcsr04_init_range_msg(&ultra_ranges_msg.rear_right, micro_ros_string_utilities_init("us_rear_righ
 208              		.loc 1 237 3 is_stmt 1 view .LVU33
 209 00c8 51AD     		add	r5, sp, #324
 210 00ca 5E49     		ldr	r1, .L7+84
 211 00cc 2846     		mov	r0, r5
 212 00ce FFF7FEFF 		bl	micro_ros_string_utilities_init
 213              	.LVL19:
 214              		.loc 1 237 3 is_stmt 0 discriminator 1 view .LVU34
 215 00d2 95E80E00 		ldm	r5, {r1, r2, r3}
 216 00d6 04F1DC00 		add	r0, r4, #220
 217 00da FFF7FEFF 		bl	hcsr04_init_range_msg
 218              	.LVL20:
 238:Core/Src/freertos.c **** 
 239:Core/Src/freertos.c ****   encoders_msg.header.frame_id = micro_ros_string_utilities_init("encoders");
 219              		.loc 1 239 3 is_stmt 1 view .LVU35
 220              		.loc 1 239 34 is_stmt 0 view .LVU36
 221 00de 02AC     		add	r4, sp, #8
 222 00e0 5949     		ldr	r1, .L7+88
 223 00e2 2046     		mov	r0, r4
 224 00e4 FFF7FEFF 		bl	micro_ros_string_utilities_init
 225              	.LVL21:
 226 00e8 584B     		ldr	r3, .L7+92
 227 00ea 94E80700 		ldm	r4, {r0, r1, r2}
 228 00ee 83E80700 		stm	r3, {r0, r1, r2}
 240:Core/Src/freertos.c **** 
 241:Core/Src/freertos.c **** 
 242:Core/Src/freertos.c ****   // Initialize init_options
 243:Core/Src/freertos.c ****   rcl_init_options_t init_options = rcl_get_zero_initialized_init_options();
 229              		.loc 1 243 3 is_stmt 1 view .LVU37
 230              		.loc 1 243 37 is_stmt 0 view .LVU38
 231 00f2 FFF7FEFF 		bl	rcl_get_zero_initialized_init_options
 232              	.LVL22:
ARM GAS  C:\Users\mathi\AppData\Local\Temp\ccccnnkE.s 			page 10


 233 00f6 2F90     		str	r0, [sp, #188]
 244:Core/Src/freertos.c **** 
 245:Core/Src/freertos.c ****   rcl_init_options_init(&init_options, freeRTOS_allocator);
 234              		.loc 1 245 3 is_stmt 1 view .LVU39
 235 00f8 2FAC     		add	r4, sp, #188
 236 00fa 40AB     		add	r3, sp, #256
 237 00fc 93E80300 		ldm	r3, {r0, r1}
 238 0100 8DE80300 		stm	sp, {r0, r1}
 239 0104 3DAE     		add	r6, sp, #244
 240 0106 96E80E00 		ldm	r6, {r1, r2, r3}
 241 010a 2046     		mov	r0, r4
 242 010c FFF7FEFF 		bl	rcl_init_options_init
 243              	.LVL23:
 246:Core/Src/freertos.c ****   rcl_init_options_set_domain_id(&init_options, 255);
 244              		.loc 1 246 3 view .LVU40
 245 0110 FF21     		movs	r1, #255
 246 0112 2046     		mov	r0, r4
 247 0114 FFF7FEFF 		bl	rcl_init_options_set_domain_id
 248              	.LVL24:
 247:Core/Src/freertos.c **** 
 248:Core/Src/freertos.c ****   rclc_support_init_with_options(&support, 0, NULL, &init_options, &freeRTOS_allocator);
 249              		.loc 1 248 3 view .LVU41
 250 0118 30AD     		add	r5, sp, #192
 251 011a 0096     		str	r6, [sp]
 252 011c 2346     		mov	r3, r4
 253 011e 0022     		movs	r2, #0
 254 0120 1146     		mov	r1, r2
 255 0122 2846     		mov	r0, r5
 256 0124 FFF7FEFF 		bl	rclc_support_init_with_options
 257              	.LVL25:
 249:Core/Src/freertos.c **** 
 250:Core/Src/freertos.c ****   // create rcl_node
 251:Core/Src/freertos.c ****   rcl_node_t my_node;
 258              		.loc 1 251 3 view .LVU42
 252:Core/Src/freertos.c ****   rclc_node_init_default(&my_node, "stm32", "", &support);
 259              		.loc 1 252 3 view .LVU43
 260 0128 2DAC     		add	r4, sp, #180
 261 012a 2B46     		mov	r3, r5
 262 012c 484A     		ldr	r2, .L7+96
 263 012e 4949     		ldr	r1, .L7+100
 264 0130 2046     		mov	r0, r4
 265 0132 FFF7FEFF 		bl	rclc_node_init_default
 266              	.LVL26:
 253:Core/Src/freertos.c ****   //if (rc != RCL_RET_OK) {
 254:Core/Src/freertos.c ****     //printf("Error in rclc_node_init_default\n");
 255:Core/Src/freertos.c ****     //return;
 256:Core/Src/freertos.c ****   //}
 257:Core/Src/freertos.c **** 
 258:Core/Src/freertos.c ****   rmw_uros_sync_session(1000);
 267              		.loc 1 258 3 view .LVU44
 268 0136 4FF47A70 		mov	r0, #1000
 269 013a FFF7FEFF 		bl	rmw_uros_sync_session
 270              	.LVL27:
 259:Core/Src/freertos.c **** 
 260:Core/Src/freertos.c ****   rclc_publisher_init_default(&encoders_pub, &my_node, ROSIDL_GET_MSG_TYPE_SUPPORT(mobi_interfaces,
 271              		.loc 1 260 3 view .LVU45
 272 013e FFF7FEFF 		bl	rosidl_typesupport_c__get_message_type_support_handle__mobi_interfaces__msg__EncodersStamped
ARM GAS  C:\Users\mathi\AppData\Local\Temp\ccccnnkE.s 			page 11


 273              	.LVL28:
 274 0142 0246     		mov	r2, r0
 275              		.loc 1 260 3 is_stmt 0 discriminator 1 view .LVU46
 276 0144 444B     		ldr	r3, .L7+104
 277 0146 2146     		mov	r1, r4
 278 0148 4448     		ldr	r0, .L7+108
 279 014a FFF7FEFF 		bl	rclc_publisher_init_default
 280              	.LVL29:
 261:Core/Src/freertos.c **** 
 262:Core/Src/freertos.c ****   rclc_publisher_init_default(&ultra_ranges_pub, &my_node, ROSIDL_GET_MSG_TYPE_SUPPORT(mobi_interfa
 281              		.loc 1 262 3 is_stmt 1 view .LVU47
 282 014e FFF7FEFF 		bl	rosidl_typesupport_c__get_message_type_support_handle__mobi_interfaces__msg__UltraRanges
 283              	.LVL30:
 284 0152 0246     		mov	r2, r0
 285              		.loc 1 262 3 is_stmt 0 discriminator 1 view .LVU48
 286 0154 424B     		ldr	r3, .L7+112
 287 0156 2146     		mov	r1, r4
 288 0158 4248     		ldr	r0, .L7+116
 289 015a FFF7FEFF 		bl	rclc_publisher_init_default
 290              	.LVL31:
 263:Core/Src/freertos.c **** 
 264:Core/Src/freertos.c ****   // Initialize subscribers
 265:Core/Src/freertos.c ****   rclc_subscription_init_default(&cmd_vel_sub, &my_node, ROSIDL_GET_MSG_TYPE_SUPPORT(geometry_msgs,
 291              		.loc 1 265 3 is_stmt 1 view .LVU49
 292 015e FFF7FEFF 		bl	rosidl_typesupport_c__get_message_type_support_handle__geometry_msgs__msg__Twist
 293              	.LVL32:
 294 0162 0246     		mov	r2, r0
 295              		.loc 1 265 3 is_stmt 0 discriminator 1 view .LVU50
 296 0164 404F     		ldr	r7, .L7+120
 297 0166 414B     		ldr	r3, .L7+124
 298 0168 2146     		mov	r1, r4
 299 016a 3846     		mov	r0, r7
 300 016c FFF7FEFF 		bl	rclc_subscription_init_default
 301              	.LVL33:
 266:Core/Src/freertos.c **** 
 267:Core/Src/freertos.c **** 
 268:Core/Src/freertos.c ****   rcl_timer_t timer_100ms;
 302              		.loc 1 268 3 is_stmt 1 view .LVU51
 269:Core/Src/freertos.c ****   
 270:Core/Src/freertos.c ****   rclc_timer_init_default2(&timer_100ms, &support, RCL_MS_TO_NS(100), timer_100ms_callback, true);
 303              		.loc 1 270 3 view .LVU52
 304 0170 0DF1B009 		add	r9, sp, #176
 305 0174 0124     		movs	r4, #1
 306 0176 0194     		str	r4, [sp, #4]
 307 0178 3D4B     		ldr	r3, .L7+128
 308 017a 0093     		str	r3, [sp]
 309 017c 1CA3     		adr	r3, .L7
 310 017e D3E90023 		ldrd	r2, [r3]
 311 0182 2946     		mov	r1, r5
 312 0184 4846     		mov	r0, r9
 313 0186 FFF7FEFF 		bl	rclc_timer_init_default2
 314              	.LVL34:
 271:Core/Src/freertos.c ****   
 272:Core/Src/freertos.c ****   rcl_timer_t timer_250ms;
 315              		.loc 1 272 3 view .LVU53
 273:Core/Src/freertos.c ****   rclc_timer_init_default2(&timer_250ms, &support, RCL_MS_TO_NS(250), timer_250ms_callback, true);
 316              		.loc 1 273 3 view .LVU54
ARM GAS  C:\Users\mathi\AppData\Local\Temp\ccccnnkE.s 			page 12


 317 018a 0DF1AC08 		add	r8, sp, #172
 318 018e 0194     		str	r4, [sp, #4]
 319 0190 384B     		ldr	r3, .L7+132
 320 0192 0093     		str	r3, [sp]
 321 0194 18A3     		adr	r3, .L7+8
 322 0196 D3E90023 		ldrd	r2, [r3]
 323 019a 2946     		mov	r1, r5
 324 019c 4046     		mov	r0, r8
 325 019e FFF7FEFF 		bl	rclc_timer_init_default2
 326              	.LVL35:
 274:Core/Src/freertos.c **** 
 275:Core/Src/freertos.c ****   rclc_executor_t executor = rclc_executor_get_zero_initialized_executor();
 327              		.loc 1 275 3 view .LVU55
 328              		.loc 1 275 30 is_stmt 0 view .LVU56
 329 01a2 06AC     		add	r4, sp, #24
 330 01a4 2046     		mov	r0, r4
 331 01a6 FFF7FEFF 		bl	rclc_executor_get_zero_initialized_executor
 332              	.LVL36:
 276:Core/Src/freertos.c ****   
 277:Core/Src/freertos.c **** 
 278:Core/Src/freertos.c ****   rclc_executor_init(&executor, &support.context, 3, &freeRTOS_allocator);
 333              		.loc 1 278 3 is_stmt 1 view .LVU57
 334 01aa 3346     		mov	r3, r6
 335 01ac 0322     		movs	r2, #3
 336 01ae 2946     		mov	r1, r5
 337 01b0 2046     		mov	r0, r4
 338 01b2 FFF7FEFF 		bl	rclc_executor_init
 339              	.LVL37:
 279:Core/Src/freertos.c **** 
 280:Core/Src/freertos.c ****   rclc_executor_add_timer(&executor, &timer_100ms);
 340              		.loc 1 280 3 view .LVU58
 341 01b6 4946     		mov	r1, r9
 342 01b8 2046     		mov	r0, r4
 343 01ba FFF7FEFF 		bl	rclc_executor_add_timer
 344              	.LVL38:
 281:Core/Src/freertos.c ****   //if (rc != RCL_RET_OK) {
 282:Core/Src/freertos.c ****     //printf("Error in rclc_executor_add_timer.\n");
 283:Core/Src/freertos.c ****   //}
 284:Core/Src/freertos.c **** 
 285:Core/Src/freertos.c ****   rclc_executor_add_timer(&executor, &timer_250ms);
 345              		.loc 1 285 3 view .LVU59
 346 01be 4146     		mov	r1, r8
 347 01c0 2046     		mov	r0, r4
 348 01c2 FFF7FEFF 		bl	rclc_executor_add_timer
 349              	.LVL39:
 286:Core/Src/freertos.c **** 
 287:Core/Src/freertos.c ****   rclc_executor_add_subscription(&executor, &cmd_vel_sub, &cmd_vel_msg, &cmd_vel_callback, ON_NEW_D
 350              		.loc 1 287 3 view .LVU60
 351 01c6 0023     		movs	r3, #0
 352 01c8 0093     		str	r3, [sp]
 353 01ca 2B4B     		ldr	r3, .L7+136
 354 01cc 2B4A     		ldr	r2, .L7+140
 355 01ce 3946     		mov	r1, r7
 356 01d0 2046     		mov	r0, r4
 357 01d2 FFF7FEFF 		bl	rclc_executor_add_subscription
 358              	.LVL40:
 288:Core/Src/freertos.c **** 
ARM GAS  C:\Users\mathi\AppData\Local\Temp\ccccnnkE.s 			page 13


 289:Core/Src/freertos.c ****   rclc_executor_prepare(&executor);
 359              		.loc 1 289 3 view .LVU61
 360 01d6 2046     		mov	r0, r4
 361 01d8 FFF7FEFF 		bl	rclc_executor_prepare
 362              	.LVL41:
 363              	.L5:
 290:Core/Src/freertos.c **** 
 291:Core/Src/freertos.c **** 
 292:Core/Src/freertos.c ****   /* Infinite loop */
 293:Core/Src/freertos.c ****   for(;;)
 364              		.loc 1 293 3 view .LVU62
 294:Core/Src/freertos.c ****   {
 295:Core/Src/freertos.c **** 
 296:Core/Src/freertos.c ****     //steering_servo.timer->Instance->CCR3 = 1000;
 297:Core/Src/freertos.c ****     //HAL_Delay(2000);
 298:Core/Src/freertos.c ****     //steering_servo.timer->Instance->CCR3 = 2000;
 299:Core/Src/freertos.c ****     //HAL_Delay(2000);
 300:Core/Src/freertos.c **** 
 301:Core/Src/freertos.c **** 
 302:Core/Src/freertos.c ****     rclc_executor_spin_some(&executor, RCL_MS_TO_NS(100));
 365              		.loc 1 302 5 view .LVU63
 366 01dc 04A3     		adr	r3, .L7
 367 01de D3E90023 		ldrd	r2, [r3]
 368 01e2 06A8     		add	r0, sp, #24
 369 01e4 FFF7FEFF 		bl	rclc_executor_spin_some
 370              	.LVL42:
 303:Core/Src/freertos.c ****   // Safety: Update motion control even without new messages
 304:Core/Src/freertos.c ****     //if(HAL_GetTick() - motion_state.last_update > 100) {
 305:Core/Src/freertos.c ****       //  float dt = 0.1f; // 100ms
 306:Core/Src/freertos.c ****         //UpdateMotionControl(&motion_state, dt);
 307:Core/Src/freertos.c ****     //}
 308:Core/Src/freertos.c ****     osDelay(1);
 371              		.loc 1 308 5 discriminator 1 view .LVU64
 372 01e8 0120     		movs	r0, #1
 373 01ea FFF7FEFF 		bl	osDelay
 374              	.LVL43:
 293:Core/Src/freertos.c ****   {
 375              		.loc 1 293 3 view .LVU65
 376 01ee F5E7     		b	.L5
 377              	.L8:
 378              		.align	3
 379              	.L7:
 380 01f0 00E1F505 		.word	100000000
 381 01f4 00000000 		.word	0
 382 01f8 80B2E60E 		.word	250000000
 383 01fc 00000000 		.word	0
 384 0200 00000000 		.word	cubemx_transport_read
 385 0204 00000000 		.word	cubemx_transport_write
 386 0208 00000000 		.word	cubemx_transport_close
 387 020c 00000000 		.word	cubemx_transport_open
 388 0210 00000000 		.word	huart2
 389 0214 00000000 		.word	microros_allocate
 390 0218 00000000 		.word	microros_deallocate
 391 021c 00000000 		.word	microros_reallocate
 392 0220 00000000 		.word	microros_zero_allocate
 393 0224 00000000 		.word	.LC0
 394 0228 28000000 		.word	.LC1
ARM GAS  C:\Users\mathi\AppData\Local\Temp\ccccnnkE.s 			page 14


 395 022c 40000000 		.word	.LC2
 396 0230 00000000 		.word	ultra_ranges_msg
 397 0234 50000000 		.word	.LC3
 398 0238 60000000 		.word	.LC4
 399 023c 70000000 		.word	.LC5
 400 0240 80000000 		.word	.LC6
 401 0244 90000000 		.word	.LC7
 402 0248 A0000000 		.word	.LC8
 403 024c 08000000 		.word	encoders_msg+8
 404 0250 AC000000 		.word	.LC9
 405 0254 B0000000 		.word	.LC10
 406 0258 B8000000 		.word	.LC11
 407 025c 00000000 		.word	encoders_pub
 408 0260 C4000000 		.word	.LC12
 409 0264 00000000 		.word	ultra_ranges_pub
 410 0268 00000000 		.word	cmd_vel_sub
 411 026c D4000000 		.word	.LC13
 412 0270 00000000 		.word	timer_100ms_callback
 413 0274 00000000 		.word	timer_250ms_callback
 414 0278 00000000 		.word	cmd_vel_callback
 415 027c 00000000 		.word	cmd_vel_msg
 416              		.cfi_endproc
 417              	.LFE302:
 419              		.section	.text.timer_100ms_callback,"ax",%progbits
 420              		.align	1
 421              		.global	timer_100ms_callback
 422              		.syntax unified
 423              		.thumb
 424              		.thumb_func
 426              	timer_100ms_callback:
 427              	.LVL44:
 428              	.LFB303:
 309:Core/Src/freertos.c ****   }
 310:Core/Src/freertos.c ****   /* USER CODE END StartDefaultTask */
 311:Core/Src/freertos.c **** }
 312:Core/Src/freertos.c **** 
 313:Core/Src/freertos.c **** /* Private application code --------------------------------------------------*/
 314:Core/Src/freertos.c **** /* USER CODE BEGIN Application */
 315:Core/Src/freertos.c **** static int32_t fake_left = 0;
 316:Core/Src/freertos.c **** static int32_t fake_right = 1000;
 317:Core/Src/freertos.c **** 
 318:Core/Src/freertos.c **** void timer_100ms_callback(rcl_timer_t *timer, int64_t last_call_time) {
 429              		.loc 1 318 71 view -0
 430              		.cfi_startproc
 431              		@ args = 0, pretend = 0, frame = 0
 432              		@ frame_needed = 0, uses_anonymous_args = 0
 433              		.loc 1 318 71 is_stmt 0 view .LVU67
 434 0000 10B5     		push	{r4, lr}
 435              		.cfi_def_cfa_offset 8
 436              		.cfi_offset 4, -8
 437              		.cfi_offset 14, -4
 319:Core/Src/freertos.c ****   (void)last_call_time;
 438              		.loc 1 319 3 is_stmt 1 view .LVU68
 320:Core/Src/freertos.c **** 
 321:Core/Src/freertos.c ****   encoders_msg.encoders.front_left = encoder_1.counter;
 439              		.loc 1 321 3 view .LVU69
 440              		.loc 1 321 47 is_stmt 0 view .LVU70
ARM GAS  C:\Users\mathi\AppData\Local\Temp\ccccnnkE.s 			page 15


 441 0002 084B     		ldr	r3, .L11
 442 0004 1B69     		ldr	r3, [r3, #16]
 443              		.loc 1 321 36 view .LVU71
 444 0006 084C     		ldr	r4, .L11+4
 445 0008 6361     		str	r3, [r4, #20]
 322:Core/Src/freertos.c ****   encoders_msg.encoders.front_right = encoder_2.counter;
 446              		.loc 1 322 3 is_stmt 1 view .LVU72
 447              		.loc 1 322 48 is_stmt 0 view .LVU73
 448 000a 084B     		ldr	r3, .L11+8
 449 000c 1B69     		ldr	r3, [r3, #16]
 450              		.loc 1 322 37 view .LVU74
 451 000e A361     		str	r3, [r4, #24]
 323:Core/Src/freertos.c **** 
 324:Core/Src/freertos.c ****   stamp_header(&encoders_msg.header.stamp);
 452              		.loc 1 324 3 is_stmt 1 view .LVU75
 453 0010 2046     		mov	r0, r4
 454              	.LVL45:
 455              		.loc 1 324 3 is_stmt 0 view .LVU76
 456 0012 FFF7FEFF 		bl	stamp_header
 457              	.LVL46:
 325:Core/Src/freertos.c ****   rcl_publish(&encoders_pub, &encoders_msg, NULL);
 458              		.loc 1 325 3 is_stmt 1 view .LVU77
 459 0016 0022     		movs	r2, #0
 460 0018 2146     		mov	r1, r4
 461 001a 0548     		ldr	r0, .L11+12
 462 001c FFF7FEFF 		bl	rcl_publish
 463              	.LVL47:
 326:Core/Src/freertos.c **** }
 464              		.loc 1 326 1 is_stmt 0 view .LVU78
 465 0020 10BD     		pop	{r4, pc}
 466              	.L12:
 467 0022 00BF     		.align	2
 468              	.L11:
 469 0024 00000000 		.word	encoder_1
 470 0028 00000000 		.word	encoders_msg
 471 002c 00000000 		.word	encoder_2
 472 0030 00000000 		.word	encoders_pub
 473              		.cfi_endproc
 474              	.LFE303:
 476              		.section	.text.cmd_vel_callback,"ax",%progbits
 477              		.align	1
 478              		.global	cmd_vel_callback
 479              		.syntax unified
 480              		.thumb
 481              		.thumb_func
 483              	cmd_vel_callback:
 484              	.LVL48:
 485              	.LFB304:
 327:Core/Src/freertos.c **** 
 328:Core/Src/freertos.c **** void cmd_vel_callback(const void *msgin) {
 486              		.loc 1 328 42 is_stmt 1 view -0
 487              		.cfi_startproc
 488              		@ args = 0, pretend = 0, frame = 0
 489              		@ frame_needed = 0, uses_anonymous_args = 0
 490              		.loc 1 328 42 is_stmt 0 view .LVU80
 491 0000 F8B5     		push	{r3, r4, r5, r6, r7, lr}
 492              		.cfi_def_cfa_offset 24
ARM GAS  C:\Users\mathi\AppData\Local\Temp\ccccnnkE.s 			page 16


 493              		.cfi_offset 3, -24
 494              		.cfi_offset 4, -20
 495              		.cfi_offset 5, -16
 496              		.cfi_offset 6, -12
 497              		.cfi_offset 7, -8
 498              		.cfi_offset 14, -4
 499 0002 2DED028B 		vpush.64	{d8}
 500              		.cfi_def_cfa_offset 32
 501              		.cfi_offset 80, -32
 502              		.cfi_offset 81, -28
 503 0006 0446     		mov	r4, r0
 329:Core/Src/freertos.c **** 
 330:Core/Src/freertos.c ****   if (!motors_initialized){
 504              		.loc 1 330 3 is_stmt 1 view .LVU81
 505              		.loc 1 330 7 is_stmt 0 view .LVU82
 506 0008 534B     		ldr	r3, .L32
 507 000a 1B78     		ldrb	r3, [r3]	@ zero_extendqisi2
 508              		.loc 1 330 6 view .LVU83
 509 000c 002B     		cmp	r3, #0
 510 000e 00F08180 		beq	.L31
 511              	.LVL49:
 512              	.L14:
 331:Core/Src/freertos.c ****     EnableMotorOutputs(&motor_right);
 332:Core/Src/freertos.c ****     motors_initialized = true;
 333:Core/Src/freertos.c ****   }
 334:Core/Src/freertos.c ****   
 335:Core/Src/freertos.c ****   const geometry_msgs__msg__Twist *msg = (const geometry_msgs__msg__Twist *)msgin;
 513              		.loc 1 335 3 is_stmt 1 view .LVU84
 336:Core/Src/freertos.c ****   
 337:Core/Src/freertos.c ****   // Convert Twist to Ackermann commands
 338:Core/Src/freertos.c ****     float linear_x = fmaxf(fminf(msg->linear.x, 1.0f), -1.0f);
 514              		.loc 1 338 5 view .LVU85
 515              		.loc 1 338 22 is_stmt 0 view .LVU86
 516 0012 D4E90001 		ldrd	r0, [r4]
 517 0016 FFF7FEFF 		bl	__aeabi_d2f
 518              	.LVL50:
 519 001a F7EE000A 		vmov.f32	s1, #1.0e+0
 520 001e 00EE100A 		vmov	s0, r0
 521 0022 FFF7FEFF 		bl	fminf
 522              	.LVL51:
 523              		.loc 1 338 22 discriminator 1 view .LVU87
 524 0026 FFEE000A 		vmov.f32	s1, #-1.0e+0
 525 002a FFF7FEFF 		bl	fmaxf
 526              	.LVL52:
 527 002e B0EE408A 		vmov.f32	s16, s0
 528              	.LVL53:
 339:Core/Src/freertos.c ****     float angular_z = msg->angular.z;
 529              		.loc 1 339 5 is_stmt 1 view .LVU88
 530              		.loc 1 339 11 is_stmt 0 view .LVU89
 531 0032 D4E90A01 		ldrd	r0, [r4, #40]
 532 0036 FFF7FEFF 		bl	__aeabi_d2f
 533              	.LVL54:
 534              		.loc 1 339 11 view .LVU90
 535 003a 07EE100A 		vmov	s14, r0
 536              	.LVL55:
 340:Core/Src/freertos.c **** 
 341:Core/Src/freertos.c ****     float target_angle = CENTER_STEERING_ANGLE;
ARM GAS  C:\Users\mathi\AppData\Local\Temp\ccccnnkE.s 			page 17


 537              		.loc 1 341 5 is_stmt 1 view .LVU91
 342:Core/Src/freertos.c **** 
 343:Core/Src/freertos.c ****     // Calculate Ackermann steering angle
 344:Core/Src/freertos.c ****     if(fabsf(linear_x) > 0.1f) {
 538              		.loc 1 344 5 view .LVU92
 539              		.loc 1 344 8 is_stmt 0 view .LVU93
 540 003e F0EEC80A 		vabs.f32	s1, s16
 541              		.loc 1 344 7 view .LVU94
 542 0042 DFED467A 		vldr.32	s15, .L32+4
 543 0046 F4EEE70A 		vcmpe.f32	s1, s15
 544 004a F1EE10FA 		vmrs	APSR_nzcv, FPSCR
 545 004e 6BDD     		ble	.L27
 546              	.LBB2:
 345:Core/Src/freertos.c ****       float direction_sign = (linear_x >= 0) ? 1.0f : -1.0f;
 547              		.loc 1 345 7 is_stmt 1 view .LVU95
 548              		.loc 1 345 53 is_stmt 0 view .LVU96
 549 0050 B5EEC08A 		vcmpe.f32	s16, #0
 550 0054 F1EE10FA 		vmrs	APSR_nzcv, FPSCR
 551 0058 63DB     		blt	.L28
 552              		.loc 1 345 53 discriminator 1 view .LVU97
 553 005a F7EE008A 		vmov.f32	s17, #1.0e+0
 554              	.L17:
 555              	.LVL56:
 346:Core/Src/freertos.c ****       float angle_rad = atan2f(WHEELBASE * angular_z , fabsf(linear_x)) * direction_sign;
 556              		.loc 1 346 7 is_stmt 1 view .LVU98
 557              		.loc 1 346 25 is_stmt 0 view .LVU99
 558 005e 9FED400A 		vldr.32	s0, .L32+8
 559 0062 27EE000A 		vmul.f32	s0, s14, s0
 560 0066 FFF7FEFF 		bl	atan2f
 561              	.LVL57:
 562              		.loc 1 346 13 discriminator 1 view .LVU100
 563 006a 60EE287A 		vmul.f32	s15, s0, s17
 564              	.LVL58:
 347:Core/Src/freertos.c ****       target_angle = RAD_TO_DEG(angle_rad) + CENTER_STEERING_ANGLE;
 565              		.loc 1 347 7 is_stmt 1 view .LVU101
 566              		.loc 1 347 22 is_stmt 0 view .LVU102
 567 006e 9FED3D7A 		vldr.32	s14, .L32+12
 568 0072 67EE877A 		vmul.f32	s15, s15, s14
 569              	.LVL59:
 570              		.loc 1 347 20 view .LVU103
 571 0076 9FED3C7A 		vldr.32	s14, .L32+16
 572 007a 37EE870A 		vadd.f32	s0, s15, s14
 573              	.LVL60:
 574              	.L19:
 575              		.loc 1 347 20 view .LVU104
 576              	.LBE2:
 348:Core/Src/freertos.c ****     } else if(fabsf(angular_z) > 0.01f) {
 349:Core/Src/freertos.c ****         // Handle stationary steering
 350:Core/Src/freertos.c ****         target_angle = copysignf(MAX_STEERING_ANGLE, angular_z) + CENTER_STEERING_ANGLE;
 351:Core/Src/freertos.c ****     }
 352:Core/Src/freertos.c **** 
 353:Core/Src/freertos.c ****     motion_state.target_steering = fmaxf(fminf(target_angle, SERVO_MAX_ANGLE), SERVO_MIN_ANGLE);
 577              		.loc 1 353 5 is_stmt 1 view .LVU105
 578              		.loc 1 353 36 is_stmt 0 view .LVU106
 579 007e DFED3B0A 		vldr.32	s1, .L32+20
 580 0082 FFF7FEFF 		bl	fminf
 581              	.LVL61:
ARM GAS  C:\Users\mathi\AppData\Local\Temp\ccccnnkE.s 			page 18


 582              		.loc 1 353 36 discriminator 1 view .LVU107
 583 0086 DFED3A0A 		vldr.32	s1, .L32+24
 584 008a FFF7FEFF 		bl	fmaxf
 585              	.LVL62:
 586              		.loc 1 353 34 discriminator 2 view .LVU108
 587 008e 394D     		ldr	r5, .L32+28
 588 0090 85ED040A 		vstr.32	s0, [r5, #16]
 354:Core/Src/freertos.c ****     //float angle_deg = RAD_TO_DEG(angle_rad) + CENTER_STEERING_ANGLE;
 355:Core/Src/freertos.c **** 
 356:Core/Src/freertos.c ****     //angle_deg = fmax(fmin(angle_deg, SERVO_MAX_ANGLE), SERVO_MIN_ANGLE);
 357:Core/Src/freertos.c ****     //if (angular_z == 0){angle_deg = CENTER_STEERING_ANGLE;}
 358:Core/Src/freertos.c **** 
 359:Core/Src/freertos.c ****     // Set target speed
 360:Core/Src/freertos.c ****     motion_state.target_speed = linear_x;
 589              		.loc 1 360 5 is_stmt 1 view .LVU109
 590              		.loc 1 360 31 is_stmt 0 view .LVU110
 591 0094 85ED018A 		vstr.32	s16, [r5, #4]
 361:Core/Src/freertos.c **** 
 362:Core/Src/freertos.c ****     // Calculate time delta
 363:Core/Src/freertos.c ****     uint32_t now = HAL_GetTick();
 592              		.loc 1 363 5 is_stmt 1 view .LVU111
 593              		.loc 1 363 20 is_stmt 0 view .LVU112
 594 0098 FFF7FEFF 		bl	HAL_GetTick
 595              	.LVL63:
 364:Core/Src/freertos.c ****     float dt = (now - motion_state.last_update) / 1000.0f;
 596              		.loc 1 364 5 is_stmt 1 view .LVU113
 597              		.loc 1 364 35 is_stmt 0 view .LVU114
 598 009c 6B69     		ldr	r3, [r5, #20]
 599              		.loc 1 364 21 view .LVU115
 600 009e C31A     		subs	r3, r0, r3
 601 00a0 00EE103A 		vmov	s0, r3	@ int
 602              		.loc 1 364 49 view .LVU116
 603 00a4 B8EE400A 		vcvt.f32.u32	s0, s0
 604              	.LVL64:
 365:Core/Src/freertos.c ****     motion_state.last_update = now;
 605              		.loc 1 365 5 is_stmt 1 view .LVU117
 606              		.loc 1 365 30 is_stmt 0 view .LVU118
 607 00a8 6861     		str	r0, [r5, #20]
 366:Core/Src/freertos.c **** 
 367:Core/Src/freertos.c ****     // Update motion control
 368:Core/Src/freertos.c ****     UpdateMotionControl(&motion_state, dt);
 608              		.loc 1 368 5 is_stmt 1 view .LVU119
 609 00aa DFED337A 		vldr.32	s15, .L32+32
 610 00ae 80EE270A 		vdiv.f32	s0, s0, s15
 611              	.LVL65:
 612              		.loc 1 368 5 is_stmt 0 view .LVU120
 613 00b2 2846     		mov	r0, r5
 614              	.LVL66:
 615              		.loc 1 368 5 view .LVU121
 616 00b4 FFF7FEFF 		bl	UpdateMotionControl
 617              	.LVL67:
 369:Core/Src/freertos.c **** 
 370:Core/Src/freertos.c ****     // Convert to motor control (differential steering)
 371:Core/Src/freertos.c ****     float speed_percent = (motion_state.current_speed / MAX_LINEAR_SPEED) * 100.0f;
 618              		.loc 1 371 5 is_stmt 1 view .LVU122
 619              		.loc 1 371 55 is_stmt 0 view .LVU123
 620 00b8 95ED008A 		vldr.32	s16, [r5]
ARM GAS  C:\Users\mathi\AppData\Local\Temp\ccccnnkE.s 			page 19


 621              	.LVL68:
 622              		.loc 1 371 11 view .LVU124
 623 00bc DFED2F7A 		vldr.32	s15, .L32+36
 624 00c0 28EE278A 		vmul.f32	s16, s16, s15
 625              	.LVL69:
 372:Core/Src/freertos.c ****     bool direction = speed_percent >= 0;
 626              		.loc 1 372 5 is_stmt 1 view .LVU125
 627              		.loc 1 372 10 is_stmt 0 view .LVU126
 628 00c4 B5EEC08A 		vcmpe.f32	s16, #0
 629 00c8 F1EE10FA 		vmrs	APSR_nzcv, FPSCR
 630 00cc ACBF     		ite	ge
 631 00ce 0124     		movge	r4, #1
 632              	.LVL70:
 633              		.loc 1 372 10 view .LVU127
 634 00d0 0024     		movlt	r4, #0
 635              	.LVL71:
 373:Core/Src/freertos.c **** 
 374:Core/Src/freertos.c ****     // Set motor speeds (same for both wheels in Ackermann steering)
 375:Core/Src/freertos.c ****     SetMotorDirection(&motor_left, direction);
 636              		.loc 1 375 5 is_stmt 1 view .LVU128
 637 00d2 2B4F     		ldr	r7, .L32+40
 638 00d4 2146     		mov	r1, r4
 639 00d6 3846     		mov	r0, r7
 640 00d8 FFF7FEFF 		bl	SetMotorDirection
 641              	.LVL72:
 376:Core/Src/freertos.c ****     SetMotorDirection(&motor_right, direction);
 642              		.loc 1 376 5 view .LVU129
 643 00dc 294E     		ldr	r6, .L32+44
 644 00de 2146     		mov	r1, r4
 645 00e0 3046     		mov	r0, r6
 646 00e2 FFF7FEFF 		bl	SetMotorDirection
 647              	.LVL73:
 377:Core/Src/freertos.c ****     SetMotorSpeed(&motor_left, fabsf(speed_percent));
 648              		.loc 1 377 5 view .LVU130
 649              		.loc 1 377 32 is_stmt 0 view .LVU131
 650 00e6 B0EEC88A 		vabs.f32	s16, s16
 651              	.LVL74:
 652              		.loc 1 377 5 view .LVU132
 653 00ea BCEEC88A 		vcvt.u32.f32	s16, s16
 654 00ee 18EE103A 		vmov	r3, s16	@ int
 655 00f2 9CB2     		uxth	r4, r3
 656              	.LVL75:
 657              		.loc 1 377 5 view .LVU133
 658 00f4 2146     		mov	r1, r4
 659 00f6 3846     		mov	r0, r7
 660 00f8 FFF7FEFF 		bl	SetMotorSpeed
 661              	.LVL76:
 378:Core/Src/freertos.c ****     SetMotorSpeed(&motor_right, fabsf(speed_percent));
 662              		.loc 1 378 5 is_stmt 1 view .LVU134
 663 00fc 2146     		mov	r1, r4
 664 00fe 3046     		mov	r0, r6
 665 0100 FFF7FEFF 		bl	SetMotorSpeed
 666              	.LVL77:
 379:Core/Src/freertos.c ****     // Set steering angle
 380:Core/Src/freertos.c ****     SetSteeringAngle(&steering_servo, motion_state.current_steering);
 667              		.loc 1 380 5 view .LVU135
 668 0104 95ED030A 		vldr.32	s0, [r5, #12]
ARM GAS  C:\Users\mathi\AppData\Local\Temp\ccccnnkE.s 			page 20


 669 0108 1F48     		ldr	r0, .L32+48
 670 010a FFF7FEFF 		bl	SetSteeringAngle
 671              	.LVL78:
 381:Core/Src/freertos.c **** 
 382:Core/Src/freertos.c **** }
 672              		.loc 1 382 1 is_stmt 0 view .LVU136
 673 010e BDEC028B 		vldm	sp!, {d8}
 674              		.cfi_remember_state
 675              		.cfi_restore 80
 676              		.cfi_restore 81
 677              		.cfi_def_cfa_offset 24
 678 0112 F8BD     		pop	{r3, r4, r5, r6, r7, pc}
 679              	.LVL79:
 680              	.L31:
 681              		.cfi_restore_state
 331:Core/Src/freertos.c ****     motors_initialized = true;
 682              		.loc 1 331 5 is_stmt 1 view .LVU137
 683 0114 1B48     		ldr	r0, .L32+44
 684              	.LVL80:
 331:Core/Src/freertos.c ****     motors_initialized = true;
 685              		.loc 1 331 5 is_stmt 0 view .LVU138
 686 0116 FFF7FEFF 		bl	EnableMotorOutputs
 687              	.LVL81:
 332:Core/Src/freertos.c ****   }
 688              		.loc 1 332 5 is_stmt 1 view .LVU139
 332:Core/Src/freertos.c ****   }
 689              		.loc 1 332 24 is_stmt 0 view .LVU140
 690 011a 0F4B     		ldr	r3, .L32
 691 011c 0122     		movs	r2, #1
 692 011e 1A70     		strb	r2, [r3]
 693 0120 77E7     		b	.L14
 694              	.LVL82:
 695              	.L28:
 696              	.LBB3:
 345:Core/Src/freertos.c ****       float angle_rad = atan2f(WHEELBASE * angular_z , fabsf(linear_x)) * direction_sign;
 697              		.loc 1 345 53 discriminator 2 view .LVU141
 698 0122 FFEE008A 		vmov.f32	s17, #-1.0e+0
 699 0126 9AE7     		b	.L17
 700              	.L27:
 701              	.LBE3:
 348:Core/Src/freertos.c ****         // Handle stationary steering
 702              		.loc 1 348 12 is_stmt 1 view .LVU142
 348:Core/Src/freertos.c ****         // Handle stationary steering
 703              		.loc 1 348 15 is_stmt 0 view .LVU143
 704 0128 F0EEC77A 		vabs.f32	s15, s14
 348:Core/Src/freertos.c ****         // Handle stationary steering
 705              		.loc 1 348 14 view .LVU144
 706 012c DFED176A 		vldr.32	s13, .L32+52
 707 0130 F4EEE67A 		vcmpe.f32	s15, s13
 708 0134 F1EE10FA 		vmrs	APSR_nzcv, FPSCR
 709 0138 0ADD     		ble	.L29
 350:Core/Src/freertos.c ****     }
 710              		.loc 1 350 9 is_stmt 1 view .LVU145
 350:Core/Src/freertos.c ****     }
 711              		.loc 1 350 24 is_stmt 0 view .LVU146
 712 013a F3EE0E7A 		vmov.f32	s15, #3.0e+1
 713 013e 0028     		cmp	r0, #0
ARM GAS  C:\Users\mathi\AppData\Local\Temp\ccccnnkE.s 			page 21


 714 0140 01DA     		bge	.L21
 715 0142 FBEE0E7A 		vmov.f32	s15, #-3.0e+1
 716              	.L21:
 350:Core/Src/freertos.c ****     }
 717              		.loc 1 350 22 discriminator 1 view .LVU147
 718 0146 9FED087A 		vldr.32	s14, .L32+16
 719 014a 37EE870A 		vadd.f32	s0, s15, s14
 720              	.LVL83:
 350:Core/Src/freertos.c ****     }
 721              		.loc 1 350 22 discriminator 1 view .LVU148
 722 014e 96E7     		b	.L19
 723              	.LVL84:
 724              	.L29:
 341:Core/Src/freertos.c **** 
 725              		.loc 1 341 11 view .LVU149
 726 0150 9FED050A 		vldr.32	s0, .L32+16
 727 0154 93E7     		b	.L19
 728              	.L33:
 729 0156 00BF     		.align	2
 730              	.L32:
 731 0158 00000000 		.word	motors_initialized
 732 015c CDCCCC3D 		.word	1036831949
 733 0160 CDCCCC3E 		.word	1053609165
 734 0164 E12E6542 		.word	1113927393
 735 0168 0000B442 		.word	1119092736
 736 016c 0000F042 		.word	1123024896
 737 0170 00007042 		.word	1114636288
 738 0174 00000000 		.word	motion_state
 739 0178 00007A44 		.word	1148846080
 740 017c 0000C842 		.word	1120403456
 741 0180 00000000 		.word	motor_left
 742 0184 00000000 		.word	motor_right
 743 0188 00000000 		.word	steering_servo
 744 018c 0AD7233C 		.word	1008981770
 745              		.cfi_endproc
 746              	.LFE304:
 748              		.section	.text.timer_250ms_callback,"ax",%progbits
 749              		.align	1
 750              		.global	timer_250ms_callback
 751              		.syntax unified
 752              		.thumb
 753              		.thumb_func
 755              	timer_250ms_callback:
 756              	.LVL85:
 757              	.LFB305:
 383:Core/Src/freertos.c **** 
 384:Core/Src/freertos.c **** void timer_250ms_callback(rcl_timer_t *timer, int64_t last_call_time) {
 758              		.loc 1 384 71 is_stmt 1 view -0
 759              		.cfi_startproc
 760              		@ args = 0, pretend = 0, frame = 0
 761              		@ frame_needed = 0, uses_anonymous_args = 0
 762              		.loc 1 384 71 is_stmt 0 view .LVU151
 763 0000 70B5     		push	{r4, r5, r6, lr}
 764              		.cfi_def_cfa_offset 16
 765              		.cfi_offset 4, -16
 766              		.cfi_offset 5, -12
 767              		.cfi_offset 6, -8
ARM GAS  C:\Users\mathi\AppData\Local\Temp\ccccnnkE.s 			page 22


 768              		.cfi_offset 14, -4
 385:Core/Src/freertos.c ****   (void)last_call_time;
 769              		.loc 1 385 3 is_stmt 1 view .LVU152
 386:Core/Src/freertos.c **** 
 387:Core/Src/freertos.c ****   hcsr04_measure(&ultra_1);
 770              		.loc 1 387 3 view .LVU153
 771 0002 2448     		ldr	r0, .L36
 772              	.LVL86:
 773              		.loc 1 387 3 is_stmt 0 view .LVU154
 774 0004 FFF7FEFF 		bl	hcsr04_measure
 775              	.LVL87:
 388:Core/Src/freertos.c ****   ultra_ranges_msg.front_left.range = fake_left++;
 776              		.loc 1 388 3 is_stmt 1 view .LVU155
 777              		.loc 1 388 48 is_stmt 0 view .LVU156
 778 0008 234E     		ldr	r6, .L36+4
 779 000a 3368     		ldr	r3, [r6]
 780 000c 5A1C     		adds	r2, r3, #1
 781 000e 3260     		str	r2, [r6]
 782              		.loc 1 388 37 view .LVU157
 783 0010 224C     		ldr	r4, .L36+8
 784 0012 07EE903A 		vmov	s15, r3	@ int
 785 0016 F8EEE77A 		vcvt.f32.s32	s15, s15
 786 001a C4ED097A 		vstr.32	s15, [r4, #36]
 389:Core/Src/freertos.c ****   stamp_header(&ultra_ranges_msg.front_left.header.stamp);
 787              		.loc 1 389 3 is_stmt 1 view .LVU158
 788 001e 2046     		mov	r0, r4
 789 0020 FFF7FEFF 		bl	stamp_header
 790              	.LVL88:
 390:Core/Src/freertos.c ****   hcsr04_measure(&ultra_2);
 791              		.loc 1 390 3 view .LVU159
 792 0024 1E48     		ldr	r0, .L36+12
 793 0026 FFF7FEFF 		bl	hcsr04_measure
 794              	.LVL89:
 391:Core/Src/freertos.c ****   ultra_ranges_msg.front_right.range = fake_right++;
 795              		.loc 1 391 3 view .LVU160
 796              		.loc 1 391 50 is_stmt 0 view .LVU161
 797 002a 1E4D     		ldr	r5, .L36+16
 798 002c 2B68     		ldr	r3, [r5]
 799 002e 5A1C     		adds	r2, r3, #1
 800 0030 2A60     		str	r2, [r5]
 801              		.loc 1 391 38 view .LVU162
 802 0032 07EE903A 		vmov	s15, r3	@ int
 803 0036 F8EEE77A 		vcvt.f32.s32	s15, s15
 804 003a C4ED147A 		vstr.32	s15, [r4, #80]
 392:Core/Src/freertos.c ****   stamp_header(&ultra_ranges_msg.front_right.header.stamp);
 805              		.loc 1 392 3 is_stmt 1 view .LVU163
 806 003e 04F12C00 		add	r0, r4, #44
 807 0042 FFF7FEFF 		bl	stamp_header
 808              	.LVL90:
 393:Core/Src/freertos.c ****   hcsr04_measure(&ultra_3);
 809              		.loc 1 393 3 view .LVU164
 810 0046 1848     		ldr	r0, .L36+20
 811 0048 FFF7FEFF 		bl	hcsr04_measure
 812              	.LVL91:
 394:Core/Src/freertos.c ****   ultra_ranges_msg.rear_left.range = fake_left++;
 813              		.loc 1 394 3 view .LVU165
 814              		.loc 1 394 47 is_stmt 0 view .LVU166
ARM GAS  C:\Users\mathi\AppData\Local\Temp\ccccnnkE.s 			page 23


 815 004c 3368     		ldr	r3, [r6]
 816 004e 5A1C     		adds	r2, r3, #1
 817 0050 3260     		str	r2, [r6]
 818              		.loc 1 394 36 view .LVU167
 819 0052 07EE903A 		vmov	s15, r3	@ int
 820 0056 F8EEE77A 		vcvt.f32.s32	s15, s15
 821 005a C4ED357A 		vstr.32	s15, [r4, #212]
 395:Core/Src/freertos.c ****   stamp_header(&ultra_ranges_msg.rear_left.header.stamp);
 822              		.loc 1 395 3 is_stmt 1 view .LVU168
 823 005e 04F1B000 		add	r0, r4, #176
 824 0062 FFF7FEFF 		bl	stamp_header
 825              	.LVL92:
 396:Core/Src/freertos.c ****   hcsr04_measure(&ultra_4);
 826              		.loc 1 396 3 view .LVU169
 827 0066 1148     		ldr	r0, .L36+24
 828 0068 FFF7FEFF 		bl	hcsr04_measure
 829              	.LVL93:
 397:Core/Src/freertos.c ****   ultra_ranges_msg.rear_right.range = fake_right++;
 830              		.loc 1 397 3 view .LVU170
 831              		.loc 1 397 49 is_stmt 0 view .LVU171
 832 006c 2B68     		ldr	r3, [r5]
 833 006e 5A1C     		adds	r2, r3, #1
 834 0070 2A60     		str	r2, [r5]
 835              		.loc 1 397 37 view .LVU172
 836 0072 07EE903A 		vmov	s15, r3	@ int
 837 0076 F8EEE77A 		vcvt.f32.s32	s15, s15
 838 007a C4ED407A 		vstr.32	s15, [r4, #256]
 398:Core/Src/freertos.c ****   stamp_header(&ultra_ranges_msg.rear_right.header.stamp);
 839              		.loc 1 398 3 is_stmt 1 view .LVU173
 840 007e 04F1DC00 		add	r0, r4, #220
 841 0082 FFF7FEFF 		bl	stamp_header
 842              	.LVL94:
 399:Core/Src/freertos.c **** 
 400:Core/Src/freertos.c ****   rcl_publish(&ultra_ranges_pub, &ultra_ranges_msg, NULL);
 843              		.loc 1 400 3 view .LVU174
 844 0086 0022     		movs	r2, #0
 845 0088 2146     		mov	r1, r4
 846 008a 0948     		ldr	r0, .L36+28
 847 008c FFF7FEFF 		bl	rcl_publish
 848              	.LVL95:
 401:Core/Src/freertos.c **** 
 402:Core/Src/freertos.c **** 
 403:Core/Src/freertos.c **** }
 849              		.loc 1 403 1 is_stmt 0 view .LVU175
 850 0090 70BD     		pop	{r4, r5, r6, pc}
 851              	.L37:
 852 0092 00BF     		.align	2
 853              	.L36:
 854 0094 00000000 		.word	ultra_1
 855 0098 00000000 		.word	fake_left
 856 009c 00000000 		.word	ultra_ranges_msg
 857 00a0 00000000 		.word	ultra_2
 858 00a4 00000000 		.word	fake_right
 859 00a8 00000000 		.word	ultra_3
 860 00ac 00000000 		.word	ultra_4
 861 00b0 00000000 		.word	ultra_ranges_pub
 862              		.cfi_endproc
ARM GAS  C:\Users\mathi\AppData\Local\Temp\ccccnnkE.s 			page 24


 863              	.LFE305:
 865              		.section	.text.MX_FREERTOS_Init,"ax",%progbits
 866              		.align	1
 867              		.global	MX_FREERTOS_Init
 868              		.syntax unified
 869              		.thumb
 870              		.thumb_func
 872              	MX_FREERTOS_Init:
 873              	.LFB301:
 156:Core/Src/freertos.c ****   /* USER CODE BEGIN Init */
 874              		.loc 1 156 29 is_stmt 1 view -0
 875              		.cfi_startproc
 876              		@ args = 0, pretend = 0, frame = 0
 877              		@ frame_needed = 0, uses_anonymous_args = 0
 878 0000 08B5     		push	{r3, lr}
 879              		.cfi_def_cfa_offset 8
 880              		.cfi_offset 3, -8
 881              		.cfi_offset 14, -4
 179:Core/Src/freertos.c **** 
 882              		.loc 1 179 3 view .LVU177
 179:Core/Src/freertos.c **** 
 883              		.loc 1 179 23 is_stmt 0 view .LVU178
 884 0002 044A     		ldr	r2, .L40
 885 0004 0021     		movs	r1, #0
 886 0006 0448     		ldr	r0, .L40+4
 887 0008 FFF7FEFF 		bl	osThreadNew
 888              	.LVL96:
 179:Core/Src/freertos.c **** 
 889              		.loc 1 179 21 discriminator 1 view .LVU179
 890 000c 034B     		ldr	r3, .L40+8
 891 000e 1860     		str	r0, [r3]
 189:Core/Src/freertos.c **** 
 892              		.loc 1 189 1 view .LVU180
 893 0010 08BD     		pop	{r3, pc}
 894              	.L41:
 895 0012 00BF     		.align	2
 896              	.L40:
 897 0014 00000000 		.word	defaultTask_attributes
 898 0018 00000000 		.word	StartDefaultTask
 899 001c 00000000 		.word	defaultTaskHandle
 900              		.cfi_endproc
 901              	.LFE301:
 903              		.section	.data.fake_right,"aw"
 904              		.align	2
 907              	fake_right:
 908 0000 E8030000 		.word	1000
 909              		.section	.bss.fake_left,"aw",%nobits
 910              		.align	2
 913              	fake_left:
 914 0000 00000000 		.space	4
 915              		.section	.bss.motors_initialized,"aw",%nobits
 918              	motors_initialized:
 919 0000 00       		.space	1
 920              		.global	defaultTask_attributes
 921              		.section	.rodata.str1.4,"aMS",%progbits,1
 922              		.align	2
 923              	.LC14:
ARM GAS  C:\Users\mathi\AppData\Local\Temp\ccccnnkE.s 			page 25


 924 0000 64656661 		.ascii	"defaultTask\000"
 924      756C7454 
 924      61736B00 
 925              		.section	.rodata.defaultTask_attributes,"a"
 926              		.align	2
 929              	defaultTask_attributes:
 930 0000 00000000 		.word	.LC14
 931 0004 00000000 		.space	4
 932 0008 00000000 		.word	defaultTaskControlBlock
 933 000c 5C000000 		.word	92
 934 0010 00000000 		.word	defaultTaskBuffer
 935 0014 E02E0000 		.word	12000
 936 0018 18000000 		.word	24
 937 001c 00000000 		.space	8
 937      00000000 
 938              		.global	defaultTaskControlBlock
 939              		.section	.bss.defaultTaskControlBlock,"aw",%nobits
 940              		.align	2
 943              	defaultTaskControlBlock:
 944 0000 00000000 		.space	92
 944      00000000 
 944      00000000 
 944      00000000 
 944      00000000 
 945              		.global	defaultTaskBuffer
 946              		.section	.bss.defaultTaskBuffer,"aw",%nobits
 947              		.align	2
 950              	defaultTaskBuffer:
 951 0000 00000000 		.space	12000
 951      00000000 
 951      00000000 
 951      00000000 
 951      00000000 
 952              		.global	defaultTaskHandle
 953              		.section	.bss.defaultTaskHandle,"aw",%nobits
 954              		.align	2
 957              	defaultTaskHandle:
 958 0000 00000000 		.space	4
 959              		.global	cmd_vel_msg
 960              		.section	.bss.cmd_vel_msg,"aw",%nobits
 961              		.align	3
 964              	cmd_vel_msg:
 965 0000 00000000 		.space	48
 965      00000000 
 965      00000000 
 965      00000000 
 965      00000000 
 966              		.global	cmd_vel_sub
 967              		.section	.bss.cmd_vel_sub,"aw",%nobits
 968              		.align	2
 971              	cmd_vel_sub:
 972 0000 00000000 		.space	4
 973              		.global	ultra_ranges_msg
 974              		.section	.bss.ultra_ranges_msg,"aw",%nobits
 975              		.align	2
 978              	ultra_ranges_msg:
 979 0000 00000000 		.space	264
ARM GAS  C:\Users\mathi\AppData\Local\Temp\ccccnnkE.s 			page 26


 979      00000000 
 979      00000000 
 979      00000000 
 979      00000000 
 980              		.global	encoders_msg
 981              		.section	.bss.encoders_msg,"aw",%nobits
 982              		.align	2
 985              	encoders_msg:
 986 0000 00000000 		.space	36
 986      00000000 
 986      00000000 
 986      00000000 
 986      00000000 
 987              		.global	ultra_ranges_pub
 988              		.section	.bss.ultra_ranges_pub,"aw",%nobits
 989              		.align	2
 992              	ultra_ranges_pub:
 993 0000 00000000 		.space	4
 994              		.global	encoders_pub
 995              		.section	.bss.encoders_pub,"aw",%nobits
 996              		.align	2
 999              	encoders_pub:
 1000 0000 00000000 		.space	4
 1001              		.text
 1002              	.Letext0:
 1003              		.file 2 "C:/Users/mathi/AppData/Roaming/Code/User/globalStorage/bmd.stm32-for-vscode/@xpack-dev-to
 1004              		.file 3 "C:/Users/mathi/AppData/Roaming/Code/User/globalStorage/bmd.stm32-for-vscode/@xpack-dev-to
 1005              		.file 4 "C:/Users/mathi/AppData/Roaming/Code/User/globalStorage/bmd.stm32-for-vscode/@xpack-dev-to
 1006              		.file 5 "Middlewares/Third_Party/FreeRTOS/Source/portable/GCC/ARM_CM4F/portmacro.h"
 1007              		.file 6 "Middlewares/Third_Party/FreeRTOS/Source/include/FreeRTOS.h"
 1008              		.file 7 "Drivers/CMSIS/Device/ST/STM32L4xx/Include/stm32l452xx.h"
 1009              		.file 8 "Drivers/STM32L4xx_HAL_Driver/Inc/stm32l4xx_hal_def.h"
 1010              		.file 9 "Drivers/STM32L4xx_HAL_Driver/Inc/stm32l4xx_hal_dma.h"
 1011              		.file 10 "Drivers/STM32L4xx_HAL_Driver/Inc/stm32l4xx_hal_tim.h"
 1012              		.file 11 "Drivers/STM32L4xx_HAL_Driver/Inc/stm32l4xx_hal_uart.h"
 1013              		.file 12 "Core/Inc/encoder.h"
 1014              		.file 13 "Core/Inc/motor_control.h"
 1015              		.file 14 "Core/Inc/servo_control.h"
 1016              		.file 15 "micro_ros_stm32cubemx_utils/microros_static_library/libmicroros/microros_include/builtin
 1017              		.file 16 "micro_ros_stm32cubemx_utils/microros_static_library/libmicroros/microros_include/rosidl_
 1018              		.file 17 "micro_ros_stm32cubemx_utils/microros_static_library/libmicroros/microros_include/std_msg
 1019              		.file 18 "micro_ros_stm32cubemx_utils/microros_static_library/libmicroros/microros_include/sensor_
 1020              		.file 19 "micro_ros_stm32cubemx_utils/microros_static_library/libmicroros/microros_include/rosidl_
 1021              		.file 20 "micro_ros_stm32cubemx_utils/microros_static_library/libmicroros/microros_include/rosidl_
 1022              		.file 21 "micro_ros_stm32cubemx_utils/microros_static_library/libmicroros/microros_include/rosidl_
 1023              		.file 22 "micro_ros_stm32cubemx_utils/microros_static_library/libmicroros/microros_include/rosidl_
 1024              		.file 23 "micro_ros_stm32cubemx_utils/microros_static_library/libmicroros/microros_include/rosidl_
 1025              		.file 24 "micro_ros_stm32cubemx_utils/microros_static_library/libmicroros/microros_include/rcutils
 1026              		.file 25 "micro_ros_stm32cubemx_utils/microros_static_library/libmicroros/microros_include/rosidl_
 1027              		.file 26 "micro_ros_stm32cubemx_utils/microros_static_library/libmicroros/microros_include/rosidl_
 1028              		.file 27 "Core/Inc/hcsr04.h"
 1029              		.file 28 "Core/Inc/main.h"
 1030              		.file 29 "Middlewares/Third_Party/FreeRTOS/Source/CMSIS_RTOS_V2/cmsis_os2.h"
 1031              		.file 30 "micro_ros_stm32cubemx_utils/microros_static_library/libmicroros/microros_include/rcl/all
 1032              		.file 31 "micro_ros_stm32cubemx_utils/microros_static_library/libmicroros/microros_include/rmw/ret
 1033              		.file 32 "micro_ros_stm32cubemx_utils/microros_static_library/libmicroros/microros_include/rcutils
 1034              		.file 33 "micro_ros_stm32cubemx_utils/microros_static_library/libmicroros/microros_include/rmw/tim
ARM GAS  C:\Users\mathi\AppData\Local\Temp\ccccnnkE.s 			page 27


 1035              		.file 34 "micro_ros_stm32cubemx_utils/microros_static_library/libmicroros/microros_include/rmw/typ
 1036              		.file 35 "micro_ros_stm32cubemx_utils/microros_static_library/libmicroros/microros_include/rcl/typ
 1037              		.file 36 "micro_ros_stm32cubemx_utils/microros_static_library/libmicroros/microros_include/rcl/ini
 1038              		.file 37 "micro_ros_stm32cubemx_utils/microros_static_library/libmicroros/microros_include/rcl/con
 1039              		.file 38 "micro_ros_stm32cubemx_utils/microros_static_library/libmicroros/microros_include/rcl/tim
 1040              		.file 39 "micro_ros_stm32cubemx_utils/microros_static_library/libmicroros/microros_include/rclc/ty
 1041              		.file 40 "micro_ros_stm32cubemx_utils/microros_static_library/libmicroros/microros_include/rcl/gua
 1042              		.file 41 "micro_ros_stm32cubemx_utils/microros_static_library/libmicroros/microros_include/rcl/nod
 1043              		.file 42 "micro_ros_stm32cubemx_utils/microros_static_library/libmicroros/microros_include/rcl/ser
 1044              		.file 43 "micro_ros_stm32cubemx_utils/microros_static_library/libmicroros/microros_include/rcl/pub
 1045              		.file 44 "micro_ros_stm32cubemx_utils/microros_static_library/libmicroros/microros_include/rcl/sub
 1046              		.file 45 "micro_ros_stm32cubemx_utils/microros_static_library/libmicroros/microros_include/rmw/qos
 1047              		.file 46 "micro_ros_stm32cubemx_utils/microros_static_library/libmicroros/microros_include/rcl/tim
 1048              		.file 47 "micro_ros_stm32cubemx_utils/microros_static_library/libmicroros/microros_include/rcl/cli
 1049              		.file 48 "micro_ros_stm32cubemx_utils/microros_static_library/libmicroros/microros_include/unique_
 1050              		.file 49 "micro_ros_stm32cubemx_utils/microros_static_library/libmicroros/microros_include/action_
 1051              		.file 50 "micro_ros_stm32cubemx_utils/microros_static_library/libmicroros/microros_include/action_
 1052              		.file 51 "micro_ros_stm32cubemx_utils/microros_static_library/libmicroros/microros_include/rcl_act
 1053              		.file 52 "micro_ros_stm32cubemx_utils/microros_static_library/libmicroros/microros_include/rcl_act
 1054              		.file 53 "micro_ros_stm32cubemx_utils/microros_static_library/libmicroros/microros_include/rcl_act
 1055              		.file 54 "micro_ros_stm32cubemx_utils/microros_static_library/libmicroros/microros_include/rcl_act
 1056              		.file 55 "micro_ros_stm32cubemx_utils/microros_static_library/libmicroros/microros_include/rcl/eve
 1057              		.file 56 "micro_ros_stm32cubemx_utils/microros_static_library/libmicroros/microros_include/rcl/wai
 1058              		.file 57 "micro_ros_stm32cubemx_utils/microros_static_library/libmicroros/microros_include/rclc/ac
 1059              		.file 58 "micro_ros_stm32cubemx_utils/microros_static_library/libmicroros/microros_include/rclc/ac
 1060              		.file 59 "micro_ros_stm32cubemx_utils/microros_static_library/libmicroros/microros_include/rclc/ac
 1061              		.file 60 "micro_ros_stm32cubemx_utils/microros_static_library/libmicroros/microros_include/rclc/ex
 1062              		.file 61 "micro_ros_stm32cubemx_utils/microros_static_library/libmicroros/microros_include/rclc/ex
 1063              		.file 62 "micro_ros_stm32cubemx_utils/microros_static_library/libmicroros/microros_include/uxr/cli
 1064              		.file 63 "micro_ros_stm32cubemx_utils/microros_static_library/libmicroros/microros_include/uxr/cli
 1065              		.file 64 "micro_ros_stm32cubemx_utils/microros_static_library/libmicroros/microros_include/uxr/cli
 1066              		.file 65 "Core/Inc/usart.h"
 1067              		.file 66 "micro_ros_stm32cubemx_utils/microros_static_library/libmicroros/microros_include/geometr
 1068              		.file 67 "micro_ros_stm32cubemx_utils/microros_static_library/libmicroros/microros_include/geometr
 1069              		.file 68 "micro_ros_stm32cubemx_utils/microros_static_library/libmicroros/microros_include/mobi_in
 1070              		.file 69 "micro_ros_stm32cubemx_utils/microros_static_library/libmicroros/microros_include/mobi_in
 1071              		.file 70 "micro_ros_stm32cubemx_utils/microros_static_library/libmicroros/microros_include/mobi_in
 1072              		.file 71 "Core/Inc/motion_control.h"
 1073              		.file 72 "C:/Users/mathi/AppData/Roaming/Code/User/globalStorage/bmd.stm32-for-vscode/@xpack-dev-t
 1074              		.file 73 "Core/Inc/utils.h"
 1075              		.file 74 "Drivers/STM32L4xx_HAL_Driver/Inc/stm32l4xx_hal.h"
 1076              		.file 75 "micro_ros_stm32cubemx_utils/microros_static_library/libmicroros/microros_include/rclc/ti
 1077              		.file 76 "micro_ros_stm32cubemx_utils/microros_static_library/libmicroros/microros_include/rclc/su
 1078              		.file 77 "micro_ros_stm32cubemx_utils/microros_static_library/libmicroros/microros_include/geometr
 1079              		.file 78 "micro_ros_stm32cubemx_utils/microros_static_library/libmicroros/microros_include/mobi_in
 1080              		.file 79 "micro_ros_stm32cubemx_utils/microros_static_library/libmicroros/microros_include/rclc/pu
 1081              		.file 80 "micro_ros_stm32cubemx_utils/microros_static_library/libmicroros/microros_include/mobi_in
 1082              		.file 81 "micro_ros_stm32cubemx_utils/microros_static_library/libmicroros/microros_include/rmw_mic
 1083              		.file 82 "micro_ros_stm32cubemx_utils/microros_static_library/libmicroros/microros_include/rclc/no
 1084              		.file 83 "micro_ros_stm32cubemx_utils/microros_static_library/libmicroros/microros_include/rclc/in
 1085              		.file 84 "micro_ros_stm32cubemx_utils/microros_static_library/libmicroros/microros_include/micro_r
 1086              		.file 85 "micro_ros_stm32cubemx_utils/microros_static_library/libmicroros/microros_include/rmw_mic
 1087              		.file 86 "C:/Users/mathi/AppData/Roaming/Code/User/globalStorage/bmd.stm32-for-vscode/@xpack-dev-t
 1088              		.file 87 "micro_ros_stm32cubemx_utils/microros_static_library/libmicroros/microros_include/rmw_mic
 1089              		.file 88 "micro_ros_stm32cubemx_utils/microros_static_library/libmicroros/microros_include/test_ms
 1090              		.file 89 "<built-in>"
ARM GAS  C:\Users\mathi\AppData\Local\Temp\ccccnnkE.s 			page 28

