ARM GAS  C:\Users\mathi\AppData\Local\Temp\cc2717Gk.s 			page 1


   1              		.cpu cortex-m4
   2              		.arch armv7e-m
   3              		.fpu fpv4-sp-d16
   4              		.eabi_attribute 27, 1
   5              		.eabi_attribute 28, 1
   6              		.eabi_attribute 20, 1
   7              		.eabi_attribute 21, 1
   8              		.eabi_attribute 23, 3
   9              		.eabi_attribute 24, 1
  10              		.eabi_attribute 25, 1
  11              		.eabi_attribute 26, 1
  12              		.eabi_attribute 30, 1
  13              		.eabi_attribute 34, 1
  14              		.eabi_attribute 18, 4
  15              		.file	"hcsr04.c"
  16              		.text
  17              	.Ltext0:
  18              		.cfi_sections	.debug_frame
  19              		.file 1 "Core/Src/hcsr04.c"
  20              		.section	.text.hcsr04_init,"ax",%progbits
  21              		.align	1
  22              		.global	hcsr04_init
  23              		.syntax unified
  24              		.thumb
  25              		.thumb_func
  27              	hcsr04_init:
  28              	.LVL0:
  29              	.LFB296:
   1:Core/Src/hcsr04.c **** /*
   2:Core/Src/hcsr04.c ****  * ------------------------------------------------------------------------------------------------
   3:Core/Src/hcsr04.c ****  * File: hcsr04.c
   4:Core/Src/hcsr04.c ****  * Created Date: Thursday, March 14th 2024, 8:11:00 am
   5:Core/Src/hcsr04.c ****  * Author: Florian Hye
   6:Core/Src/hcsr04.c ****  * Description: Implement the functions for the HCSR04.
   7:Core/Src/hcsr04.c ****  * ------------------------------------------------------------------------------------------------
   8:Core/Src/hcsr04.c ****  */
   9:Core/Src/hcsr04.c **** 
  10:Core/Src/hcsr04.c **** #include "hcsr04.h"
  11:Core/Src/hcsr04.c **** #include "cmsis_os.h"
  12:Core/Src/hcsr04.c **** #include "tim.h"
  13:Core/Src/hcsr04.c **** 
  14:Core/Src/hcsr04.c **** void hcsr04_init(hcsr04_t *hcsr04, TIM_HandleTypeDef *htim, uint16_t tim_channel, HAL_TIM_ActiveCha
  15:Core/Src/hcsr04.c ****                  uint32_t interrupt_channel, GPIO_TypeDef *gpio_trig_port, uint16_t gpio_trig_pin) 
  30              		.loc 1 15 100 view -0
  31              		.cfi_startproc
  32              		@ args = 12, pretend = 0, frame = 0
  33              		@ frame_needed = 0, uses_anonymous_args = 0
  34              		.loc 1 15 100 is_stmt 0 view .LVU1
  35 0000 08B5     		push	{r3, lr}
  36              		.cfi_def_cfa_offset 8
  37              		.cfi_offset 3, -8
  38              		.cfi_offset 14, -4
  39 0002 8446     		mov	ip, r0
  40 0004 0846     		mov	r0, r1
  41              	.LVL1:
  42              		.loc 1 15 100 view .LVU2
  43 0006 1146     		mov	r1, r2
ARM GAS  C:\Users\mathi\AppData\Local\Temp\cc2717Gk.s 			page 2


  44              	.LVL2:
  16:Core/Src/hcsr04.c ****   hcsr04->htim = htim;
  45              		.loc 1 16 3 is_stmt 1 view .LVU3
  46              		.loc 1 16 16 is_stmt 0 view .LVU4
  47 0008 CCF80000 		str	r0, [ip]
  17:Core/Src/hcsr04.c ****   hcsr04->tim_channel = tim_channel;
  48              		.loc 1 17 3 is_stmt 1 view .LVU5
  49              		.loc 1 17 23 is_stmt 0 view .LVU6
  50 000c ACF80420 		strh	r2, [ip, #4]	@ movhi
  18:Core/Src/hcsr04.c ****   hcsr04->active_channel = active_channel;
  51              		.loc 1 18 3 is_stmt 1 view .LVU7
  52              		.loc 1 18 26 is_stmt 0 view .LVU8
  53 0010 8CF80630 		strb	r3, [ip, #6]
  19:Core/Src/hcsr04.c ****   hcsr04->interrupt_channel = interrupt_channel;
  54              		.loc 1 19 3 is_stmt 1 view .LVU9
  55              		.loc 1 19 29 is_stmt 0 view .LVU10
  56 0014 029B     		ldr	r3, [sp, #8]
  57              	.LVL3:
  58              		.loc 1 19 29 view .LVU11
  59 0016 CCF80830 		str	r3, [ip, #8]
  20:Core/Src/hcsr04.c ****   hcsr04->gpio_trig_port = gpio_trig_port;
  60              		.loc 1 20 3 is_stmt 1 view .LVU12
  61              		.loc 1 20 26 is_stmt 0 view .LVU13
  62 001a 039B     		ldr	r3, [sp, #12]
  63 001c CCF80C30 		str	r3, [ip, #12]
  21:Core/Src/hcsr04.c ****   hcsr04->gpio_trig_pin = gpio_trig_pin;
  64              		.loc 1 21 3 is_stmt 1 view .LVU14
  65              		.loc 1 21 25 is_stmt 0 view .LVU15
  66 0020 BDF81030 		ldrh	r3, [sp, #16]
  67 0024 ACF81030 		strh	r3, [ip, #16]	@ movhi
  22:Core/Src/hcsr04.c **** 
  23:Core/Src/hcsr04.c ****   hcsr04->is_first_captured = false;
  68              		.loc 1 23 3 is_stmt 1 view .LVU16
  69              		.loc 1 23 29 is_stmt 0 view .LVU17
  70 0028 0023     		movs	r3, #0
  71 002a 8CF82430 		strb	r3, [ip, #36]
  24:Core/Src/hcsr04.c ****   hcsr04->overflow_count = 0;
  72              		.loc 1 24 3 is_stmt 1 view .LVU18
  73              		.loc 1 24 26 is_stmt 0 view .LVU19
  74 002e 8CF81C30 		strb	r3, [ip, #28]
  25:Core/Src/hcsr04.c ****   hcsr04->difference = 0;
  75              		.loc 1 25 3 is_stmt 1 view .LVU20
  76              		.loc 1 25 22 is_stmt 0 view .LVU21
  77 0032 CCF82030 		str	r3, [ip, #32]
  26:Core/Src/hcsr04.c ****   hcsr04->val_1 = 0;
  78              		.loc 1 26 3 is_stmt 1 view .LVU22
  79              		.loc 1 26 17 is_stmt 0 view .LVU23
  80 0036 CCF81430 		str	r3, [ip, #20]
  27:Core/Src/hcsr04.c ****   hcsr04->val_2 = 0;
  81              		.loc 1 27 3 is_stmt 1 view .LVU24
  82              		.loc 1 27 17 is_stmt 0 view .LVU25
  83 003a CCF81830 		str	r3, [ip, #24]
  28:Core/Src/hcsr04.c ****   hcsr04->range = 0;
  84              		.loc 1 28 3 is_stmt 1 view .LVU26
  85              		.loc 1 28 17 is_stmt 0 view .LVU27
  86 003e 0023     		movs	r3, #0
  87 0040 CCF82830 		str	r3, [ip, #40]	@ float
ARM GAS  C:\Users\mathi\AppData\Local\Temp\cc2717Gk.s 			page 3


  29:Core/Src/hcsr04.c **** 
  30:Core/Src/hcsr04.c ****   // Start capture compare
  31:Core/Src/hcsr04.c ****   HAL_TIM_IC_Start_IT(hcsr04->htim, hcsr04->tim_channel);
  88              		.loc 1 31 3 is_stmt 1 view .LVU28
  89 0044 FFF7FEFF 		bl	HAL_TIM_IC_Start_IT
  90              	.LVL4:
  32:Core/Src/hcsr04.c **** }
  91              		.loc 1 32 1 is_stmt 0 view .LVU29
  92 0048 08BD     		pop	{r3, pc}
  93              		.loc 1 32 1 view .LVU30
  94              		.cfi_endproc
  95              	.LFE296:
  97              		.section	.text.hcsr04_measure,"ax",%progbits
  98              		.align	1
  99              		.global	hcsr04_measure
 100              		.syntax unified
 101              		.thumb
 102              		.thumb_func
 104              	hcsr04_measure:
 105              	.LVL5:
 106              	.LFB297:
  33:Core/Src/hcsr04.c **** 
  34:Core/Src/hcsr04.c **** void hcsr04_measure(hcsr04_t *hcsr04) {
 107              		.loc 1 34 39 is_stmt 1 view -0
 108              		.cfi_startproc
 109              		@ args = 0, pretend = 0, frame = 0
 110              		@ frame_needed = 0, uses_anonymous_args = 0
 111              		.loc 1 34 39 is_stmt 0 view .LVU32
 112 0000 10B5     		push	{r4, lr}
 113              		.cfi_def_cfa_offset 8
 114              		.cfi_offset 4, -8
 115              		.cfi_offset 14, -4
 116 0002 0446     		mov	r4, r0
  35:Core/Src/hcsr04.c ****   // Trigger
  36:Core/Src/hcsr04.c ****   HAL_GPIO_WritePin(hcsr04->gpio_trig_port, hcsr04->gpio_trig_pin, GPIO_PIN_SET);   // pull the TRI
 117              		.loc 1 36 3 is_stmt 1 view .LVU33
 118 0004 0122     		movs	r2, #1
 119 0006 018A     		ldrh	r1, [r0, #16]
 120 0008 C068     		ldr	r0, [r0, #12]
 121              	.LVL6:
 122              		.loc 1 36 3 is_stmt 0 view .LVU34
 123 000a FFF7FEFF 		bl	HAL_GPIO_WritePin
 124              	.LVL7:
  37:Core/Src/hcsr04.c ****   osDelay(1);                                                                       // wait for 10 
 125              		.loc 1 37 3 is_stmt 1 view .LVU35
 126 000e 0120     		movs	r0, #1
 127 0010 FFF7FEFF 		bl	osDelay
 128              	.LVL8:
  38:Core/Src/hcsr04.c ****   HAL_GPIO_WritePin(hcsr04->gpio_trig_port, hcsr04->gpio_trig_pin, GPIO_PIN_RESET); // pull the TRI
 129              		.loc 1 38 3 view .LVU36
 130 0014 0022     		movs	r2, #0
 131 0016 218A     		ldrh	r1, [r4, #16]
 132 0018 E068     		ldr	r0, [r4, #12]
 133 001a FFF7FEFF 		bl	HAL_GPIO_WritePin
 134              	.LVL9:
  39:Core/Src/hcsr04.c **** 
  40:Core/Src/hcsr04.c ****   __HAL_TIM_ENABLE_IT(hcsr04->htim, hcsr04->interrupt_channel);
ARM GAS  C:\Users\mathi\AppData\Local\Temp\cc2717Gk.s 			page 4


 135              		.loc 1 40 3 view .LVU37
 136 001e 2368     		ldr	r3, [r4]
 137 0020 1A68     		ldr	r2, [r3]
 138 0022 D368     		ldr	r3, [r2, #12]
 139 0024 A168     		ldr	r1, [r4, #8]
 140 0026 0B43     		orrs	r3, r3, r1
 141 0028 D360     		str	r3, [r2, #12]
  41:Core/Src/hcsr04.c **** }
 142              		.loc 1 41 1 is_stmt 0 view .LVU38
 143 002a 10BD     		pop	{r4, pc}
 144              		.loc 1 41 1 view .LVU39
 145              		.cfi_endproc
 146              	.LFE297:
 148              		.section	.text.hcsr04_handle_capture_complete,"ax",%progbits
 149              		.align	1
 150              		.global	hcsr04_handle_capture_complete
 151              		.syntax unified
 152              		.thumb
 153              		.thumb_func
 155              	hcsr04_handle_capture_complete:
 156              	.LVL10:
 157              	.LFB298:
  42:Core/Src/hcsr04.c **** 
  43:Core/Src/hcsr04.c **** void hcsr04_handle_capture_complete(hcsr04_t *hcsr04) {
 158              		.loc 1 43 55 is_stmt 1 view -0
 159              		.cfi_startproc
 160              		@ args = 0, pretend = 0, frame = 0
 161              		@ frame_needed = 0, uses_anonymous_args = 0
 162              		.loc 1 43 55 is_stmt 0 view .LVU41
 163 0000 38B5     		push	{r3, r4, r5, lr}
 164              		.cfi_def_cfa_offset 16
 165              		.cfi_offset 3, -16
 166              		.cfi_offset 4, -12
 167              		.cfi_offset 5, -8
 168              		.cfi_offset 14, -4
 169 0002 0446     		mov	r4, r0
  44:Core/Src/hcsr04.c ****   if (!hcsr04->is_first_captured) {                                               // Rising edge ca
 170              		.loc 1 44 3 is_stmt 1 view .LVU42
 171              		.loc 1 44 14 is_stmt 0 view .LVU43
 172 0004 90F82430 		ldrb	r3, [r0, #36]	@ zero_extendqisi2
 173              		.loc 1 44 6 view .LVU44
 174 0008 002B     		cmp	r3, #0
 175 000a 4CD1     		bne	.L6
  45:Core/Src/hcsr04.c ****     hcsr04->val_1 = HAL_TIM_ReadCapturedValue(hcsr04->htim, hcsr04->tim_channel); // read the first
 176              		.loc 1 45 5 is_stmt 1 view .LVU45
 177              		.loc 1 45 21 is_stmt 0 view .LVU46
 178 000c 8188     		ldrh	r1, [r0, #4]
 179 000e 0068     		ldr	r0, [r0]
 180              	.LVL11:
 181              		.loc 1 45 21 view .LVU47
 182 0010 FFF7FEFF 		bl	HAL_TIM_ReadCapturedValue
 183              	.LVL12:
 184              		.loc 1 45 19 discriminator 1 view .LVU48
 185 0014 6061     		str	r0, [r4, #20]
  46:Core/Src/hcsr04.c ****     hcsr04->is_first_captured = true;                                             // set the first 
 186              		.loc 1 46 5 is_stmt 1 view .LVU49
 187              		.loc 1 46 31 is_stmt 0 view .LVU50
ARM GAS  C:\Users\mathi\AppData\Local\Temp\cc2717Gk.s 			page 5


 188 0016 0123     		movs	r3, #1
 189 0018 84F82430 		strb	r3, [r4, #36]
  47:Core/Src/hcsr04.c ****     hcsr04->overflow_count = 0;                                                   // reset overflow
 190              		.loc 1 47 5 is_stmt 1 view .LVU51
 191              		.loc 1 47 28 is_stmt 0 view .LVU52
 192 001c 0023     		movs	r3, #0
 193 001e 2377     		strb	r3, [r4, #28]
  48:Core/Src/hcsr04.c **** 
  49:Core/Src/hcsr04.c ****     // Now change the polarity to falling edge
  50:Core/Src/hcsr04.c ****     __HAL_TIM_SET_CAPTUREPOLARITY(hcsr04->htim, hcsr04->tim_channel, TIM_INPUTCHANNELPOLARITY_FALLI
 194              		.loc 1 50 5 is_stmt 1 view .LVU53
 195              		.loc 1 50 5 view .LVU54
 196 0020 A388     		ldrh	r3, [r4, #4]
 197 0022 73B9     		cbnz	r3, .L7
 198              		.loc 1 50 5 is_stmt 0 discriminator 1 view .LVU55
 199 0024 2368     		ldr	r3, [r4]
 200 0026 1A68     		ldr	r2, [r3]
 201 0028 136A     		ldr	r3, [r2, #32]
 202 002a 23F00A03 		bic	r3, r3, #10
 203 002e 1362     		str	r3, [r2, #32]
 204              	.L8:
 205              		.loc 1 50 5 is_stmt 1 discriminator 12 view .LVU56
 206 0030 A388     		ldrh	r3, [r4, #4]
 207 0032 FBB9     		cbnz	r3, .L11
 208              		.loc 1 50 5 is_stmt 0 discriminator 13 view .LVU57
 209 0034 2368     		ldr	r3, [r4]
 210 0036 1A68     		ldr	r2, [r3]
 211 0038 136A     		ldr	r3, [r2, #32]
 212 003a 43F00203 		orr	r3, r3, #2
 213 003e 1362     		str	r3, [r2, #32]
 214 0040 6BE0     		b	.L5
 215              	.L7:
 216              		.loc 1 50 5 discriminator 2 view .LVU58
 217 0042 042B     		cmp	r3, #4
 218 0044 08D0     		beq	.L24
 219              		.loc 1 50 5 discriminator 5 view .LVU59
 220 0046 082B     		cmp	r3, #8
 221 0048 0DD0     		beq	.L25
 222              		.loc 1 50 5 discriminator 8 view .LVU60
 223 004a 2368     		ldr	r3, [r4]
 224 004c 1A68     		ldr	r2, [r3]
 225 004e 136A     		ldr	r3, [r2, #32]
 226 0050 23F42043 		bic	r3, r3, #40960
 227 0054 1362     		str	r3, [r2, #32]
 228 0056 EBE7     		b	.L8
 229              	.L24:
 230              		.loc 1 50 5 discriminator 4 view .LVU61
 231 0058 2368     		ldr	r3, [r4]
 232 005a 1A68     		ldr	r2, [r3]
 233 005c 136A     		ldr	r3, [r2, #32]
 234 005e 23F0A003 		bic	r3, r3, #160
 235 0062 1362     		str	r3, [r2, #32]
 236 0064 E4E7     		b	.L8
 237              	.L25:
 238              		.loc 1 50 5 discriminator 7 view .LVU62
 239 0066 2368     		ldr	r3, [r4]
 240 0068 1A68     		ldr	r2, [r3]
ARM GAS  C:\Users\mathi\AppData\Local\Temp\cc2717Gk.s 			page 6


 241 006a 136A     		ldr	r3, [r2, #32]
 242 006c 23F42063 		bic	r3, r3, #2560
 243 0070 1362     		str	r3, [r2, #32]
 244 0072 DDE7     		b	.L8
 245              	.L11:
 246              		.loc 1 50 5 discriminator 14 view .LVU63
 247 0074 042B     		cmp	r3, #4
 248 0076 08D0     		beq	.L26
 249              		.loc 1 50 5 discriminator 17 view .LVU64
 250 0078 082B     		cmp	r3, #8
 251 007a 0DD0     		beq	.L27
 252              		.loc 1 50 5 discriminator 20 view .LVU65
 253 007c 2368     		ldr	r3, [r4]
 254 007e 1A68     		ldr	r2, [r3]
 255 0080 136A     		ldr	r3, [r2, #32]
 256 0082 43F40053 		orr	r3, r3, #8192
 257 0086 1362     		str	r3, [r2, #32]
 258 0088 47E0     		b	.L5
 259              	.L26:
 260              		.loc 1 50 5 discriminator 16 view .LVU66
 261 008a 2368     		ldr	r3, [r4]
 262 008c 1A68     		ldr	r2, [r3]
 263 008e 136A     		ldr	r3, [r2, #32]
 264 0090 43F02003 		orr	r3, r3, #32
 265 0094 1362     		str	r3, [r2, #32]
 266 0096 40E0     		b	.L5
 267              	.L27:
 268              		.loc 1 50 5 discriminator 19 view .LVU67
 269 0098 2368     		ldr	r3, [r4]
 270 009a 1A68     		ldr	r2, [r3]
 271 009c 136A     		ldr	r3, [r2, #32]
 272 009e 43F40073 		orr	r3, r3, #512
 273 00a2 1362     		str	r3, [r2, #32]
 274 00a4 39E0     		b	.L5
 275              	.LVL13:
 276              	.L6:
  51:Core/Src/hcsr04.c **** 
  52:Core/Src/hcsr04.c ****   } else {                                                                        // Falling edge c
  53:Core/Src/hcsr04.c ****     hcsr04->val_2 = HAL_TIM_ReadCapturedValue(hcsr04->htim, hcsr04->tim_channel); // read second va
 277              		.loc 1 53 5 is_stmt 1 view .LVU68
 278              		.loc 1 53 21 is_stmt 0 view .LVU69
 279 00a6 8188     		ldrh	r1, [r0, #4]
 280 00a8 0068     		ldr	r0, [r0]
 281              	.LVL14:
 282              		.loc 1 53 21 view .LVU70
 283 00aa FFF7FEFF 		bl	HAL_TIM_ReadCapturedValue
 284              	.LVL15:
 285              		.loc 1 53 19 discriminator 1 view .LVU71
 286 00ae A061     		str	r0, [r4, #24]
  54:Core/Src/hcsr04.c ****     hcsr04->val_2 += hcsr04->overflow_count * (hcsr04->htim->Instance->ARR + 1);  // handle overflo
 287              		.loc 1 54 5 is_stmt 1 view .LVU72
 288              		.loc 1 54 28 is_stmt 0 view .LVU73
 289 00b0 237F     		ldrb	r3, [r4, #28]	@ zero_extendqisi2
 290              		.loc 1 54 54 view .LVU74
 291 00b2 2568     		ldr	r5, [r4]
 292              		.loc 1 54 60 view .LVU75
 293 00b4 2A68     		ldr	r2, [r5]
ARM GAS  C:\Users\mathi\AppData\Local\Temp\cc2717Gk.s 			page 7


 294              		.loc 1 54 70 view .LVU76
 295 00b6 D26A     		ldr	r2, [r2, #44]
 296              		.loc 1 54 45 view .LVU77
 297 00b8 02FB0333 		mla	r3, r2, r3, r3
 298              		.loc 1 54 19 view .LVU78
 299 00bc 1844     		add	r0, r0, r3
 300 00be A061     		str	r0, [r4, #24]
  55:Core/Src/hcsr04.c **** 
  56:Core/Src/hcsr04.c ****     hcsr04->difference = hcsr04->val_2 - hcsr04->val_1;
 301              		.loc 1 56 5 is_stmt 1 view .LVU79
 302              		.loc 1 56 48 is_stmt 0 view .LVU80
 303 00c0 6369     		ldr	r3, [r4, #20]
 304              		.loc 1 56 40 view .LVU81
 305 00c2 C01A     		subs	r0, r0, r3
 306              		.loc 1 56 24 view .LVU82
 307 00c4 2062     		str	r0, [r4, #32]
  57:Core/Src/hcsr04.c **** 
  58:Core/Src/hcsr04.c ****     hcsr04->is_first_captured = false;
 308              		.loc 1 58 5 is_stmt 1 view .LVU83
 309              		.loc 1 58 31 is_stmt 0 view .LVU84
 310 00c6 0023     		movs	r3, #0
 311 00c8 84F82430 		strb	r3, [r4, #36]
  59:Core/Src/hcsr04.c ****     hcsr04->overflow_count = 0;
 312              		.loc 1 59 5 is_stmt 1 view .LVU85
 313              		.loc 1 59 28 is_stmt 0 view .LVU86
 314 00cc 2377     		strb	r3, [r4, #28]
  60:Core/Src/hcsr04.c **** 
  61:Core/Src/hcsr04.c ****     hcsr04->range = (hcsr04->difference * 0.034 / 2) / 100; // NOTE: The devision will be optimized
 315              		.loc 1 61 5 is_stmt 1 view .LVU87
 316              		.loc 1 61 41 is_stmt 0 view .LVU88
 317 00ce FFF7FEFF 		bl	__aeabi_ui2d
 318              	.LVL16:
 319 00d2 29A3     		adr	r3, .L32+8
 320 00d4 D3E90023 		ldrd	r2, [r3]
 321 00d8 FFF7FEFF 		bl	__aeabi_dmul
 322              	.LVL17:
 323              		.loc 1 61 49 view .LVU89
 324 00dc 0022     		movs	r2, #0
 325 00de 244B     		ldr	r3, .L32
 326 00e0 FFF7FEFF 		bl	__aeabi_dmul
 327              	.LVL18:
 328              		.loc 1 61 54 view .LVU90
 329 00e4 0022     		movs	r2, #0
 330 00e6 234B     		ldr	r3, .L32+4
 331 00e8 FFF7FEFF 		bl	__aeabi_ddiv
 332              	.LVL19:
 333 00ec FFF7FEFF 		bl	__aeabi_d2f
 334              	.LVL20:
 335              		.loc 1 61 19 view .LVU91
 336 00f0 A062     		str	r0, [r4, #40]	@ float
  62:Core/Src/hcsr04.c **** 
  63:Core/Src/hcsr04.c ****     // set polarity to rising edge
  64:Core/Src/hcsr04.c ****     __HAL_TIM_SET_CAPTUREPOLARITY(hcsr04->htim, hcsr04->tim_channel, TIM_INPUTCHANNELPOLARITY_RISIN
 337              		.loc 1 64 5 is_stmt 1 view .LVU92
 338              		.loc 1 64 5 view .LVU93
 339 00f2 A388     		ldrh	r3, [r4, #4]
 340 00f4 93B9     		cbnz	r3, .L15
ARM GAS  C:\Users\mathi\AppData\Local\Temp\cc2717Gk.s 			page 8


 341              		.loc 1 64 5 is_stmt 0 discriminator 1 view .LVU94
 342 00f6 2A68     		ldr	r2, [r5]
 343 00f8 136A     		ldr	r3, [r2, #32]
 344 00fa 23F00A03 		bic	r3, r3, #10
 345 00fe 1362     		str	r3, [r2, #32]
 346              	.L16:
 347              		.loc 1 64 5 is_stmt 1 discriminator 12 view .LVU95
 348 0100 A388     		ldrh	r3, [r4, #4]
 349 0102 0BBB     		cbnz	r3, .L19
 350              		.loc 1 64 5 is_stmt 0 discriminator 13 view .LVU96
 351 0104 2368     		ldr	r3, [r4]
 352 0106 1B68     		ldr	r3, [r3]
 353 0108 1A6A     		ldr	r2, [r3, #32]
 354 010a 1A62     		str	r2, [r3, #32]
 355              	.L20:
 356              		.loc 1 64 5 is_stmt 1 discriminator 24 view .LVU97
  65:Core/Src/hcsr04.c ****     __HAL_TIM_DISABLE_IT(hcsr04->htim, hcsr04->interrupt_channel); // Disable the interrupt
 357              		.loc 1 65 5 view .LVU98
 358 010c 2368     		ldr	r3, [r4]
 359 010e 1A68     		ldr	r2, [r3]
 360 0110 D368     		ldr	r3, [r2, #12]
 361 0112 A168     		ldr	r1, [r4, #8]
 362 0114 23EA0103 		bic	r3, r3, r1
 363 0118 D360     		str	r3, [r2, #12]
 364              	.L5:
  66:Core/Src/hcsr04.c ****   }
  67:Core/Src/hcsr04.c **** }
 365              		.loc 1 67 1 is_stmt 0 view .LVU99
 366 011a 38BD     		pop	{r3, r4, r5, pc}
 367              	.LVL21:
 368              	.L15:
  64:Core/Src/hcsr04.c ****     __HAL_TIM_DISABLE_IT(hcsr04->htim, hcsr04->interrupt_channel); // Disable the interrupt
 369              		.loc 1 64 5 discriminator 2 view .LVU100
 370 011c 042B     		cmp	r3, #4
 371 011e 07D0     		beq	.L28
  64:Core/Src/hcsr04.c ****     __HAL_TIM_DISABLE_IT(hcsr04->htim, hcsr04->interrupt_channel); // Disable the interrupt
 372              		.loc 1 64 5 discriminator 5 view .LVU101
 373 0120 082B     		cmp	r3, #8
 374 0122 0BD0     		beq	.L29
  64:Core/Src/hcsr04.c ****     __HAL_TIM_DISABLE_IT(hcsr04->htim, hcsr04->interrupt_channel); // Disable the interrupt
 375              		.loc 1 64 5 discriminator 8 view .LVU102
 376 0124 2A68     		ldr	r2, [r5]
 377 0126 136A     		ldr	r3, [r2, #32]
 378 0128 23F42043 		bic	r3, r3, #40960
 379 012c 1362     		str	r3, [r2, #32]
 380 012e E7E7     		b	.L16
 381              	.L28:
  64:Core/Src/hcsr04.c ****     __HAL_TIM_DISABLE_IT(hcsr04->htim, hcsr04->interrupt_channel); // Disable the interrupt
 382              		.loc 1 64 5 discriminator 4 view .LVU103
 383 0130 2A68     		ldr	r2, [r5]
 384 0132 136A     		ldr	r3, [r2, #32]
 385 0134 23F0A003 		bic	r3, r3, #160
 386 0138 1362     		str	r3, [r2, #32]
 387 013a E1E7     		b	.L16
 388              	.L29:
  64:Core/Src/hcsr04.c ****     __HAL_TIM_DISABLE_IT(hcsr04->htim, hcsr04->interrupt_channel); // Disable the interrupt
 389              		.loc 1 64 5 discriminator 7 view .LVU104
ARM GAS  C:\Users\mathi\AppData\Local\Temp\cc2717Gk.s 			page 9


 390 013c 2A68     		ldr	r2, [r5]
 391 013e 136A     		ldr	r3, [r2, #32]
 392 0140 23F42063 		bic	r3, r3, #2560
 393 0144 1362     		str	r3, [r2, #32]
 394 0146 DBE7     		b	.L16
 395              	.L19:
  64:Core/Src/hcsr04.c ****     __HAL_TIM_DISABLE_IT(hcsr04->htim, hcsr04->interrupt_channel); // Disable the interrupt
 396              		.loc 1 64 5 discriminator 14 view .LVU105
 397 0148 042B     		cmp	r3, #4
 398 014a 06D0     		beq	.L30
  64:Core/Src/hcsr04.c ****     __HAL_TIM_DISABLE_IT(hcsr04->htim, hcsr04->interrupt_channel); // Disable the interrupt
 399              		.loc 1 64 5 discriminator 17 view .LVU106
 400 014c 082B     		cmp	r3, #8
 401 014e 09D0     		beq	.L31
  64:Core/Src/hcsr04.c ****     __HAL_TIM_DISABLE_IT(hcsr04->htim, hcsr04->interrupt_channel); // Disable the interrupt
 402              		.loc 1 64 5 discriminator 20 view .LVU107
 403 0150 2368     		ldr	r3, [r4]
 404 0152 1B68     		ldr	r3, [r3]
 405 0154 1A6A     		ldr	r2, [r3, #32]
 406 0156 1A62     		str	r2, [r3, #32]
 407 0158 D8E7     		b	.L20
 408              	.L30:
  64:Core/Src/hcsr04.c ****     __HAL_TIM_DISABLE_IT(hcsr04->htim, hcsr04->interrupt_channel); // Disable the interrupt
 409              		.loc 1 64 5 discriminator 16 view .LVU108
 410 015a 2368     		ldr	r3, [r4]
 411 015c 1B68     		ldr	r3, [r3]
 412 015e 1A6A     		ldr	r2, [r3, #32]
 413 0160 1A62     		str	r2, [r3, #32]
 414 0162 D3E7     		b	.L20
 415              	.L31:
  64:Core/Src/hcsr04.c ****     __HAL_TIM_DISABLE_IT(hcsr04->htim, hcsr04->interrupt_channel); // Disable the interrupt
 416              		.loc 1 64 5 discriminator 19 view .LVU109
 417 0164 2368     		ldr	r3, [r4]
 418 0166 1B68     		ldr	r3, [r3]
 419 0168 1A6A     		ldr	r2, [r3, #32]
 420 016a 1A62     		str	r2, [r3, #32]
 421 016c CEE7     		b	.L20
 422              	.L33:
 423 016e 00BF     		.align	3
 424              	.L32:
 425 0170 0000E03F 		.word	1071644672
 426 0174 00005940 		.word	1079574528
 427 0178 9CC420B0 		.word	-1340029796
 428 017c 7268A13F 		.word	1067542642
 429              		.cfi_endproc
 430              	.LFE298:
 432              		.section	.text.hcsr04_handle_period_elapsed_interrupt,"ax",%progbits
 433              		.align	1
 434              		.global	hcsr04_handle_period_elapsed_interrupt
 435              		.syntax unified
 436              		.thumb
 437              		.thumb_func
 439              	hcsr04_handle_period_elapsed_interrupt:
 440              	.LVL22:
 441              	.LFB299:
  68:Core/Src/hcsr04.c **** 
  69:Core/Src/hcsr04.c **** void hcsr04_handle_period_elapsed_interrupt(hcsr04_t *hcsr04) { hcsr04->overflow_count++; }
ARM GAS  C:\Users\mathi\AppData\Local\Temp\cc2717Gk.s 			page 10


 442              		.loc 1 69 63 is_stmt 1 view -0
 443              		.cfi_startproc
 444              		@ args = 0, pretend = 0, frame = 0
 445              		@ frame_needed = 0, uses_anonymous_args = 0
 446              		@ link register save eliminated.
 447              		.loc 1 69 65 view .LVU111
 448              		.loc 1 69 71 is_stmt 0 view .LVU112
 449 0000 037F     		ldrb	r3, [r0, #28]	@ zero_extendqisi2
 450              		.loc 1 69 87 view .LVU113
 451 0002 0133     		adds	r3, r3, #1
 452 0004 0377     		strb	r3, [r0, #28]
 453              		.loc 1 69 91 view .LVU114
 454 0006 7047     		bx	lr
 455              		.cfi_endproc
 456              	.LFE299:
 458              		.section	.text.hcsr04_init_range_msg,"ax",%progbits
 459              		.align	1
 460              		.global	hcsr04_init_range_msg
 461              		.syntax unified
 462              		.thumb
 463              		.thumb_func
 465              	hcsr04_init_range_msg:
 466              	.LVL23:
 467              	.LFB300:
  70:Core/Src/hcsr04.c **** 
  71:Core/Src/hcsr04.c **** void hcsr04_init_range_msg(sensor_msgs__msg__Range *msg, rosidl_runtime_c__String frame_id) {
 468              		.loc 1 71 93 is_stmt 1 view -0
 469              		.cfi_startproc
 470              		@ args = 0, pretend = 0, frame = 16
 471              		@ frame_needed = 0, uses_anonymous_args = 0
 472              		.loc 1 71 93 is_stmt 0 view .LVU116
 473 0000 00B5     		push	{lr}
 474              		.cfi_def_cfa_offset 4
 475              		.cfi_offset 14, -4
 476 0002 85B0     		sub	sp, sp, #20
 477              		.cfi_def_cfa_offset 24
 478 0004 8446     		mov	ip, r0
 479 0006 01A8     		add	r0, sp, #4
 480              	.LVL24:
 481              		.loc 1 71 93 view .LVU117
 482 0008 80E80E00 		stm	r0, {r1, r2, r3}
  72:Core/Src/hcsr04.c ****   msg->radiation_type = 0;
 483              		.loc 1 72 3 is_stmt 1 view .LVU118
 484              		.loc 1 72 23 is_stmt 0 view .LVU119
 485 000c 0022     		movs	r2, #0
 486 000e 8CF81420 		strb	r2, [ip, #20]
  73:Core/Src/hcsr04.c ****   msg->header.frame_id = frame_id;
 487              		.loc 1 73 3 is_stmt 1 view .LVU120
 488              		.loc 1 73 24 is_stmt 0 view .LVU121
 489 0012 0CF1080E 		add	lr, ip, #8
 490 0016 07C8     		ldm	r0, {r0, r1, r2}
 491 0018 8EE80B00 		stm	lr, {r0, r1, r3}
  74:Core/Src/hcsr04.c ****   msg->min_range = 0.02;
 492              		.loc 1 74 3 is_stmt 1 view .LVU122
 493              		.loc 1 74 18 is_stmt 0 view .LVU123
 494 001c 074B     		ldr	r3, .L37
 495 001e CCF81C30 		str	r3, [ip, #28]	@ float
ARM GAS  C:\Users\mathi\AppData\Local\Temp\cc2717Gk.s 			page 11


  75:Core/Src/hcsr04.c ****   msg->max_range = 4;
 496              		.loc 1 75 3 is_stmt 1 view .LVU124
 497              		.loc 1 75 18 is_stmt 0 view .LVU125
 498 0022 4FF08143 		mov	r3, #1082130432
 499 0026 CCF82030 		str	r3, [ip, #32]	@ float
  76:Core/Src/hcsr04.c ****   msg->field_of_view = 0.2617994;
 500              		.loc 1 76 3 is_stmt 1 view .LVU126
 501              		.loc 1 76 22 is_stmt 0 view .LVU127
 502 002a 054B     		ldr	r3, .L37+4
 503 002c CCF81830 		str	r3, [ip, #24]	@ float
  77:Core/Src/hcsr04.c ****   msg->range = 0;
 504              		.loc 1 77 3 is_stmt 1 view .LVU128
 505              		.loc 1 77 14 is_stmt 0 view .LVU129
 506 0030 0023     		movs	r3, #0
 507 0032 CCF82430 		str	r3, [ip, #36]	@ float
  78:Core/Src/hcsr04.c **** }
 508              		.loc 1 78 1 view .LVU130
 509 0036 05B0     		add	sp, sp, #20
 510              		.cfi_def_cfa_offset 4
 511              		@ sp needed
 512 0038 5DF804FB 		ldr	pc, [sp], #4
 513              	.L38:
 514              		.align	2
 515              	.L37:
 516 003c 0AD7A33C 		.word	1017370378
 517 0040 920A863E 		.word	1048971922
 518              		.cfi_endproc
 519              	.LFE300:
 521              		.text
 522              	.Letext0:
 523              		.file 2 "C:/Users/mathi/AppData/Roaming/Code/User/globalStorage/bmd.stm32-for-vscode/@xpack-dev-to
 524              		.file 3 "C:/Users/mathi/AppData/Roaming/Code/User/globalStorage/bmd.stm32-for-vscode/@xpack-dev-to
 525              		.file 4 "C:/Users/mathi/AppData/Roaming/Code/User/globalStorage/bmd.stm32-for-vscode/@xpack-dev-to
 526              		.file 5 "micro_ros_stm32cubemx_utils/microros_static_library/libmicroros/microros_include/builtin_
 527              		.file 6 "micro_ros_stm32cubemx_utils/microros_static_library/libmicroros/microros_include/rosidl_r
 528              		.file 7 "micro_ros_stm32cubemx_utils/microros_static_library/libmicroros/microros_include/std_msgs
 529              		.file 8 "micro_ros_stm32cubemx_utils/microros_static_library/libmicroros/microros_include/sensor_m
 530              		.file 9 "Drivers/CMSIS/Device/ST/STM32L4xx/Include/stm32l452xx.h"
 531              		.file 10 "Drivers/STM32L4xx_HAL_Driver/Inc/stm32l4xx_hal_def.h"
 532              		.file 11 "Drivers/STM32L4xx_HAL_Driver/Inc/stm32l4xx_hal_gpio.h"
 533              		.file 12 "Drivers/STM32L4xx_HAL_Driver/Inc/stm32l4xx_hal_dma.h"
 534              		.file 13 "Drivers/STM32L4xx_HAL_Driver/Inc/stm32l4xx_hal_tim.h"
 535              		.file 14 "Core/Inc/hcsr04.h"
 536              		.file 15 "Middlewares/Third_Party/FreeRTOS/Source/CMSIS_RTOS_V2/cmsis_os2.h"
ARM GAS  C:\Users\mathi\AppData\Local\Temp\cc2717Gk.s 			page 12

