ARM GAS  C:\Users\mathi\AppData\Local\Temp\ccmITq2K.s 			page 1


   1              		.cpu cortex-m4
   2              		.arch armv7e-m
   3              		.fpu fpv4-sp-d16
   4              		.eabi_attribute 27, 1
   5              		.eabi_attribute 28, 1
   6              		.eabi_attribute 20, 1
   7              		.eabi_attribute 21, 1
   8              		.eabi_attribute 23, 3
   9              		.eabi_attribute 24, 1
  10              		.eabi_attribute 25, 1
  11              		.eabi_attribute 26, 1
  12              		.eabi_attribute 30, 1
  13              		.eabi_attribute 34, 1
  14              		.eabi_attribute 18, 4
  15              		.file	"stm32l4xx_hal_gpio.c"
  16              		.text
  17              	.Ltext0:
  18              		.cfi_sections	.debug_frame
  19              		.file 1 "Drivers/STM32L4xx_HAL_Driver/Src/stm32l4xx_hal_gpio.c"
  20              		.section	.rodata.HAL_GPIO_Init.str1.4,"aMS",%progbits,1
  21              		.align	2
  22              	.LC0:
  23 0000 44726976 		.ascii	"Drivers/STM32L4xx_HAL_Driver/Src/stm32l4xx_hal_gpio"
  23      6572732F 
  23      53544D33 
  23      324C3478 
  23      785F4841 
  24 0033 2E6300   		.ascii	".c\000"
  25              		.section	.text.HAL_GPIO_Init,"ax",%progbits
  26              		.align	1
  27              		.global	HAL_GPIO_Init
  28              		.syntax unified
  29              		.thumb
  30              		.thumb_func
  32              	HAL_GPIO_Init:
  33              	.LVL0:
  34              	.LFB292:
   1:Drivers/STM32L4xx_HAL_Driver/Src/stm32l4xx_hal_gpio.c **** /**
   2:Drivers/STM32L4xx_HAL_Driver/Src/stm32l4xx_hal_gpio.c ****   ******************************************************************************
   3:Drivers/STM32L4xx_HAL_Driver/Src/stm32l4xx_hal_gpio.c ****   * @file    stm32l4xx_hal_gpio.c
   4:Drivers/STM32L4xx_HAL_Driver/Src/stm32l4xx_hal_gpio.c ****   * @author  MCD Application Team
   5:Drivers/STM32L4xx_HAL_Driver/Src/stm32l4xx_hal_gpio.c ****   * @brief   GPIO HAL module driver.
   6:Drivers/STM32L4xx_HAL_Driver/Src/stm32l4xx_hal_gpio.c ****   *          This file provides firmware functions to manage the following
   7:Drivers/STM32L4xx_HAL_Driver/Src/stm32l4xx_hal_gpio.c ****   *          functionalities of the General Purpose Input/Output (GPIO) peripheral:
   8:Drivers/STM32L4xx_HAL_Driver/Src/stm32l4xx_hal_gpio.c ****   *           + Initialization and de-initialization functions
   9:Drivers/STM32L4xx_HAL_Driver/Src/stm32l4xx_hal_gpio.c ****   *           + IO operation functions
  10:Drivers/STM32L4xx_HAL_Driver/Src/stm32l4xx_hal_gpio.c ****   *
  11:Drivers/STM32L4xx_HAL_Driver/Src/stm32l4xx_hal_gpio.c ****   ******************************************************************************
  12:Drivers/STM32L4xx_HAL_Driver/Src/stm32l4xx_hal_gpio.c ****   * @attention
  13:Drivers/STM32L4xx_HAL_Driver/Src/stm32l4xx_hal_gpio.c ****   *
  14:Drivers/STM32L4xx_HAL_Driver/Src/stm32l4xx_hal_gpio.c ****   * Copyright (c) 2017 STMicroelectronics.
  15:Drivers/STM32L4xx_HAL_Driver/Src/stm32l4xx_hal_gpio.c ****   * All rights reserved.
  16:Drivers/STM32L4xx_HAL_Driver/Src/stm32l4xx_hal_gpio.c ****   *
  17:Drivers/STM32L4xx_HAL_Driver/Src/stm32l4xx_hal_gpio.c ****   * This software is licensed under terms that can be found in the LICENSE file
  18:Drivers/STM32L4xx_HAL_Driver/Src/stm32l4xx_hal_gpio.c ****   * in the root directory of this software component.
  19:Drivers/STM32L4xx_HAL_Driver/Src/stm32l4xx_hal_gpio.c ****   * If no LICENSE file comes with this software, it is provided AS-IS.
  20:Drivers/STM32L4xx_HAL_Driver/Src/stm32l4xx_hal_gpio.c ****   *
ARM GAS  C:\Users\mathi\AppData\Local\Temp\ccmITq2K.s 			page 2


  21:Drivers/STM32L4xx_HAL_Driver/Src/stm32l4xx_hal_gpio.c ****   ******************************************************************************
  22:Drivers/STM32L4xx_HAL_Driver/Src/stm32l4xx_hal_gpio.c ****   @verbatim
  23:Drivers/STM32L4xx_HAL_Driver/Src/stm32l4xx_hal_gpio.c ****   ==============================================================================
  24:Drivers/STM32L4xx_HAL_Driver/Src/stm32l4xx_hal_gpio.c ****                     ##### GPIO Peripheral features #####
  25:Drivers/STM32L4xx_HAL_Driver/Src/stm32l4xx_hal_gpio.c ****   ==============================================================================
  26:Drivers/STM32L4xx_HAL_Driver/Src/stm32l4xx_hal_gpio.c ****   [..]
  27:Drivers/STM32L4xx_HAL_Driver/Src/stm32l4xx_hal_gpio.c ****     (+) Each port bit of the general-purpose I/O (GPIO) ports can be individually
  28:Drivers/STM32L4xx_HAL_Driver/Src/stm32l4xx_hal_gpio.c ****         configured by software in several modes:
  29:Drivers/STM32L4xx_HAL_Driver/Src/stm32l4xx_hal_gpio.c ****         (++) Input mode
  30:Drivers/STM32L4xx_HAL_Driver/Src/stm32l4xx_hal_gpio.c ****         (++) Analog mode
  31:Drivers/STM32L4xx_HAL_Driver/Src/stm32l4xx_hal_gpio.c ****         (++) Output mode
  32:Drivers/STM32L4xx_HAL_Driver/Src/stm32l4xx_hal_gpio.c ****         (++) Alternate function mode
  33:Drivers/STM32L4xx_HAL_Driver/Src/stm32l4xx_hal_gpio.c ****         (++) External interrupt/event lines
  34:Drivers/STM32L4xx_HAL_Driver/Src/stm32l4xx_hal_gpio.c **** 
  35:Drivers/STM32L4xx_HAL_Driver/Src/stm32l4xx_hal_gpio.c ****     (+) During and just after reset, the alternate functions and external interrupt
  36:Drivers/STM32L4xx_HAL_Driver/Src/stm32l4xx_hal_gpio.c ****         lines are not active and the I/O ports are configured in input floating mode.
  37:Drivers/STM32L4xx_HAL_Driver/Src/stm32l4xx_hal_gpio.c **** 
  38:Drivers/STM32L4xx_HAL_Driver/Src/stm32l4xx_hal_gpio.c ****     (+) All GPIO pins have weak internal pull-up and pull-down resistors, which can be
  39:Drivers/STM32L4xx_HAL_Driver/Src/stm32l4xx_hal_gpio.c ****         activated or not.
  40:Drivers/STM32L4xx_HAL_Driver/Src/stm32l4xx_hal_gpio.c **** 
  41:Drivers/STM32L4xx_HAL_Driver/Src/stm32l4xx_hal_gpio.c ****     (+) In Output or Alternate mode, each IO can be configured on open-drain or push-pull
  42:Drivers/STM32L4xx_HAL_Driver/Src/stm32l4xx_hal_gpio.c ****         type and the IO speed can be selected depending on the VDD value.
  43:Drivers/STM32L4xx_HAL_Driver/Src/stm32l4xx_hal_gpio.c **** 
  44:Drivers/STM32L4xx_HAL_Driver/Src/stm32l4xx_hal_gpio.c ****     (+) The microcontroller IO pins are connected to onboard peripherals/modules through a
  45:Drivers/STM32L4xx_HAL_Driver/Src/stm32l4xx_hal_gpio.c ****         multiplexer that allows only one peripheral alternate function (AF) connected
  46:Drivers/STM32L4xx_HAL_Driver/Src/stm32l4xx_hal_gpio.c ****        to an IO pin at a time. In this way, there can be no conflict between peripherals
  47:Drivers/STM32L4xx_HAL_Driver/Src/stm32l4xx_hal_gpio.c ****        sharing the same IO pin.
  48:Drivers/STM32L4xx_HAL_Driver/Src/stm32l4xx_hal_gpio.c **** 
  49:Drivers/STM32L4xx_HAL_Driver/Src/stm32l4xx_hal_gpio.c ****     (+) All ports have external interrupt/event capability. To use external interrupt
  50:Drivers/STM32L4xx_HAL_Driver/Src/stm32l4xx_hal_gpio.c ****         lines, the port must be configured in input mode. All available GPIO pins are
  51:Drivers/STM32L4xx_HAL_Driver/Src/stm32l4xx_hal_gpio.c ****         connected to the 16 external interrupt/event lines from EXTI0 to EXTI15.
  52:Drivers/STM32L4xx_HAL_Driver/Src/stm32l4xx_hal_gpio.c **** 
  53:Drivers/STM32L4xx_HAL_Driver/Src/stm32l4xx_hal_gpio.c ****     (+) The external interrupt/event controller consists of up to 39 edge detectors
  54:Drivers/STM32L4xx_HAL_Driver/Src/stm32l4xx_hal_gpio.c ****         (16 lines are connected to GPIO) for generating event/interrupt requests (each
  55:Drivers/STM32L4xx_HAL_Driver/Src/stm32l4xx_hal_gpio.c ****         input line can be independently configured to select the type (interrupt or event)
  56:Drivers/STM32L4xx_HAL_Driver/Src/stm32l4xx_hal_gpio.c ****         and the corresponding trigger event (rising or falling or both). Each line can
  57:Drivers/STM32L4xx_HAL_Driver/Src/stm32l4xx_hal_gpio.c ****         also be masked independently.
  58:Drivers/STM32L4xx_HAL_Driver/Src/stm32l4xx_hal_gpio.c **** 
  59:Drivers/STM32L4xx_HAL_Driver/Src/stm32l4xx_hal_gpio.c ****                      ##### How to use this driver #####
  60:Drivers/STM32L4xx_HAL_Driver/Src/stm32l4xx_hal_gpio.c ****   ==============================================================================
  61:Drivers/STM32L4xx_HAL_Driver/Src/stm32l4xx_hal_gpio.c ****   [..]
  62:Drivers/STM32L4xx_HAL_Driver/Src/stm32l4xx_hal_gpio.c ****     (#) Enable the GPIO AHB clock using the following function: __HAL_RCC_GPIOx_CLK_ENABLE().
  63:Drivers/STM32L4xx_HAL_Driver/Src/stm32l4xx_hal_gpio.c **** 
  64:Drivers/STM32L4xx_HAL_Driver/Src/stm32l4xx_hal_gpio.c ****     (#) Configure the GPIO pin(s) using HAL_GPIO_Init().
  65:Drivers/STM32L4xx_HAL_Driver/Src/stm32l4xx_hal_gpio.c ****         (++) Configure the IO mode using "Mode" member from GPIO_InitTypeDef structure
  66:Drivers/STM32L4xx_HAL_Driver/Src/stm32l4xx_hal_gpio.c ****         (++) Activate Pull-up, Pull-down resistor using "Pull" member from GPIO_InitTypeDef
  67:Drivers/STM32L4xx_HAL_Driver/Src/stm32l4xx_hal_gpio.c ****              structure.
  68:Drivers/STM32L4xx_HAL_Driver/Src/stm32l4xx_hal_gpio.c ****         (++) In case of Output or alternate function mode selection: the speed is
  69:Drivers/STM32L4xx_HAL_Driver/Src/stm32l4xx_hal_gpio.c ****              configured through "Speed" member from GPIO_InitTypeDef structure.
  70:Drivers/STM32L4xx_HAL_Driver/Src/stm32l4xx_hal_gpio.c ****         (++) In alternate mode is selection, the alternate function connected to the IO
  71:Drivers/STM32L4xx_HAL_Driver/Src/stm32l4xx_hal_gpio.c ****              is configured through "Alternate" member from GPIO_InitTypeDef structure.
  72:Drivers/STM32L4xx_HAL_Driver/Src/stm32l4xx_hal_gpio.c ****         (++) Analog mode is required when a pin is to be used as ADC channel
  73:Drivers/STM32L4xx_HAL_Driver/Src/stm32l4xx_hal_gpio.c ****              or DAC output.
  74:Drivers/STM32L4xx_HAL_Driver/Src/stm32l4xx_hal_gpio.c ****         (++) In case of external interrupt/event selection the "Mode" member from
  75:Drivers/STM32L4xx_HAL_Driver/Src/stm32l4xx_hal_gpio.c ****              GPIO_InitTypeDef structure select the type (interrupt or event) and
  76:Drivers/STM32L4xx_HAL_Driver/Src/stm32l4xx_hal_gpio.c ****              the corresponding trigger event (rising or falling or both).
  77:Drivers/STM32L4xx_HAL_Driver/Src/stm32l4xx_hal_gpio.c **** 
ARM GAS  C:\Users\mathi\AppData\Local\Temp\ccmITq2K.s 			page 3


  78:Drivers/STM32L4xx_HAL_Driver/Src/stm32l4xx_hal_gpio.c ****     (#) In case of external interrupt/event mode selection, configure NVIC IRQ priority
  79:Drivers/STM32L4xx_HAL_Driver/Src/stm32l4xx_hal_gpio.c ****         mapped to the EXTI line using HAL_NVIC_SetPriority() and enable it using
  80:Drivers/STM32L4xx_HAL_Driver/Src/stm32l4xx_hal_gpio.c ****         HAL_NVIC_EnableIRQ().
  81:Drivers/STM32L4xx_HAL_Driver/Src/stm32l4xx_hal_gpio.c **** 
  82:Drivers/STM32L4xx_HAL_Driver/Src/stm32l4xx_hal_gpio.c ****     (#) To get the level of a pin configured in input mode use HAL_GPIO_ReadPin().
  83:Drivers/STM32L4xx_HAL_Driver/Src/stm32l4xx_hal_gpio.c **** 
  84:Drivers/STM32L4xx_HAL_Driver/Src/stm32l4xx_hal_gpio.c ****     (#) To set/reset the level of a pin configured in output mode use
  85:Drivers/STM32L4xx_HAL_Driver/Src/stm32l4xx_hal_gpio.c ****         HAL_GPIO_WritePin()/HAL_GPIO_TogglePin().
  86:Drivers/STM32L4xx_HAL_Driver/Src/stm32l4xx_hal_gpio.c **** 
  87:Drivers/STM32L4xx_HAL_Driver/Src/stm32l4xx_hal_gpio.c ****    (#) To lock pin configuration until next reset use HAL_GPIO_LockPin().
  88:Drivers/STM32L4xx_HAL_Driver/Src/stm32l4xx_hal_gpio.c **** 
  89:Drivers/STM32L4xx_HAL_Driver/Src/stm32l4xx_hal_gpio.c ****     (#) During and just after reset, the alternate functions are not
  90:Drivers/STM32L4xx_HAL_Driver/Src/stm32l4xx_hal_gpio.c ****         active and the GPIO pins are configured in input floating mode (except JTAG
  91:Drivers/STM32L4xx_HAL_Driver/Src/stm32l4xx_hal_gpio.c ****         pins).
  92:Drivers/STM32L4xx_HAL_Driver/Src/stm32l4xx_hal_gpio.c **** 
  93:Drivers/STM32L4xx_HAL_Driver/Src/stm32l4xx_hal_gpio.c ****     (#) The LSE oscillator pins OSC32_IN and OSC32_OUT can be used as general purpose
  94:Drivers/STM32L4xx_HAL_Driver/Src/stm32l4xx_hal_gpio.c ****         (PC14 and PC15, respectively) when the LSE oscillator is off. The LSE has
  95:Drivers/STM32L4xx_HAL_Driver/Src/stm32l4xx_hal_gpio.c ****         priority over the GPIO function.
  96:Drivers/STM32L4xx_HAL_Driver/Src/stm32l4xx_hal_gpio.c **** 
  97:Drivers/STM32L4xx_HAL_Driver/Src/stm32l4xx_hal_gpio.c ****     (#) The HSE oscillator pins OSC_IN/OSC_OUT can be used as
  98:Drivers/STM32L4xx_HAL_Driver/Src/stm32l4xx_hal_gpio.c ****         general purpose PH0 and PH1, respectively, when the HSE oscillator is off.
  99:Drivers/STM32L4xx_HAL_Driver/Src/stm32l4xx_hal_gpio.c ****         The HSE has priority over the GPIO function.
 100:Drivers/STM32L4xx_HAL_Driver/Src/stm32l4xx_hal_gpio.c **** 
 101:Drivers/STM32L4xx_HAL_Driver/Src/stm32l4xx_hal_gpio.c ****   @endverbatim
 102:Drivers/STM32L4xx_HAL_Driver/Src/stm32l4xx_hal_gpio.c ****   ******************************************************************************
 103:Drivers/STM32L4xx_HAL_Driver/Src/stm32l4xx_hal_gpio.c ****   */
 104:Drivers/STM32L4xx_HAL_Driver/Src/stm32l4xx_hal_gpio.c **** 
 105:Drivers/STM32L4xx_HAL_Driver/Src/stm32l4xx_hal_gpio.c **** /* Includes ------------------------------------------------------------------*/
 106:Drivers/STM32L4xx_HAL_Driver/Src/stm32l4xx_hal_gpio.c **** #include "stm32l4xx_hal.h"
 107:Drivers/STM32L4xx_HAL_Driver/Src/stm32l4xx_hal_gpio.c **** 
 108:Drivers/STM32L4xx_HAL_Driver/Src/stm32l4xx_hal_gpio.c **** /** @addtogroup STM32L4xx_HAL_Driver
 109:Drivers/STM32L4xx_HAL_Driver/Src/stm32l4xx_hal_gpio.c ****   * @{
 110:Drivers/STM32L4xx_HAL_Driver/Src/stm32l4xx_hal_gpio.c ****   */
 111:Drivers/STM32L4xx_HAL_Driver/Src/stm32l4xx_hal_gpio.c **** 
 112:Drivers/STM32L4xx_HAL_Driver/Src/stm32l4xx_hal_gpio.c **** /** @defgroup GPIO GPIO
 113:Drivers/STM32L4xx_HAL_Driver/Src/stm32l4xx_hal_gpio.c ****   * @brief GPIO HAL module driver
 114:Drivers/STM32L4xx_HAL_Driver/Src/stm32l4xx_hal_gpio.c ****   * @{
 115:Drivers/STM32L4xx_HAL_Driver/Src/stm32l4xx_hal_gpio.c ****   */
 116:Drivers/STM32L4xx_HAL_Driver/Src/stm32l4xx_hal_gpio.c **** /** MISRA C:2012 deviation rule has been granted for following rules:
 117:Drivers/STM32L4xx_HAL_Driver/Src/stm32l4xx_hal_gpio.c ****   * Rule-12.2 - Medium: RHS argument is in interval [0,INF] which is out of
 118:Drivers/STM32L4xx_HAL_Driver/Src/stm32l4xx_hal_gpio.c ****   * range of the shift operator in following API :
 119:Drivers/STM32L4xx_HAL_Driver/Src/stm32l4xx_hal_gpio.c ****   * HAL_GPIO_Init
 120:Drivers/STM32L4xx_HAL_Driver/Src/stm32l4xx_hal_gpio.c ****   * HAL_GPIO_DeInit
 121:Drivers/STM32L4xx_HAL_Driver/Src/stm32l4xx_hal_gpio.c ****   */
 122:Drivers/STM32L4xx_HAL_Driver/Src/stm32l4xx_hal_gpio.c **** 
 123:Drivers/STM32L4xx_HAL_Driver/Src/stm32l4xx_hal_gpio.c **** #ifdef HAL_GPIO_MODULE_ENABLED
 124:Drivers/STM32L4xx_HAL_Driver/Src/stm32l4xx_hal_gpio.c **** 
 125:Drivers/STM32L4xx_HAL_Driver/Src/stm32l4xx_hal_gpio.c **** /* Private typedef -----------------------------------------------------------*/
 126:Drivers/STM32L4xx_HAL_Driver/Src/stm32l4xx_hal_gpio.c **** /* Private defines -----------------------------------------------------------*/
 127:Drivers/STM32L4xx_HAL_Driver/Src/stm32l4xx_hal_gpio.c **** /** @addtogroup GPIO_Private_Defines GPIO Private Defines
 128:Drivers/STM32L4xx_HAL_Driver/Src/stm32l4xx_hal_gpio.c ****   * @{
 129:Drivers/STM32L4xx_HAL_Driver/Src/stm32l4xx_hal_gpio.c ****   */
 130:Drivers/STM32L4xx_HAL_Driver/Src/stm32l4xx_hal_gpio.c **** #define GPIO_NUMBER           (16u)
 131:Drivers/STM32L4xx_HAL_Driver/Src/stm32l4xx_hal_gpio.c **** /**
 132:Drivers/STM32L4xx_HAL_Driver/Src/stm32l4xx_hal_gpio.c ****   * @}
 133:Drivers/STM32L4xx_HAL_Driver/Src/stm32l4xx_hal_gpio.c ****   */
 134:Drivers/STM32L4xx_HAL_Driver/Src/stm32l4xx_hal_gpio.c **** 
ARM GAS  C:\Users\mathi\AppData\Local\Temp\ccmITq2K.s 			page 4


 135:Drivers/STM32L4xx_HAL_Driver/Src/stm32l4xx_hal_gpio.c **** /* Private macros ------------------------------------------------------------*/
 136:Drivers/STM32L4xx_HAL_Driver/Src/stm32l4xx_hal_gpio.c **** /* Private variables ---------------------------------------------------------*/
 137:Drivers/STM32L4xx_HAL_Driver/Src/stm32l4xx_hal_gpio.c **** /* Private function prototypes -----------------------------------------------*/
 138:Drivers/STM32L4xx_HAL_Driver/Src/stm32l4xx_hal_gpio.c **** /* Exported functions --------------------------------------------------------*/
 139:Drivers/STM32L4xx_HAL_Driver/Src/stm32l4xx_hal_gpio.c **** 
 140:Drivers/STM32L4xx_HAL_Driver/Src/stm32l4xx_hal_gpio.c **** /** @defgroup GPIO_Exported_Functions GPIO Exported Functions
 141:Drivers/STM32L4xx_HAL_Driver/Src/stm32l4xx_hal_gpio.c ****   * @{
 142:Drivers/STM32L4xx_HAL_Driver/Src/stm32l4xx_hal_gpio.c ****   */
 143:Drivers/STM32L4xx_HAL_Driver/Src/stm32l4xx_hal_gpio.c **** 
 144:Drivers/STM32L4xx_HAL_Driver/Src/stm32l4xx_hal_gpio.c **** /** @defgroup GPIO_Exported_Functions_Group1 Initialization/de-initialization functions
 145:Drivers/STM32L4xx_HAL_Driver/Src/stm32l4xx_hal_gpio.c ****  *  @brief    Initialization and Configuration functions
 146:Drivers/STM32L4xx_HAL_Driver/Src/stm32l4xx_hal_gpio.c ****  *
 147:Drivers/STM32L4xx_HAL_Driver/Src/stm32l4xx_hal_gpio.c **** @verbatim
 148:Drivers/STM32L4xx_HAL_Driver/Src/stm32l4xx_hal_gpio.c ****  ===============================================================================
 149:Drivers/STM32L4xx_HAL_Driver/Src/stm32l4xx_hal_gpio.c ****               ##### Initialization and de-initialization functions #####
 150:Drivers/STM32L4xx_HAL_Driver/Src/stm32l4xx_hal_gpio.c ****  ===============================================================================
 151:Drivers/STM32L4xx_HAL_Driver/Src/stm32l4xx_hal_gpio.c **** 
 152:Drivers/STM32L4xx_HAL_Driver/Src/stm32l4xx_hal_gpio.c **** @endverbatim
 153:Drivers/STM32L4xx_HAL_Driver/Src/stm32l4xx_hal_gpio.c ****   * @{
 154:Drivers/STM32L4xx_HAL_Driver/Src/stm32l4xx_hal_gpio.c ****   */
 155:Drivers/STM32L4xx_HAL_Driver/Src/stm32l4xx_hal_gpio.c **** 
 156:Drivers/STM32L4xx_HAL_Driver/Src/stm32l4xx_hal_gpio.c **** /**
 157:Drivers/STM32L4xx_HAL_Driver/Src/stm32l4xx_hal_gpio.c ****   * @brief  Initialize the GPIOx peripheral according to the specified parameters in the GPIO_Init.
 158:Drivers/STM32L4xx_HAL_Driver/Src/stm32l4xx_hal_gpio.c ****   * @param  GPIOx where x can be (A..H) to select the GPIO peripheral for STM32L4 family
 159:Drivers/STM32L4xx_HAL_Driver/Src/stm32l4xx_hal_gpio.c ****   * @param  GPIO_Init pointer to a GPIO_InitTypeDef structure that contains
 160:Drivers/STM32L4xx_HAL_Driver/Src/stm32l4xx_hal_gpio.c ****   *         the configuration information for the specified GPIO peripheral.
 161:Drivers/STM32L4xx_HAL_Driver/Src/stm32l4xx_hal_gpio.c ****   * @retval None
 162:Drivers/STM32L4xx_HAL_Driver/Src/stm32l4xx_hal_gpio.c ****   */
 163:Drivers/STM32L4xx_HAL_Driver/Src/stm32l4xx_hal_gpio.c **** void HAL_GPIO_Init(GPIO_TypeDef  *GPIOx, GPIO_InitTypeDef *GPIO_Init)
 164:Drivers/STM32L4xx_HAL_Driver/Src/stm32l4xx_hal_gpio.c **** {
  35              		.loc 1 164 1 view -0
  36              		.cfi_startproc
  37              		@ args = 0, pretend = 0, frame = 8
  38              		@ frame_needed = 0, uses_anonymous_args = 0
  39              		.loc 1 164 1 is_stmt 0 view .LVU1
  40 0000 2DE9F041 		push	{r4, r5, r6, r7, r8, lr}
  41              		.cfi_def_cfa_offset 24
  42              		.cfi_offset 4, -24
  43              		.cfi_offset 5, -20
  44              		.cfi_offset 6, -16
  45              		.cfi_offset 7, -12
  46              		.cfi_offset 8, -8
  47              		.cfi_offset 14, -4
  48 0004 82B0     		sub	sp, sp, #8
  49              		.cfi_def_cfa_offset 32
  50 0006 8046     		mov	r8, r0
  51 0008 0C46     		mov	r4, r1
 165:Drivers/STM32L4xx_HAL_Driver/Src/stm32l4xx_hal_gpio.c ****   uint32_t position = 0x00u;
  52              		.loc 1 165 3 is_stmt 1 view .LVU2
  53              	.LVL1:
 166:Drivers/STM32L4xx_HAL_Driver/Src/stm32l4xx_hal_gpio.c ****   uint32_t iocurrent;
  54              		.loc 1 166 3 view .LVU3
 167:Drivers/STM32L4xx_HAL_Driver/Src/stm32l4xx_hal_gpio.c ****   uint32_t temp;
  55              		.loc 1 167 3 view .LVU4
 168:Drivers/STM32L4xx_HAL_Driver/Src/stm32l4xx_hal_gpio.c **** 
 169:Drivers/STM32L4xx_HAL_Driver/Src/stm32l4xx_hal_gpio.c ****   /* Check the parameters */
 170:Drivers/STM32L4xx_HAL_Driver/Src/stm32l4xx_hal_gpio.c ****   assert_param(IS_GPIO_ALL_INSTANCE(GPIOx));
ARM GAS  C:\Users\mathi\AppData\Local\Temp\ccmITq2K.s 			page 5


  56              		.loc 1 170 3 view .LVU5
  57 000a B0F1904F 		cmp	r0, #1207959552
  58 000e 16D0     		beq	.L2
  59              		.loc 1 170 3 is_stmt 0 discriminator 1 view .LVU6
  60 0010 A34B     		ldr	r3, .L38
  61 0012 9842     		cmp	r0, r3
  62 0014 13D0     		beq	.L2
  63              		.loc 1 170 3 discriminator 2 view .LVU7
  64 0016 03F58063 		add	r3, r3, #1024
  65 001a 9842     		cmp	r0, r3
  66 001c 0FD0     		beq	.L2
  67              		.loc 1 170 3 discriminator 3 view .LVU8
  68 001e 03F58063 		add	r3, r3, #1024
  69 0022 9842     		cmp	r0, r3
  70 0024 0BD0     		beq	.L2
  71              		.loc 1 170 3 discriminator 4 view .LVU9
  72 0026 03F58063 		add	r3, r3, #1024
  73 002a 9842     		cmp	r0, r3
  74 002c 07D0     		beq	.L2
  75              		.loc 1 170 3 discriminator 5 view .LVU10
  76 002e 03F54063 		add	r3, r3, #3072
  77 0032 9842     		cmp	r0, r3
  78 0034 03D0     		beq	.L2
  79              		.loc 1 170 3 discriminator 6 view .LVU11
  80 0036 AA21     		movs	r1, #170
  81              	.LVL2:
  82              		.loc 1 170 3 discriminator 6 view .LVU12
  83 0038 9A48     		ldr	r0, .L38+4
  84              	.LVL3:
  85              		.loc 1 170 3 discriminator 6 view .LVU13
  86 003a FFF7FEFF 		bl	assert_failed
  87              	.LVL4:
  88              	.L2:
 171:Drivers/STM32L4xx_HAL_Driver/Src/stm32l4xx_hal_gpio.c ****   assert_param(IS_GPIO_PIN(GPIO_Init->Pin));
  89              		.loc 1 171 3 is_stmt 1 view .LVU14
  90 003e 2368     		ldr	r3, [r4]
  91 0040 9AB2     		uxth	r2, r3
  92 0042 12B1     		cbz	r2, .L3
  93              		.loc 1 171 3 is_stmt 0 discriminator 2 view .LVU15
  94 0044 B3F5803F 		cmp	r3, #65536
  95 0048 03D3     		bcc	.L4
  96              	.L3:
  97              		.loc 1 171 3 discriminator 3 view .LVU16
  98 004a AB21     		movs	r1, #171
  99 004c 9548     		ldr	r0, .L38+4
 100 004e FFF7FEFF 		bl	assert_failed
 101              	.LVL5:
 102              	.L4:
 172:Drivers/STM32L4xx_HAL_Driver/Src/stm32l4xx_hal_gpio.c ****   assert_param(IS_GPIO_MODE(GPIO_Init->Mode));
 103              		.loc 1 172 3 is_stmt 1 view .LVU17
 104 0052 6368     		ldr	r3, [r4, #4]
 105 0054 B3F5901F 		cmp	r3, #1179648
 106 0058 1FD0     		beq	.L5
 107 005a 0CD8     		bhi	.L6
 108 005c 122B     		cmp	r3, #18
 109 005e 06D8     		bhi	.L7
 110 0060 914A     		ldr	r2, .L38+8
ARM GAS  C:\Users\mathi\AppData\Local\Temp\ccmITq2K.s 			page 6


 111 0062 22FA03F3 		lsr	r3, r2, r3
 112 0066 13F0010F 		tst	r3, #1
 113 006a 16D1     		bne	.L5
 114 006c 11E0     		b	.L8
 115              	.L7:
 116 006e B3F5881F 		cmp	r3, #1114112
 117 0072 12D0     		beq	.L5
 118 0074 0DE0     		b	.L8
 119              	.L6:
 120 0076 B3F5441F 		cmp	r3, #3211264
 121 007a 0ED0     		beq	.L5
 122 007c 06D8     		bhi	.L9
 123 007e B3F5041F 		cmp	r3, #2162688
 124 0082 0AD0     		beq	.L5
 125 0084 B3F5081F 		cmp	r3, #2228224
 126 0088 03D1     		bne	.L8
 127 008a 06E0     		b	.L5
 128              	.L9:
 129 008c B3F5481F 		cmp	r3, #3276800
 130 0090 03D0     		beq	.L5
 131              	.L8:
 132              		.loc 1 172 3 is_stmt 0 discriminator 12 view .LVU18
 133 0092 AC21     		movs	r1, #172
 134 0094 8348     		ldr	r0, .L38+4
 135 0096 FFF7FEFF 		bl	assert_failed
 136              	.LVL6:
 137              	.L5:
 173:Drivers/STM32L4xx_HAL_Driver/Src/stm32l4xx_hal_gpio.c **** 
 174:Drivers/STM32L4xx_HAL_Driver/Src/stm32l4xx_hal_gpio.c ****   /* Configure the port pins */
 175:Drivers/STM32L4xx_HAL_Driver/Src/stm32l4xx_hal_gpio.c ****   while (((GPIO_Init->Pin) >> position) != 0x00u)
 176:Drivers/STM32L4xx_HAL_Driver/Src/stm32l4xx_hal_gpio.c ****   {
 177:Drivers/STM32L4xx_HAL_Driver/Src/stm32l4xx_hal_gpio.c ****     /* Get current io position */
 178:Drivers/STM32L4xx_HAL_Driver/Src/stm32l4xx_hal_gpio.c ****     iocurrent = (GPIO_Init->Pin) & (1uL << position);
 179:Drivers/STM32L4xx_HAL_Driver/Src/stm32l4xx_hal_gpio.c **** 
 180:Drivers/STM32L4xx_HAL_Driver/Src/stm32l4xx_hal_gpio.c ****     if (iocurrent != 0x00u)
 181:Drivers/STM32L4xx_HAL_Driver/Src/stm32l4xx_hal_gpio.c ****     {
 182:Drivers/STM32L4xx_HAL_Driver/Src/stm32l4xx_hal_gpio.c ****       /*--------------------- GPIO Mode Configuration ------------------------*/
 183:Drivers/STM32L4xx_HAL_Driver/Src/stm32l4xx_hal_gpio.c ****       /* In case of Output or Alternate function mode selection */
 184:Drivers/STM32L4xx_HAL_Driver/Src/stm32l4xx_hal_gpio.c ****       if (((GPIO_Init->Mode & GPIO_MODE) == MODE_OUTPUT) || ((GPIO_Init->Mode & GPIO_MODE) == MODE_
 185:Drivers/STM32L4xx_HAL_Driver/Src/stm32l4xx_hal_gpio.c ****       {
 186:Drivers/STM32L4xx_HAL_Driver/Src/stm32l4xx_hal_gpio.c ****         /* Check the Speed parameter */
 187:Drivers/STM32L4xx_HAL_Driver/Src/stm32l4xx_hal_gpio.c ****         assert_param(IS_GPIO_SPEED(GPIO_Init->Speed));
 188:Drivers/STM32L4xx_HAL_Driver/Src/stm32l4xx_hal_gpio.c **** 
 189:Drivers/STM32L4xx_HAL_Driver/Src/stm32l4xx_hal_gpio.c ****         /* Configure the IO Speed */
 190:Drivers/STM32L4xx_HAL_Driver/Src/stm32l4xx_hal_gpio.c ****         temp = GPIOx->OSPEEDR;
 191:Drivers/STM32L4xx_HAL_Driver/Src/stm32l4xx_hal_gpio.c ****         temp &= ~(GPIO_OSPEEDR_OSPEED0 << (position * 2u));
 192:Drivers/STM32L4xx_HAL_Driver/Src/stm32l4xx_hal_gpio.c ****         temp |= (GPIO_Init->Speed << (position * 2u));
 193:Drivers/STM32L4xx_HAL_Driver/Src/stm32l4xx_hal_gpio.c ****         GPIOx->OSPEEDR = temp;
 194:Drivers/STM32L4xx_HAL_Driver/Src/stm32l4xx_hal_gpio.c **** 
 195:Drivers/STM32L4xx_HAL_Driver/Src/stm32l4xx_hal_gpio.c ****         /* Configure the IO Output Type */
 196:Drivers/STM32L4xx_HAL_Driver/Src/stm32l4xx_hal_gpio.c ****         temp = GPIOx->OTYPER;
 197:Drivers/STM32L4xx_HAL_Driver/Src/stm32l4xx_hal_gpio.c ****         temp &= ~(GPIO_OTYPER_OT0 << position) ;
 198:Drivers/STM32L4xx_HAL_Driver/Src/stm32l4xx_hal_gpio.c ****         temp |= (((GPIO_Init->Mode & OUTPUT_TYPE) >> OUTPUT_TYPE_Pos) << position);
 199:Drivers/STM32L4xx_HAL_Driver/Src/stm32l4xx_hal_gpio.c ****         GPIOx->OTYPER = temp;
 200:Drivers/STM32L4xx_HAL_Driver/Src/stm32l4xx_hal_gpio.c ****       }
 201:Drivers/STM32L4xx_HAL_Driver/Src/stm32l4xx_hal_gpio.c **** 
 202:Drivers/STM32L4xx_HAL_Driver/Src/stm32l4xx_hal_gpio.c **** #if defined(STM32L471xx) || defined(STM32L475xx) || defined(STM32L476xx) || defined(STM32L485xx) ||
ARM GAS  C:\Users\mathi\AppData\Local\Temp\ccmITq2K.s 			page 7


 203:Drivers/STM32L4xx_HAL_Driver/Src/stm32l4xx_hal_gpio.c **** 
 204:Drivers/STM32L4xx_HAL_Driver/Src/stm32l4xx_hal_gpio.c ****       /* In case of Analog mode, check if ADC control mode is selected */
 205:Drivers/STM32L4xx_HAL_Driver/Src/stm32l4xx_hal_gpio.c ****       if((GPIO_Init->Mode & GPIO_MODE_ANALOG) == GPIO_MODE_ANALOG)
 206:Drivers/STM32L4xx_HAL_Driver/Src/stm32l4xx_hal_gpio.c ****       {
 207:Drivers/STM32L4xx_HAL_Driver/Src/stm32l4xx_hal_gpio.c ****         /* Configure the IO Output Type */
 208:Drivers/STM32L4xx_HAL_Driver/Src/stm32l4xx_hal_gpio.c ****         temp = GPIOx->ASCR;
 209:Drivers/STM32L4xx_HAL_Driver/Src/stm32l4xx_hal_gpio.c ****         temp &= ~(GPIO_ASCR_ASC0 << position) ;
 210:Drivers/STM32L4xx_HAL_Driver/Src/stm32l4xx_hal_gpio.c ****         temp |= (((GPIO_Init->Mode & GPIO_MODE_ANALOG_ADC_CONTROL) >> 3) << position);
 211:Drivers/STM32L4xx_HAL_Driver/Src/stm32l4xx_hal_gpio.c ****         GPIOx->ASCR = temp;
 212:Drivers/STM32L4xx_HAL_Driver/Src/stm32l4xx_hal_gpio.c ****       }
 213:Drivers/STM32L4xx_HAL_Driver/Src/stm32l4xx_hal_gpio.c **** 
 214:Drivers/STM32L4xx_HAL_Driver/Src/stm32l4xx_hal_gpio.c **** #endif /* STM32L471xx || STM32L475xx || STM32L476xx || STM32L485xx || STM32L486xx */
 215:Drivers/STM32L4xx_HAL_Driver/Src/stm32l4xx_hal_gpio.c **** 
 216:Drivers/STM32L4xx_HAL_Driver/Src/stm32l4xx_hal_gpio.c ****       /* Activate the Pull-up or Pull down resistor for the current IO */
 217:Drivers/STM32L4xx_HAL_Driver/Src/stm32l4xx_hal_gpio.c ****       if ((GPIO_Init->Mode & GPIO_MODE) != MODE_ANALOG)
 218:Drivers/STM32L4xx_HAL_Driver/Src/stm32l4xx_hal_gpio.c ****       {
 219:Drivers/STM32L4xx_HAL_Driver/Src/stm32l4xx_hal_gpio.c ****         /* Check the Pull parameter */
 220:Drivers/STM32L4xx_HAL_Driver/Src/stm32l4xx_hal_gpio.c ****         assert_param(IS_GPIO_PULL(GPIO_Init->Pull));
 221:Drivers/STM32L4xx_HAL_Driver/Src/stm32l4xx_hal_gpio.c **** 
 222:Drivers/STM32L4xx_HAL_Driver/Src/stm32l4xx_hal_gpio.c ****         temp = GPIOx->PUPDR;
 223:Drivers/STM32L4xx_HAL_Driver/Src/stm32l4xx_hal_gpio.c ****         temp &= ~(GPIO_PUPDR_PUPD0 << (position * 2U));
 224:Drivers/STM32L4xx_HAL_Driver/Src/stm32l4xx_hal_gpio.c ****         temp |= ((GPIO_Init->Pull) << (position * 2U));
 225:Drivers/STM32L4xx_HAL_Driver/Src/stm32l4xx_hal_gpio.c ****         GPIOx->PUPDR = temp;
 226:Drivers/STM32L4xx_HAL_Driver/Src/stm32l4xx_hal_gpio.c ****       }
 227:Drivers/STM32L4xx_HAL_Driver/Src/stm32l4xx_hal_gpio.c **** 
 228:Drivers/STM32L4xx_HAL_Driver/Src/stm32l4xx_hal_gpio.c ****       /* In case of Alternate function mode selection */
 229:Drivers/STM32L4xx_HAL_Driver/Src/stm32l4xx_hal_gpio.c ****       if ((GPIO_Init->Mode & GPIO_MODE) == MODE_AF)
 230:Drivers/STM32L4xx_HAL_Driver/Src/stm32l4xx_hal_gpio.c ****       {
 231:Drivers/STM32L4xx_HAL_Driver/Src/stm32l4xx_hal_gpio.c ****         /* Check the Alternate function parameters */
 232:Drivers/STM32L4xx_HAL_Driver/Src/stm32l4xx_hal_gpio.c ****         assert_param(IS_GPIO_AF_INSTANCE(GPIOx));
 233:Drivers/STM32L4xx_HAL_Driver/Src/stm32l4xx_hal_gpio.c ****         assert_param(IS_GPIO_AF(GPIO_Init->Alternate));
 234:Drivers/STM32L4xx_HAL_Driver/Src/stm32l4xx_hal_gpio.c **** 
 235:Drivers/STM32L4xx_HAL_Driver/Src/stm32l4xx_hal_gpio.c ****         /* Configure Alternate function mapped with the current IO */
 236:Drivers/STM32L4xx_HAL_Driver/Src/stm32l4xx_hal_gpio.c ****         temp = GPIOx->AFR[position >> 3u];
 237:Drivers/STM32L4xx_HAL_Driver/Src/stm32l4xx_hal_gpio.c ****         temp &= ~(0xFu << ((position & 0x07u) * 4u));
 238:Drivers/STM32L4xx_HAL_Driver/Src/stm32l4xx_hal_gpio.c ****         temp |= ((GPIO_Init->Alternate) << ((position & 0x07u) * 4u));
 239:Drivers/STM32L4xx_HAL_Driver/Src/stm32l4xx_hal_gpio.c ****         GPIOx->AFR[position >> 3u] = temp;
 240:Drivers/STM32L4xx_HAL_Driver/Src/stm32l4xx_hal_gpio.c ****       }
 241:Drivers/STM32L4xx_HAL_Driver/Src/stm32l4xx_hal_gpio.c **** 
 242:Drivers/STM32L4xx_HAL_Driver/Src/stm32l4xx_hal_gpio.c ****       /* Configure IO Direction mode (Input, Output, Alternate or Analog) */
 243:Drivers/STM32L4xx_HAL_Driver/Src/stm32l4xx_hal_gpio.c ****       temp = GPIOx->MODER;
 244:Drivers/STM32L4xx_HAL_Driver/Src/stm32l4xx_hal_gpio.c ****       temp &= ~(GPIO_MODER_MODE0 << (position * 2u));
 245:Drivers/STM32L4xx_HAL_Driver/Src/stm32l4xx_hal_gpio.c ****       temp |= ((GPIO_Init->Mode & GPIO_MODE) << (position * 2u));
 246:Drivers/STM32L4xx_HAL_Driver/Src/stm32l4xx_hal_gpio.c ****       GPIOx->MODER = temp;
 247:Drivers/STM32L4xx_HAL_Driver/Src/stm32l4xx_hal_gpio.c **** 
 248:Drivers/STM32L4xx_HAL_Driver/Src/stm32l4xx_hal_gpio.c ****       /*--------------------- EXTI Mode Configuration ------------------------*/
 249:Drivers/STM32L4xx_HAL_Driver/Src/stm32l4xx_hal_gpio.c ****       /* Configure the External Interrupt or event for the current IO */
 250:Drivers/STM32L4xx_HAL_Driver/Src/stm32l4xx_hal_gpio.c ****       if ((GPIO_Init->Mode & EXTI_MODE) != 0x00u)
 251:Drivers/STM32L4xx_HAL_Driver/Src/stm32l4xx_hal_gpio.c ****       {
 252:Drivers/STM32L4xx_HAL_Driver/Src/stm32l4xx_hal_gpio.c ****         /* Enable SYSCFG Clock */
 253:Drivers/STM32L4xx_HAL_Driver/Src/stm32l4xx_hal_gpio.c ****         __HAL_RCC_SYSCFG_CLK_ENABLE();
 254:Drivers/STM32L4xx_HAL_Driver/Src/stm32l4xx_hal_gpio.c **** 
 255:Drivers/STM32L4xx_HAL_Driver/Src/stm32l4xx_hal_gpio.c ****         temp = SYSCFG->EXTICR[position >> 2u];
 256:Drivers/STM32L4xx_HAL_Driver/Src/stm32l4xx_hal_gpio.c ****         temp &= ~(0x0FuL << (4u * (position & 0x03u)));
 257:Drivers/STM32L4xx_HAL_Driver/Src/stm32l4xx_hal_gpio.c ****         temp |= (GPIO_GET_INDEX(GPIOx) << (4u * (position & 0x03u)));
 138              		.loc 1 257 18 discriminator 9 view .LVU19
 139 009a 0025     		movs	r5, #0
ARM GAS  C:\Users\mathi\AppData\Local\Temp\ccmITq2K.s 			page 8


 140 009c 8EE0     		b	.L23
 141              	.LVL7:
 142              	.L34:
 187:Drivers/STM32L4xx_HAL_Driver/Src/stm32l4xx_hal_gpio.c **** 
 143              		.loc 1 187 9 is_stmt 1 view .LVU20
 144 009e E368     		ldr	r3, [r4, #12]
 145 00a0 032B     		cmp	r3, #3
 146 00a2 17D8     		bhi	.L31
 147              	.L12:
 190:Drivers/STM32L4xx_HAL_Driver/Src/stm32l4xx_hal_gpio.c ****         temp &= ~(GPIO_OSPEEDR_OSPEED0 << (position * 2u));
 148              		.loc 1 190 9 view .LVU21
 190:Drivers/STM32L4xx_HAL_Driver/Src/stm32l4xx_hal_gpio.c ****         temp &= ~(GPIO_OSPEEDR_OSPEED0 << (position * 2u));
 149              		.loc 1 190 14 is_stmt 0 view .LVU22
 150 00a4 D8F80820 		ldr	r2, [r8, #8]
 151              	.LVL8:
 191:Drivers/STM32L4xx_HAL_Driver/Src/stm32l4xx_hal_gpio.c ****         temp |= (GPIO_Init->Speed << (position * 2u));
 152              		.loc 1 191 9 is_stmt 1 view .LVU23
 191:Drivers/STM32L4xx_HAL_Driver/Src/stm32l4xx_hal_gpio.c ****         temp |= (GPIO_Init->Speed << (position * 2u));
 153              		.loc 1 191 53 is_stmt 0 view .LVU24
 154 00a8 6900     		lsls	r1, r5, #1
 191:Drivers/STM32L4xx_HAL_Driver/Src/stm32l4xx_hal_gpio.c ****         temp |= (GPIO_Init->Speed << (position * 2u));
 155              		.loc 1 191 40 view .LVU25
 156 00aa 0323     		movs	r3, #3
 157 00ac 8B40     		lsls	r3, r3, r1
 191:Drivers/STM32L4xx_HAL_Driver/Src/stm32l4xx_hal_gpio.c ****         temp |= (GPIO_Init->Speed << (position * 2u));
 158              		.loc 1 191 14 view .LVU26
 159 00ae 22EA0302 		bic	r2, r2, r3
 160              	.LVL9:
 192:Drivers/STM32L4xx_HAL_Driver/Src/stm32l4xx_hal_gpio.c ****         GPIOx->OSPEEDR = temp;
 161              		.loc 1 192 9 is_stmt 1 view .LVU27
 192:Drivers/STM32L4xx_HAL_Driver/Src/stm32l4xx_hal_gpio.c ****         GPIOx->OSPEEDR = temp;
 162              		.loc 1 192 27 is_stmt 0 view .LVU28
 163 00b2 E368     		ldr	r3, [r4, #12]
 192:Drivers/STM32L4xx_HAL_Driver/Src/stm32l4xx_hal_gpio.c ****         GPIOx->OSPEEDR = temp;
 164              		.loc 1 192 35 view .LVU29
 165 00b4 8B40     		lsls	r3, r3, r1
 192:Drivers/STM32L4xx_HAL_Driver/Src/stm32l4xx_hal_gpio.c ****         GPIOx->OSPEEDR = temp;
 166              		.loc 1 192 14 view .LVU30
 167 00b6 1343     		orrs	r3, r3, r2
 168              	.LVL10:
 193:Drivers/STM32L4xx_HAL_Driver/Src/stm32l4xx_hal_gpio.c **** 
 169              		.loc 1 193 9 is_stmt 1 view .LVU31
 193:Drivers/STM32L4xx_HAL_Driver/Src/stm32l4xx_hal_gpio.c **** 
 170              		.loc 1 193 24 is_stmt 0 view .LVU32
 171 00b8 C8F80830 		str	r3, [r8, #8]
 196:Drivers/STM32L4xx_HAL_Driver/Src/stm32l4xx_hal_gpio.c ****         temp &= ~(GPIO_OTYPER_OT0 << position) ;
 172              		.loc 1 196 9 is_stmt 1 view .LVU33
 196:Drivers/STM32L4xx_HAL_Driver/Src/stm32l4xx_hal_gpio.c ****         temp &= ~(GPIO_OTYPER_OT0 << position) ;
 173              		.loc 1 196 14 is_stmt 0 view .LVU34
 174 00bc D8F80420 		ldr	r2, [r8, #4]
 175              	.LVL11:
 197:Drivers/STM32L4xx_HAL_Driver/Src/stm32l4xx_hal_gpio.c ****         temp |= (((GPIO_Init->Mode & OUTPUT_TYPE) >> OUTPUT_TYPE_Pos) << position);
 176              		.loc 1 197 9 is_stmt 1 view .LVU35
 197:Drivers/STM32L4xx_HAL_Driver/Src/stm32l4xx_hal_gpio.c ****         temp |= (((GPIO_Init->Mode & OUTPUT_TYPE) >> OUTPUT_TYPE_Pos) << position);
 177              		.loc 1 197 14 is_stmt 0 view .LVU36
 178 00c0 22EA0702 		bic	r2, r2, r7
 179              	.LVL12:
ARM GAS  C:\Users\mathi\AppData\Local\Temp\ccmITq2K.s 			page 9


 198:Drivers/STM32L4xx_HAL_Driver/Src/stm32l4xx_hal_gpio.c ****         GPIOx->OTYPER = temp;
 180              		.loc 1 198 9 is_stmt 1 view .LVU37
 198:Drivers/STM32L4xx_HAL_Driver/Src/stm32l4xx_hal_gpio.c ****         GPIOx->OTYPER = temp;
 181              		.loc 1 198 29 is_stmt 0 view .LVU38
 182 00c4 6368     		ldr	r3, [r4, #4]
 198:Drivers/STM32L4xx_HAL_Driver/Src/stm32l4xx_hal_gpio.c ****         GPIOx->OTYPER = temp;
 183              		.loc 1 198 51 view .LVU39
 184 00c6 C3F30013 		ubfx	r3, r3, #4, #1
 198:Drivers/STM32L4xx_HAL_Driver/Src/stm32l4xx_hal_gpio.c ****         GPIOx->OTYPER = temp;
 185              		.loc 1 198 71 view .LVU40
 186 00ca AB40     		lsls	r3, r3, r5
 198:Drivers/STM32L4xx_HAL_Driver/Src/stm32l4xx_hal_gpio.c ****         GPIOx->OTYPER = temp;
 187              		.loc 1 198 14 view .LVU41
 188 00cc 1343     		orrs	r3, r3, r2
 189              	.LVL13:
 199:Drivers/STM32L4xx_HAL_Driver/Src/stm32l4xx_hal_gpio.c ****       }
 190              		.loc 1 199 9 is_stmt 1 view .LVU42
 199:Drivers/STM32L4xx_HAL_Driver/Src/stm32l4xx_hal_gpio.c ****       }
 191              		.loc 1 199 23 is_stmt 0 view .LVU43
 192 00ce C8F80430 		str	r3, [r8, #4]
 193 00d2 82E0     		b	.L11
 194              	.LVL14:
 195              	.L31:
 187:Drivers/STM32L4xx_HAL_Driver/Src/stm32l4xx_hal_gpio.c **** 
 196              		.loc 1 187 9 discriminator 1 view .LVU44
 197 00d4 BB21     		movs	r1, #187
 198 00d6 7348     		ldr	r0, .L38+4
 199 00d8 FFF7FEFF 		bl	assert_failed
 200              	.LVL15:
 201 00dc E2E7     		b	.L12
 202              	.L35:
 220:Drivers/STM32L4xx_HAL_Driver/Src/stm32l4xx_hal_gpio.c **** 
 203              		.loc 1 220 9 discriminator 1 view .LVU45
 204 00de DC21     		movs	r1, #220
 205 00e0 7048     		ldr	r0, .L38+4
 206 00e2 FFF7FEFF 		bl	assert_failed
 207              	.LVL16:
 208 00e6 81E0     		b	.L14
 209              	.L36:
 232:Drivers/STM32L4xx_HAL_Driver/Src/stm32l4xx_hal_gpio.c ****         assert_param(IS_GPIO_AF(GPIO_Init->Alternate));
 210              		.loc 1 232 9 is_stmt 1 view .LVU46
 211 00e8 B8F1904F 		cmp	r8, #1207959552
 212 00ec 16D0     		beq	.L16
 232:Drivers/STM32L4xx_HAL_Driver/Src/stm32l4xx_hal_gpio.c ****         assert_param(IS_GPIO_AF(GPIO_Init->Alternate));
 213              		.loc 1 232 9 is_stmt 0 discriminator 1 view .LVU47
 214 00ee 6C4B     		ldr	r3, .L38
 215 00f0 9845     		cmp	r8, r3
 216 00f2 13D0     		beq	.L16
 232:Drivers/STM32L4xx_HAL_Driver/Src/stm32l4xx_hal_gpio.c ****         assert_param(IS_GPIO_AF(GPIO_Init->Alternate));
 217              		.loc 1 232 9 discriminator 2 view .LVU48
 218 00f4 03F58063 		add	r3, r3, #1024
 219 00f8 9845     		cmp	r8, r3
 220 00fa 0FD0     		beq	.L16
 232:Drivers/STM32L4xx_HAL_Driver/Src/stm32l4xx_hal_gpio.c ****         assert_param(IS_GPIO_AF(GPIO_Init->Alternate));
 221              		.loc 1 232 9 discriminator 3 view .LVU49
 222 00fc 03F58063 		add	r3, r3, #1024
 223 0100 9845     		cmp	r8, r3
ARM GAS  C:\Users\mathi\AppData\Local\Temp\ccmITq2K.s 			page 10


 224 0102 0BD0     		beq	.L16
 232:Drivers/STM32L4xx_HAL_Driver/Src/stm32l4xx_hal_gpio.c ****         assert_param(IS_GPIO_AF(GPIO_Init->Alternate));
 225              		.loc 1 232 9 discriminator 4 view .LVU50
 226 0104 03F58063 		add	r3, r3, #1024
 227 0108 9845     		cmp	r8, r3
 228 010a 07D0     		beq	.L16
 232:Drivers/STM32L4xx_HAL_Driver/Src/stm32l4xx_hal_gpio.c ****         assert_param(IS_GPIO_AF(GPIO_Init->Alternate));
 229              		.loc 1 232 9 discriminator 5 view .LVU51
 230 010c 03F54063 		add	r3, r3, #3072
 231 0110 9845     		cmp	r8, r3
 232 0112 03D0     		beq	.L16
 232:Drivers/STM32L4xx_HAL_Driver/Src/stm32l4xx_hal_gpio.c ****         assert_param(IS_GPIO_AF(GPIO_Init->Alternate));
 233              		.loc 1 232 9 discriminator 6 view .LVU52
 234 0114 E821     		movs	r1, #232
 235 0116 6348     		ldr	r0, .L38+4
 236 0118 FFF7FEFF 		bl	assert_failed
 237              	.LVL17:
 238              	.L16:
 233:Drivers/STM32L4xx_HAL_Driver/Src/stm32l4xx_hal_gpio.c **** 
 239              		.loc 1 233 9 is_stmt 1 view .LVU53
 240 011c 2369     		ldr	r3, [r4, #16]
 241 011e 0F2B     		cmp	r3, #15
 242 0120 10D8     		bhi	.L32
 243              	.L17:
 236:Drivers/STM32L4xx_HAL_Driver/Src/stm32l4xx_hal_gpio.c ****         temp &= ~(0xFu << ((position & 0x07u) * 4u));
 244              		.loc 1 236 9 view .LVU54
 236:Drivers/STM32L4xx_HAL_Driver/Src/stm32l4xx_hal_gpio.c ****         temp &= ~(0xFu << ((position & 0x07u) * 4u));
 245              		.loc 1 236 36 is_stmt 0 view .LVU55
 246 0122 EA08     		lsrs	r2, r5, #3
 236:Drivers/STM32L4xx_HAL_Driver/Src/stm32l4xx_hal_gpio.c ****         temp &= ~(0xFu << ((position & 0x07u) * 4u));
 247              		.loc 1 236 14 view .LVU56
 248 0124 0832     		adds	r2, r2, #8
 249 0126 58F82200 		ldr	r0, [r8, r2, lsl #2]
 250              	.LVL18:
 237:Drivers/STM32L4xx_HAL_Driver/Src/stm32l4xx_hal_gpio.c ****         temp |= ((GPIO_Init->Alternate) << ((position & 0x07u) * 4u));
 251              		.loc 1 237 9 is_stmt 1 view .LVU57
 237:Drivers/STM32L4xx_HAL_Driver/Src/stm32l4xx_hal_gpio.c ****         temp |= ((GPIO_Init->Alternate) << ((position & 0x07u) * 4u));
 252              		.loc 1 237 38 is_stmt 0 view .LVU58
 253 012a 05F00701 		and	r1, r5, #7
 237:Drivers/STM32L4xx_HAL_Driver/Src/stm32l4xx_hal_gpio.c ****         temp |= ((GPIO_Init->Alternate) << ((position & 0x07u) * 4u));
 254              		.loc 1 237 47 view .LVU59
 255 012e 8900     		lsls	r1, r1, #2
 237:Drivers/STM32L4xx_HAL_Driver/Src/stm32l4xx_hal_gpio.c ****         temp |= ((GPIO_Init->Alternate) << ((position & 0x07u) * 4u));
 256              		.loc 1 237 24 view .LVU60
 257 0130 0F23     		movs	r3, #15
 258 0132 8B40     		lsls	r3, r3, r1
 237:Drivers/STM32L4xx_HAL_Driver/Src/stm32l4xx_hal_gpio.c ****         temp |= ((GPIO_Init->Alternate) << ((position & 0x07u) * 4u));
 259              		.loc 1 237 14 view .LVU61
 260 0134 20EA0300 		bic	r0, r0, r3
 261              	.LVL19:
 238:Drivers/STM32L4xx_HAL_Driver/Src/stm32l4xx_hal_gpio.c ****         GPIOx->AFR[position >> 3u] = temp;
 262              		.loc 1 238 9 is_stmt 1 view .LVU62
 238:Drivers/STM32L4xx_HAL_Driver/Src/stm32l4xx_hal_gpio.c ****         GPIOx->AFR[position >> 3u] = temp;
 263              		.loc 1 238 28 is_stmt 0 view .LVU63
 264 0138 2369     		ldr	r3, [r4, #16]
 238:Drivers/STM32L4xx_HAL_Driver/Src/stm32l4xx_hal_gpio.c ****         GPIOx->AFR[position >> 3u] = temp;
 265              		.loc 1 238 41 view .LVU64
ARM GAS  C:\Users\mathi\AppData\Local\Temp\ccmITq2K.s 			page 11


 266 013a 8B40     		lsls	r3, r3, r1
 238:Drivers/STM32L4xx_HAL_Driver/Src/stm32l4xx_hal_gpio.c ****         GPIOx->AFR[position >> 3u] = temp;
 267              		.loc 1 238 14 view .LVU65
 268 013c 0343     		orrs	r3, r3, r0
 269              	.LVL20:
 239:Drivers/STM32L4xx_HAL_Driver/Src/stm32l4xx_hal_gpio.c ****       }
 270              		.loc 1 239 9 is_stmt 1 view .LVU66
 239:Drivers/STM32L4xx_HAL_Driver/Src/stm32l4xx_hal_gpio.c ****       }
 271              		.loc 1 239 36 is_stmt 0 view .LVU67
 272 013e 48F82230 		str	r3, [r8, r2, lsl #2]
 273 0142 65E0     		b	.L15
 274              	.LVL21:
 275              	.L32:
 233:Drivers/STM32L4xx_HAL_Driver/Src/stm32l4xx_hal_gpio.c **** 
 276              		.loc 1 233 9 discriminator 1 view .LVU68
 277 0144 E921     		movs	r1, #233
 278 0146 5748     		ldr	r0, .L38+4
 279 0148 FFF7FEFF 		bl	assert_failed
 280              	.LVL22:
 281 014c E9E7     		b	.L17
 282              	.LVL23:
 283              	.L37:
 284              		.loc 1 257 18 discriminator 9 view .LVU69
 285 014e 0423     		movs	r3, #4
 286 0150 00E0     		b	.L18
 287              	.L25:
 288              		.loc 1 257 18 discriminator 2 view .LVU70
 289 0152 0023     		movs	r3, #0
 290              	.L18:
 291              		.loc 1 257 40 discriminator 20 view .LVU71
 292 0154 8B40     		lsls	r3, r3, r1
 293              		.loc 1 257 14 discriminator 20 view .LVU72
 294 0156 0343     		orrs	r3, r3, r0
 295              	.LVL24:
 258:Drivers/STM32L4xx_HAL_Driver/Src/stm32l4xx_hal_gpio.c ****         SYSCFG->EXTICR[position >> 2u] = temp;
 296              		.loc 1 258 9 is_stmt 1 view .LVU73
 297              		.loc 1 258 40 is_stmt 0 view .LVU74
 298 0158 0232     		adds	r2, r2, #2
 299 015a 5449     		ldr	r1, .L38+12
 300 015c 41F82230 		str	r3, [r1, r2, lsl #2]
 259:Drivers/STM32L4xx_HAL_Driver/Src/stm32l4xx_hal_gpio.c **** 
 260:Drivers/STM32L4xx_HAL_Driver/Src/stm32l4xx_hal_gpio.c ****         /* Clear Rising Falling edge configuration */
 261:Drivers/STM32L4xx_HAL_Driver/Src/stm32l4xx_hal_gpio.c ****         temp = EXTI->RTSR1;
 301              		.loc 1 261 9 is_stmt 1 view .LVU75
 302              		.loc 1 261 14 is_stmt 0 view .LVU76
 303 0160 534B     		ldr	r3, .L38+16
 304              	.LVL25:
 305              		.loc 1 261 14 view .LVU77
 306 0162 9A68     		ldr	r2, [r3, #8]
 307              	.LVL26:
 262:Drivers/STM32L4xx_HAL_Driver/Src/stm32l4xx_hal_gpio.c ****         temp &= ~(iocurrent);
 308              		.loc 1 262 9 is_stmt 1 view .LVU78
 309              		.loc 1 262 17 is_stmt 0 view .LVU79
 310 0164 F343     		mvns	r3, r6
 311              		.loc 1 262 14 view .LVU80
 312 0166 22EA0601 		bic	r1, r2, r6
 313              	.LVL27:
ARM GAS  C:\Users\mathi\AppData\Local\Temp\ccmITq2K.s 			page 12


 263:Drivers/STM32L4xx_HAL_Driver/Src/stm32l4xx_hal_gpio.c ****         if ((GPIO_Init->Mode & TRIGGER_RISING) != 0x00u)
 314              		.loc 1 263 9 is_stmt 1 view .LVU81
 315              		.loc 1 263 23 is_stmt 0 view .LVU82
 316 016a 6068     		ldr	r0, [r4, #4]
 317              		.loc 1 263 12 view .LVU83
 318 016c 10F4801F 		tst	r0, #1048576
 319 0170 01D0     		beq	.L19
 264:Drivers/STM32L4xx_HAL_Driver/Src/stm32l4xx_hal_gpio.c ****         {
 265:Drivers/STM32L4xx_HAL_Driver/Src/stm32l4xx_hal_gpio.c ****           temp |= iocurrent;
 320              		.loc 1 265 11 is_stmt 1 view .LVU84
 321              		.loc 1 265 16 is_stmt 0 view .LVU85
 322 0172 46EA0201 		orr	r1, r6, r2
 323              	.LVL28:
 324              	.L19:
 266:Drivers/STM32L4xx_HAL_Driver/Src/stm32l4xx_hal_gpio.c ****         }
 267:Drivers/STM32L4xx_HAL_Driver/Src/stm32l4xx_hal_gpio.c ****         EXTI->RTSR1 = temp;
 325              		.loc 1 267 9 is_stmt 1 view .LVU86
 326              		.loc 1 267 21 is_stmt 0 view .LVU87
 327 0176 4E4A     		ldr	r2, .L38+16
 328 0178 9160     		str	r1, [r2, #8]
 268:Drivers/STM32L4xx_HAL_Driver/Src/stm32l4xx_hal_gpio.c **** 
 269:Drivers/STM32L4xx_HAL_Driver/Src/stm32l4xx_hal_gpio.c ****         temp = EXTI->FTSR1;
 329              		.loc 1 269 9 is_stmt 1 view .LVU88
 330              		.loc 1 269 14 is_stmt 0 view .LVU89
 331 017a D268     		ldr	r2, [r2, #12]
 332              	.LVL29:
 270:Drivers/STM32L4xx_HAL_Driver/Src/stm32l4xx_hal_gpio.c ****         temp &= ~(iocurrent);
 333              		.loc 1 270 9 is_stmt 1 view .LVU90
 334              		.loc 1 270 14 is_stmt 0 view .LVU91
 335 017c 03EA0201 		and	r1, r3, r2
 336              	.LVL30:
 271:Drivers/STM32L4xx_HAL_Driver/Src/stm32l4xx_hal_gpio.c ****         if ((GPIO_Init->Mode & TRIGGER_FALLING) != 0x00u)
 337              		.loc 1 271 9 is_stmt 1 view .LVU92
 338              		.loc 1 271 23 is_stmt 0 view .LVU93
 339 0180 6068     		ldr	r0, [r4, #4]
 340              		.loc 1 271 12 view .LVU94
 341 0182 10F4001F 		tst	r0, #2097152
 342 0186 01D0     		beq	.L20
 272:Drivers/STM32L4xx_HAL_Driver/Src/stm32l4xx_hal_gpio.c ****         {
 273:Drivers/STM32L4xx_HAL_Driver/Src/stm32l4xx_hal_gpio.c ****           temp |= iocurrent;
 343              		.loc 1 273 11 is_stmt 1 view .LVU95
 344              		.loc 1 273 16 is_stmt 0 view .LVU96
 345 0188 46EA0201 		orr	r1, r6, r2
 346              	.LVL31:
 347              	.L20:
 274:Drivers/STM32L4xx_HAL_Driver/Src/stm32l4xx_hal_gpio.c ****         }
 275:Drivers/STM32L4xx_HAL_Driver/Src/stm32l4xx_hal_gpio.c ****         EXTI->FTSR1 = temp;
 348              		.loc 1 275 9 is_stmt 1 view .LVU97
 349              		.loc 1 275 21 is_stmt 0 view .LVU98
 350 018c 484A     		ldr	r2, .L38+16
 351 018e D160     		str	r1, [r2, #12]
 276:Drivers/STM32L4xx_HAL_Driver/Src/stm32l4xx_hal_gpio.c **** 
 277:Drivers/STM32L4xx_HAL_Driver/Src/stm32l4xx_hal_gpio.c ****         /* Clear EXTI line configuration */
 278:Drivers/STM32L4xx_HAL_Driver/Src/stm32l4xx_hal_gpio.c ****         temp = EXTI->EMR1;
 352              		.loc 1 278 9 is_stmt 1 view .LVU99
 353              		.loc 1 278 14 is_stmt 0 view .LVU100
 354 0190 5268     		ldr	r2, [r2, #4]
ARM GAS  C:\Users\mathi\AppData\Local\Temp\ccmITq2K.s 			page 13


 355              	.LVL32:
 279:Drivers/STM32L4xx_HAL_Driver/Src/stm32l4xx_hal_gpio.c ****         temp &= ~(iocurrent);
 356              		.loc 1 279 9 is_stmt 1 view .LVU101
 357              		.loc 1 279 14 is_stmt 0 view .LVU102
 358 0192 03EA0201 		and	r1, r3, r2
 359              	.LVL33:
 280:Drivers/STM32L4xx_HAL_Driver/Src/stm32l4xx_hal_gpio.c ****         if ((GPIO_Init->Mode & EXTI_EVT) != 0x00u)
 360              		.loc 1 280 9 is_stmt 1 view .LVU103
 361              		.loc 1 280 23 is_stmt 0 view .LVU104
 362 0196 6068     		ldr	r0, [r4, #4]
 363              		.loc 1 280 12 view .LVU105
 364 0198 10F4003F 		tst	r0, #131072
 365 019c 01D0     		beq	.L21
 281:Drivers/STM32L4xx_HAL_Driver/Src/stm32l4xx_hal_gpio.c ****         {
 282:Drivers/STM32L4xx_HAL_Driver/Src/stm32l4xx_hal_gpio.c ****           temp |= iocurrent;
 366              		.loc 1 282 11 is_stmt 1 view .LVU106
 367              		.loc 1 282 16 is_stmt 0 view .LVU107
 368 019e 46EA0201 		orr	r1, r6, r2
 369              	.LVL34:
 370              	.L21:
 283:Drivers/STM32L4xx_HAL_Driver/Src/stm32l4xx_hal_gpio.c ****         }
 284:Drivers/STM32L4xx_HAL_Driver/Src/stm32l4xx_hal_gpio.c ****         EXTI->EMR1 = temp;
 371              		.loc 1 284 9 is_stmt 1 view .LVU108
 372              		.loc 1 284 20 is_stmt 0 view .LVU109
 373 01a2 434A     		ldr	r2, .L38+16
 374 01a4 5160     		str	r1, [r2, #4]
 285:Drivers/STM32L4xx_HAL_Driver/Src/stm32l4xx_hal_gpio.c **** 
 286:Drivers/STM32L4xx_HAL_Driver/Src/stm32l4xx_hal_gpio.c ****         temp = EXTI->IMR1;
 375              		.loc 1 286 9 is_stmt 1 view .LVU110
 376              		.loc 1 286 14 is_stmt 0 view .LVU111
 377 01a6 1268     		ldr	r2, [r2]
 378              	.LVL35:
 287:Drivers/STM32L4xx_HAL_Driver/Src/stm32l4xx_hal_gpio.c ****         temp &= ~(iocurrent);
 379              		.loc 1 287 9 is_stmt 1 view .LVU112
 380              		.loc 1 287 14 is_stmt 0 view .LVU113
 381 01a8 1340     		ands	r3, r3, r2
 382              	.LVL36:
 288:Drivers/STM32L4xx_HAL_Driver/Src/stm32l4xx_hal_gpio.c ****         if ((GPIO_Init->Mode & EXTI_IT) != 0x00u)
 383              		.loc 1 288 9 is_stmt 1 view .LVU114
 384              		.loc 1 288 23 is_stmt 0 view .LVU115
 385 01aa 6168     		ldr	r1, [r4, #4]
 386              		.loc 1 288 12 view .LVU116
 387 01ac 11F4803F 		tst	r1, #65536
 388 01b0 01D0     		beq	.L22
 289:Drivers/STM32L4xx_HAL_Driver/Src/stm32l4xx_hal_gpio.c ****         {
 290:Drivers/STM32L4xx_HAL_Driver/Src/stm32l4xx_hal_gpio.c ****           temp |= iocurrent;
 389              		.loc 1 290 11 is_stmt 1 view .LVU117
 390              		.loc 1 290 16 is_stmt 0 view .LVU118
 391 01b2 46EA0203 		orr	r3, r6, r2
 392              	.LVL37:
 393              	.L22:
 291:Drivers/STM32L4xx_HAL_Driver/Src/stm32l4xx_hal_gpio.c ****         }
 292:Drivers/STM32L4xx_HAL_Driver/Src/stm32l4xx_hal_gpio.c ****         EXTI->IMR1 = temp;
 394              		.loc 1 292 9 is_stmt 1 view .LVU119
 395              		.loc 1 292 20 is_stmt 0 view .LVU120
 396 01b6 3E4A     		ldr	r2, .L38+16
 397 01b8 1360     		str	r3, [r2]
ARM GAS  C:\Users\mathi\AppData\Local\Temp\ccmITq2K.s 			page 14


 398              	.LVL38:
 399              	.L10:
 293:Drivers/STM32L4xx_HAL_Driver/Src/stm32l4xx_hal_gpio.c ****       }
 294:Drivers/STM32L4xx_HAL_Driver/Src/stm32l4xx_hal_gpio.c ****     }
 295:Drivers/STM32L4xx_HAL_Driver/Src/stm32l4xx_hal_gpio.c **** 
 296:Drivers/STM32L4xx_HAL_Driver/Src/stm32l4xx_hal_gpio.c ****     position++;
 400              		.loc 1 296 5 is_stmt 1 view .LVU121
 401              		.loc 1 296 13 is_stmt 0 view .LVU122
 402 01ba 0135     		adds	r5, r5, #1
 403              	.LVL39:
 404              	.L23:
 175:Drivers/STM32L4xx_HAL_Driver/Src/stm32l4xx_hal_gpio.c ****   {
 405              		.loc 1 175 41 is_stmt 1 view .LVU123
 175:Drivers/STM32L4xx_HAL_Driver/Src/stm32l4xx_hal_gpio.c ****   {
 406              		.loc 1 175 21 is_stmt 0 view .LVU124
 407 01bc 2668     		ldr	r6, [r4]
 175:Drivers/STM32L4xx_HAL_Driver/Src/stm32l4xx_hal_gpio.c ****   {
 408              		.loc 1 175 41 view .LVU125
 409 01be 36FA05F2 		lsrs	r2, r6, r5
 410 01c2 69D0     		beq	.L33
 178:Drivers/STM32L4xx_HAL_Driver/Src/stm32l4xx_hal_gpio.c **** 
 411              		.loc 1 178 5 is_stmt 1 view .LVU126
 178:Drivers/STM32L4xx_HAL_Driver/Src/stm32l4xx_hal_gpio.c **** 
 412              		.loc 1 178 41 is_stmt 0 view .LVU127
 413 01c4 0127     		movs	r7, #1
 414 01c6 AF40     		lsls	r7, r7, r5
 415              	.LVL40:
 180:Drivers/STM32L4xx_HAL_Driver/Src/stm32l4xx_hal_gpio.c ****     {
 416              		.loc 1 180 5 is_stmt 1 view .LVU128
 180:Drivers/STM32L4xx_HAL_Driver/Src/stm32l4xx_hal_gpio.c ****     {
 417              		.loc 1 180 8 is_stmt 0 view .LVU129
 418 01c8 3E40     		ands	r6, r7, r6
 419              	.LVL41:
 180:Drivers/STM32L4xx_HAL_Driver/Src/stm32l4xx_hal_gpio.c ****     {
 420              		.loc 1 180 8 view .LVU130
 421 01ca F6D0     		beq	.L10
 184:Drivers/STM32L4xx_HAL_Driver/Src/stm32l4xx_hal_gpio.c ****       {
 422              		.loc 1 184 7 is_stmt 1 view .LVU131
 184:Drivers/STM32L4xx_HAL_Driver/Src/stm32l4xx_hal_gpio.c ****       {
 423              		.loc 1 184 22 is_stmt 0 view .LVU132
 424 01cc 6368     		ldr	r3, [r4, #4]
 184:Drivers/STM32L4xx_HAL_Driver/Src/stm32l4xx_hal_gpio.c ****       {
 425              		.loc 1 184 29 view .LVU133
 426 01ce 03F00303 		and	r3, r3, #3
 184:Drivers/STM32L4xx_HAL_Driver/Src/stm32l4xx_hal_gpio.c ****       {
 427              		.loc 1 184 58 view .LVU134
 428 01d2 013B     		subs	r3, r3, #1
 184:Drivers/STM32L4xx_HAL_Driver/Src/stm32l4xx_hal_gpio.c ****       {
 429              		.loc 1 184 10 view .LVU135
 430 01d4 012B     		cmp	r3, #1
 431 01d6 7FF662AF 		bls	.L34
 432              	.L11:
 217:Drivers/STM32L4xx_HAL_Driver/Src/stm32l4xx_hal_gpio.c ****       {
 433              		.loc 1 217 7 is_stmt 1 view .LVU136
 217:Drivers/STM32L4xx_HAL_Driver/Src/stm32l4xx_hal_gpio.c ****       {
 434              		.loc 1 217 21 is_stmt 0 view .LVU137
 435 01da 6368     		ldr	r3, [r4, #4]
ARM GAS  C:\Users\mathi\AppData\Local\Temp\ccmITq2K.s 			page 15


 217:Drivers/STM32L4xx_HAL_Driver/Src/stm32l4xx_hal_gpio.c ****       {
 436              		.loc 1 217 28 view .LVU138
 437 01dc 03F00303 		and	r3, r3, #3
 217:Drivers/STM32L4xx_HAL_Driver/Src/stm32l4xx_hal_gpio.c ****       {
 438              		.loc 1 217 10 view .LVU139
 439 01e0 032B     		cmp	r3, #3
 440 01e2 0FD0     		beq	.L13
 220:Drivers/STM32L4xx_HAL_Driver/Src/stm32l4xx_hal_gpio.c **** 
 441              		.loc 1 220 9 is_stmt 1 view .LVU140
 442 01e4 A368     		ldr	r3, [r4, #8]
 443 01e6 022B     		cmp	r3, #2
 444 01e8 3FF679AF 		bhi	.L35
 445              	.L14:
 222:Drivers/STM32L4xx_HAL_Driver/Src/stm32l4xx_hal_gpio.c ****         temp &= ~(GPIO_PUPDR_PUPD0 << (position * 2U));
 446              		.loc 1 222 9 view .LVU141
 222:Drivers/STM32L4xx_HAL_Driver/Src/stm32l4xx_hal_gpio.c ****         temp &= ~(GPIO_PUPDR_PUPD0 << (position * 2U));
 447              		.loc 1 222 14 is_stmt 0 view .LVU142
 448 01ec D8F80C20 		ldr	r2, [r8, #12]
 449              	.LVL42:
 223:Drivers/STM32L4xx_HAL_Driver/Src/stm32l4xx_hal_gpio.c ****         temp |= ((GPIO_Init->Pull) << (position * 2U));
 450              		.loc 1 223 9 is_stmt 1 view .LVU143
 223:Drivers/STM32L4xx_HAL_Driver/Src/stm32l4xx_hal_gpio.c ****         temp |= ((GPIO_Init->Pull) << (position * 2U));
 451              		.loc 1 223 49 is_stmt 0 view .LVU144
 452 01f0 6900     		lsls	r1, r5, #1
 223:Drivers/STM32L4xx_HAL_Driver/Src/stm32l4xx_hal_gpio.c ****         temp |= ((GPIO_Init->Pull) << (position * 2U));
 453              		.loc 1 223 36 view .LVU145
 454 01f2 0323     		movs	r3, #3
 455 01f4 8B40     		lsls	r3, r3, r1
 223:Drivers/STM32L4xx_HAL_Driver/Src/stm32l4xx_hal_gpio.c ****         temp |= ((GPIO_Init->Pull) << (position * 2U));
 456              		.loc 1 223 14 view .LVU146
 457 01f6 22EA0302 		bic	r2, r2, r3
 458              	.LVL43:
 224:Drivers/STM32L4xx_HAL_Driver/Src/stm32l4xx_hal_gpio.c ****         GPIOx->PUPDR = temp;
 459              		.loc 1 224 9 is_stmt 1 view .LVU147
 224:Drivers/STM32L4xx_HAL_Driver/Src/stm32l4xx_hal_gpio.c ****         GPIOx->PUPDR = temp;
 460              		.loc 1 224 28 is_stmt 0 view .LVU148
 461 01fa A368     		ldr	r3, [r4, #8]
 224:Drivers/STM32L4xx_HAL_Driver/Src/stm32l4xx_hal_gpio.c ****         GPIOx->PUPDR = temp;
 462              		.loc 1 224 36 view .LVU149
 463 01fc 8B40     		lsls	r3, r3, r1
 224:Drivers/STM32L4xx_HAL_Driver/Src/stm32l4xx_hal_gpio.c ****         GPIOx->PUPDR = temp;
 464              		.loc 1 224 14 view .LVU150
 465 01fe 1343     		orrs	r3, r3, r2
 466              	.LVL44:
 225:Drivers/STM32L4xx_HAL_Driver/Src/stm32l4xx_hal_gpio.c ****       }
 467              		.loc 1 225 9 is_stmt 1 view .LVU151
 225:Drivers/STM32L4xx_HAL_Driver/Src/stm32l4xx_hal_gpio.c ****       }
 468              		.loc 1 225 22 is_stmt 0 view .LVU152
 469 0200 C8F80C30 		str	r3, [r8, #12]
 470              	.LVL45:
 471              	.L13:
 229:Drivers/STM32L4xx_HAL_Driver/Src/stm32l4xx_hal_gpio.c ****       {
 472              		.loc 1 229 7 is_stmt 1 view .LVU153
 229:Drivers/STM32L4xx_HAL_Driver/Src/stm32l4xx_hal_gpio.c ****       {
 473              		.loc 1 229 21 is_stmt 0 view .LVU154
 474 0204 6368     		ldr	r3, [r4, #4]
 229:Drivers/STM32L4xx_HAL_Driver/Src/stm32l4xx_hal_gpio.c ****       {
ARM GAS  C:\Users\mathi\AppData\Local\Temp\ccmITq2K.s 			page 16


 475              		.loc 1 229 28 view .LVU155
 476 0206 03F00303 		and	r3, r3, #3
 229:Drivers/STM32L4xx_HAL_Driver/Src/stm32l4xx_hal_gpio.c ****       {
 477              		.loc 1 229 10 view .LVU156
 478 020a 022B     		cmp	r3, #2
 479 020c 3FF46CAF 		beq	.L36
 480              	.L15:
 243:Drivers/STM32L4xx_HAL_Driver/Src/stm32l4xx_hal_gpio.c ****       temp &= ~(GPIO_MODER_MODE0 << (position * 2u));
 481              		.loc 1 243 7 is_stmt 1 view .LVU157
 243:Drivers/STM32L4xx_HAL_Driver/Src/stm32l4xx_hal_gpio.c ****       temp &= ~(GPIO_MODER_MODE0 << (position * 2u));
 482              		.loc 1 243 12 is_stmt 0 view .LVU158
 483 0210 D8F80020 		ldr	r2, [r8]
 484              	.LVL46:
 244:Drivers/STM32L4xx_HAL_Driver/Src/stm32l4xx_hal_gpio.c ****       temp |= ((GPIO_Init->Mode & GPIO_MODE) << (position * 2u));
 485              		.loc 1 244 7 is_stmt 1 view .LVU159
 244:Drivers/STM32L4xx_HAL_Driver/Src/stm32l4xx_hal_gpio.c ****       temp |= ((GPIO_Init->Mode & GPIO_MODE) << (position * 2u));
 486              		.loc 1 244 47 is_stmt 0 view .LVU160
 487 0214 6900     		lsls	r1, r5, #1
 244:Drivers/STM32L4xx_HAL_Driver/Src/stm32l4xx_hal_gpio.c ****       temp |= ((GPIO_Init->Mode & GPIO_MODE) << (position * 2u));
 488              		.loc 1 244 34 view .LVU161
 489 0216 0323     		movs	r3, #3
 490 0218 8B40     		lsls	r3, r3, r1
 244:Drivers/STM32L4xx_HAL_Driver/Src/stm32l4xx_hal_gpio.c ****       temp |= ((GPIO_Init->Mode & GPIO_MODE) << (position * 2u));
 491              		.loc 1 244 12 view .LVU162
 492 021a 22EA0302 		bic	r2, r2, r3
 493              	.LVL47:
 245:Drivers/STM32L4xx_HAL_Driver/Src/stm32l4xx_hal_gpio.c ****       GPIOx->MODER = temp;
 494              		.loc 1 245 7 is_stmt 1 view .LVU163
 245:Drivers/STM32L4xx_HAL_Driver/Src/stm32l4xx_hal_gpio.c ****       GPIOx->MODER = temp;
 495              		.loc 1 245 26 is_stmt 0 view .LVU164
 496 021e 6368     		ldr	r3, [r4, #4]
 245:Drivers/STM32L4xx_HAL_Driver/Src/stm32l4xx_hal_gpio.c ****       GPIOx->MODER = temp;
 497              		.loc 1 245 33 view .LVU165
 498 0220 03F00303 		and	r3, r3, #3
 245:Drivers/STM32L4xx_HAL_Driver/Src/stm32l4xx_hal_gpio.c ****       GPIOx->MODER = temp;
 499              		.loc 1 245 46 view .LVU166
 500 0224 8B40     		lsls	r3, r3, r1
 245:Drivers/STM32L4xx_HAL_Driver/Src/stm32l4xx_hal_gpio.c ****       GPIOx->MODER = temp;
 501              		.loc 1 245 12 view .LVU167
 502 0226 1343     		orrs	r3, r3, r2
 503              	.LVL48:
 246:Drivers/STM32L4xx_HAL_Driver/Src/stm32l4xx_hal_gpio.c **** 
 504              		.loc 1 246 7 is_stmt 1 view .LVU168
 246:Drivers/STM32L4xx_HAL_Driver/Src/stm32l4xx_hal_gpio.c **** 
 505              		.loc 1 246 20 is_stmt 0 view .LVU169
 506 0228 C8F80030 		str	r3, [r8]
 250:Drivers/STM32L4xx_HAL_Driver/Src/stm32l4xx_hal_gpio.c ****       {
 507              		.loc 1 250 7 is_stmt 1 view .LVU170
 250:Drivers/STM32L4xx_HAL_Driver/Src/stm32l4xx_hal_gpio.c ****       {
 508              		.loc 1 250 21 is_stmt 0 view .LVU171
 509 022c 6368     		ldr	r3, [r4, #4]
 510              	.LVL49:
 250:Drivers/STM32L4xx_HAL_Driver/Src/stm32l4xx_hal_gpio.c ****       {
 511              		.loc 1 250 10 view .LVU172
 512 022e 13F4403F 		tst	r3, #196608
 513 0232 C2D0     		beq	.L10
 253:Drivers/STM32L4xx_HAL_Driver/Src/stm32l4xx_hal_gpio.c **** 
ARM GAS  C:\Users\mathi\AppData\Local\Temp\ccmITq2K.s 			page 17


 514              		.loc 1 253 9 is_stmt 1 view .LVU173
 515              	.LBB2:
 253:Drivers/STM32L4xx_HAL_Driver/Src/stm32l4xx_hal_gpio.c **** 
 516              		.loc 1 253 9 view .LVU174
 253:Drivers/STM32L4xx_HAL_Driver/Src/stm32l4xx_hal_gpio.c **** 
 517              		.loc 1 253 9 view .LVU175
 518 0234 1F4B     		ldr	r3, .L38+20
 519 0236 1A6E     		ldr	r2, [r3, #96]
 520 0238 42F00102 		orr	r2, r2, #1
 521 023c 1A66     		str	r2, [r3, #96]
 522              	.LVL50:
 253:Drivers/STM32L4xx_HAL_Driver/Src/stm32l4xx_hal_gpio.c **** 
 523              		.loc 1 253 9 view .LVU176
 524 023e 1B6E     		ldr	r3, [r3, #96]
 525 0240 03F00103 		and	r3, r3, #1
 526 0244 0193     		str	r3, [sp, #4]
 253:Drivers/STM32L4xx_HAL_Driver/Src/stm32l4xx_hal_gpio.c **** 
 527              		.loc 1 253 9 view .LVU177
 528 0246 019B     		ldr	r3, [sp, #4]
 529              	.LBE2:
 253:Drivers/STM32L4xx_HAL_Driver/Src/stm32l4xx_hal_gpio.c **** 
 530              		.loc 1 253 9 view .LVU178
 255:Drivers/STM32L4xx_HAL_Driver/Src/stm32l4xx_hal_gpio.c ****         temp &= ~(0x0FuL << (4u * (position & 0x03u)));
 531              		.loc 1 255 9 view .LVU179
 255:Drivers/STM32L4xx_HAL_Driver/Src/stm32l4xx_hal_gpio.c ****         temp &= ~(0x0FuL << (4u * (position & 0x03u)));
 532              		.loc 1 255 40 is_stmt 0 view .LVU180
 533 0248 AA08     		lsrs	r2, r5, #2
 255:Drivers/STM32L4xx_HAL_Driver/Src/stm32l4xx_hal_gpio.c ****         temp &= ~(0x0FuL << (4u * (position & 0x03u)));
 534              		.loc 1 255 14 view .LVU181
 535 024a 911C     		adds	r1, r2, #2
 536 024c 174B     		ldr	r3, .L38+12
 537 024e 53F82100 		ldr	r0, [r3, r1, lsl #2]
 538              	.LVL51:
 256:Drivers/STM32L4xx_HAL_Driver/Src/stm32l4xx_hal_gpio.c ****         temp |= (GPIO_GET_INDEX(GPIOx) << (4u * (position & 0x03u)));
 539              		.loc 1 256 9 is_stmt 1 view .LVU182
 256:Drivers/STM32L4xx_HAL_Driver/Src/stm32l4xx_hal_gpio.c ****         temp |= (GPIO_GET_INDEX(GPIOx) << (4u * (position & 0x03u)));
 540              		.loc 1 256 45 is_stmt 0 view .LVU183
 541 0252 05F00301 		and	r1, r5, #3
 256:Drivers/STM32L4xx_HAL_Driver/Src/stm32l4xx_hal_gpio.c ****         temp |= (GPIO_GET_INDEX(GPIOx) << (4u * (position & 0x03u)));
 542              		.loc 1 256 33 view .LVU184
 543 0256 8900     		lsls	r1, r1, #2
 256:Drivers/STM32L4xx_HAL_Driver/Src/stm32l4xx_hal_gpio.c ****         temp |= (GPIO_GET_INDEX(GPIOx) << (4u * (position & 0x03u)));
 544              		.loc 1 256 26 view .LVU185
 545 0258 0F23     		movs	r3, #15
 546 025a 8B40     		lsls	r3, r3, r1
 256:Drivers/STM32L4xx_HAL_Driver/Src/stm32l4xx_hal_gpio.c ****         temp |= (GPIO_GET_INDEX(GPIOx) << (4u * (position & 0x03u)));
 547              		.loc 1 256 14 view .LVU186
 548 025c 20EA0300 		bic	r0, r0, r3
 549              	.LVL52:
 257:Drivers/STM32L4xx_HAL_Driver/Src/stm32l4xx_hal_gpio.c ****         SYSCFG->EXTICR[position >> 2u] = temp;
 550              		.loc 1 257 9 is_stmt 1 view .LVU187
 257:Drivers/STM32L4xx_HAL_Driver/Src/stm32l4xx_hal_gpio.c ****         SYSCFG->EXTICR[position >> 2u] = temp;
 551              		.loc 1 257 18 is_stmt 0 view .LVU188
 552 0260 B8F1904F 		cmp	r8, #1207959552
 553 0264 3FF475AF 		beq	.L25
 257:Drivers/STM32L4xx_HAL_Driver/Src/stm32l4xx_hal_gpio.c ****         SYSCFG->EXTICR[position >> 2u] = temp;
 554              		.loc 1 257 18 discriminator 1 view .LVU189
ARM GAS  C:\Users\mathi\AppData\Local\Temp\ccmITq2K.s 			page 18


 555 0268 0D4B     		ldr	r3, .L38
 556 026a 9845     		cmp	r8, r3
 557 026c 0ED0     		beq	.L26
 257:Drivers/STM32L4xx_HAL_Driver/Src/stm32l4xx_hal_gpio.c ****         SYSCFG->EXTICR[position >> 2u] = temp;
 558              		.loc 1 257 18 discriminator 3 view .LVU190
 559 026e 03F58063 		add	r3, r3, #1024
 560 0272 9845     		cmp	r8, r3
 561 0274 0CD0     		beq	.L27
 257:Drivers/STM32L4xx_HAL_Driver/Src/stm32l4xx_hal_gpio.c ****         SYSCFG->EXTICR[position >> 2u] = temp;
 562              		.loc 1 257 18 discriminator 5 view .LVU191
 563 0276 03F58063 		add	r3, r3, #1024
 564 027a 9845     		cmp	r8, r3
 565 027c 0AD0     		beq	.L28
 257:Drivers/STM32L4xx_HAL_Driver/Src/stm32l4xx_hal_gpio.c ****         SYSCFG->EXTICR[position >> 2u] = temp;
 566              		.loc 1 257 18 discriminator 7 view .LVU192
 567 027e 03F58063 		add	r3, r3, #1024
 568 0282 9845     		cmp	r8, r3
 569 0284 3FF463AF 		beq	.L37
 257:Drivers/STM32L4xx_HAL_Driver/Src/stm32l4xx_hal_gpio.c ****         SYSCFG->EXTICR[position >> 2u] = temp;
 570              		.loc 1 257 18 discriminator 10 view .LVU193
 571 0288 0723     		movs	r3, #7
 572 028a 63E7     		b	.L18
 573              	.L26:
 257:Drivers/STM32L4xx_HAL_Driver/Src/stm32l4xx_hal_gpio.c ****         SYSCFG->EXTICR[position >> 2u] = temp;
 574              		.loc 1 257 18 discriminator 4 view .LVU194
 575 028c 0123     		movs	r3, #1
 576 028e 61E7     		b	.L18
 577              	.L27:
 257:Drivers/STM32L4xx_HAL_Driver/Src/stm32l4xx_hal_gpio.c ****         SYSCFG->EXTICR[position >> 2u] = temp;
 578              		.loc 1 257 18 discriminator 6 view .LVU195
 579 0290 0223     		movs	r3, #2
 580 0292 5FE7     		b	.L18
 581              	.L28:
 257:Drivers/STM32L4xx_HAL_Driver/Src/stm32l4xx_hal_gpio.c ****         SYSCFG->EXTICR[position >> 2u] = temp;
 582              		.loc 1 257 18 discriminator 8 view .LVU196
 583 0294 0323     		movs	r3, #3
 584 0296 5DE7     		b	.L18
 585              	.LVL53:
 586              	.L33:
 297:Drivers/STM32L4xx_HAL_Driver/Src/stm32l4xx_hal_gpio.c ****   }
 298:Drivers/STM32L4xx_HAL_Driver/Src/stm32l4xx_hal_gpio.c **** }
 587              		.loc 1 298 1 view .LVU197
 588 0298 02B0     		add	sp, sp, #8
 589              		.cfi_def_cfa_offset 24
 590              		@ sp needed
 591 029a BDE8F081 		pop	{r4, r5, r6, r7, r8, pc}
 592              	.LVL54:
 593              	.L39:
 594              		.loc 1 298 1 view .LVU198
 595 029e 00BF     		.align	2
 596              	.L38:
 597 02a0 00040048 		.word	1207960576
 598 02a4 00000000 		.word	.LC0
 599 02a8 0F080600 		.word	395279
 600 02ac 00000140 		.word	1073807360
 601 02b0 00040140 		.word	1073808384
 602 02b4 00100240 		.word	1073876992
ARM GAS  C:\Users\mathi\AppData\Local\Temp\ccmITq2K.s 			page 19


 603              		.cfi_endproc
 604              	.LFE292:
 606              		.section	.text.HAL_GPIO_DeInit,"ax",%progbits
 607              		.align	1
 608              		.global	HAL_GPIO_DeInit
 609              		.syntax unified
 610              		.thumb
 611              		.thumb_func
 613              	HAL_GPIO_DeInit:
 614              	.LVL55:
 615              	.LFB293:
 299:Drivers/STM32L4xx_HAL_Driver/Src/stm32l4xx_hal_gpio.c **** 
 300:Drivers/STM32L4xx_HAL_Driver/Src/stm32l4xx_hal_gpio.c **** /**
 301:Drivers/STM32L4xx_HAL_Driver/Src/stm32l4xx_hal_gpio.c ****   * @brief  De-initialize the GPIOx peripheral registers to their default reset values.
 302:Drivers/STM32L4xx_HAL_Driver/Src/stm32l4xx_hal_gpio.c ****   * @param  GPIOx where x can be (A..H) to select the GPIO peripheral for STM32L4 family
 303:Drivers/STM32L4xx_HAL_Driver/Src/stm32l4xx_hal_gpio.c ****   * @param  GPIO_Pin specifies the port bit to be written.
 304:Drivers/STM32L4xx_HAL_Driver/Src/stm32l4xx_hal_gpio.c ****   *         This parameter can be any combination of GPIO_PIN_x where x can be (0..15).
 305:Drivers/STM32L4xx_HAL_Driver/Src/stm32l4xx_hal_gpio.c ****   * @retval None
 306:Drivers/STM32L4xx_HAL_Driver/Src/stm32l4xx_hal_gpio.c ****   */
 307:Drivers/STM32L4xx_HAL_Driver/Src/stm32l4xx_hal_gpio.c **** void HAL_GPIO_DeInit(GPIO_TypeDef  *GPIOx, uint32_t GPIO_Pin)
 308:Drivers/STM32L4xx_HAL_Driver/Src/stm32l4xx_hal_gpio.c **** {
 616              		.loc 1 308 1 is_stmt 1 view -0
 617              		.cfi_startproc
 618              		@ args = 0, pretend = 0, frame = 0
 619              		@ frame_needed = 0, uses_anonymous_args = 0
 620              		.loc 1 308 1 is_stmt 0 view .LVU200
 621 0000 F8B5     		push	{r3, r4, r5, r6, r7, lr}
 622              		.cfi_def_cfa_offset 24
 623              		.cfi_offset 3, -24
 624              		.cfi_offset 4, -20
 625              		.cfi_offset 5, -16
 626              		.cfi_offset 6, -12
 627              		.cfi_offset 7, -8
 628              		.cfi_offset 14, -4
 629 0002 0446     		mov	r4, r0
 630 0004 0D46     		mov	r5, r1
 309:Drivers/STM32L4xx_HAL_Driver/Src/stm32l4xx_hal_gpio.c ****   uint32_t position = 0x00u;
 631              		.loc 1 309 3 is_stmt 1 view .LVU201
 632              	.LVL56:
 310:Drivers/STM32L4xx_HAL_Driver/Src/stm32l4xx_hal_gpio.c ****   uint32_t iocurrent;
 633              		.loc 1 310 3 view .LVU202
 311:Drivers/STM32L4xx_HAL_Driver/Src/stm32l4xx_hal_gpio.c ****   uint32_t tmp;
 634              		.loc 1 311 3 view .LVU203
 312:Drivers/STM32L4xx_HAL_Driver/Src/stm32l4xx_hal_gpio.c **** 
 313:Drivers/STM32L4xx_HAL_Driver/Src/stm32l4xx_hal_gpio.c ****   /* Check the parameters */
 314:Drivers/STM32L4xx_HAL_Driver/Src/stm32l4xx_hal_gpio.c ****   assert_param(IS_GPIO_ALL_INSTANCE(GPIOx));
 635              		.loc 1 314 3 view .LVU204
 636 0006 B0F1904F 		cmp	r0, #1207959552
 637 000a 17D0     		beq	.L41
 638              		.loc 1 314 3 is_stmt 0 discriminator 1 view .LVU205
 639 000c 4D4B     		ldr	r3, .L58
 640 000e 9842     		cmp	r0, r3
 641 0010 14D0     		beq	.L41
 642              		.loc 1 314 3 discriminator 2 view .LVU206
 643 0012 03F58063 		add	r3, r3, #1024
 644 0016 9842     		cmp	r0, r3
 645 0018 10D0     		beq	.L41
ARM GAS  C:\Users\mathi\AppData\Local\Temp\ccmITq2K.s 			page 20


 646              		.loc 1 314 3 discriminator 3 view .LVU207
 647 001a 03F58063 		add	r3, r3, #1024
 648 001e 9842     		cmp	r0, r3
 649 0020 0CD0     		beq	.L41
 650              		.loc 1 314 3 discriminator 4 view .LVU208
 651 0022 03F58063 		add	r3, r3, #1024
 652 0026 9842     		cmp	r0, r3
 653 0028 08D0     		beq	.L41
 654              		.loc 1 314 3 discriminator 5 view .LVU209
 655 002a 03F54063 		add	r3, r3, #3072
 656 002e 9842     		cmp	r0, r3
 657 0030 04D0     		beq	.L41
 658              		.loc 1 314 3 discriminator 6 view .LVU210
 659 0032 4FF49D71 		mov	r1, #314
 660              	.LVL57:
 661              		.loc 1 314 3 discriminator 6 view .LVU211
 662 0036 4448     		ldr	r0, .L58+4
 663              	.LVL58:
 664              		.loc 1 314 3 discriminator 6 view .LVU212
 665 0038 FFF7FEFF 		bl	assert_failed
 666              	.LVL59:
 667              	.L41:
 315:Drivers/STM32L4xx_HAL_Driver/Src/stm32l4xx_hal_gpio.c ****   assert_param(IS_GPIO_PIN(GPIO_Pin));
 668              		.loc 1 315 3 is_stmt 1 view .LVU213
 669 003c ABB2     		uxth	r3, r5
 670 003e 13B1     		cbz	r3, .L42
 671              		.loc 1 315 3 is_stmt 0 discriminator 2 view .LVU214
 672 0040 B5F5803F 		cmp	r5, #65536
 673 0044 04D3     		bcc	.L43
 674              	.L42:
 675              		.loc 1 315 3 discriminator 3 view .LVU215
 676 0046 40F23B11 		movw	r1, #315
 677 004a 3F48     		ldr	r0, .L58+4
 678 004c FFF7FEFF 		bl	assert_failed
 679              	.LVL60:
 680              	.L43:
 316:Drivers/STM32L4xx_HAL_Driver/Src/stm32l4xx_hal_gpio.c **** 
 317:Drivers/STM32L4xx_HAL_Driver/Src/stm32l4xx_hal_gpio.c ****   /* Configure the port pins */
 318:Drivers/STM32L4xx_HAL_Driver/Src/stm32l4xx_hal_gpio.c ****   while ((GPIO_Pin >> position) != 0x00u)
 319:Drivers/STM32L4xx_HAL_Driver/Src/stm32l4xx_hal_gpio.c ****   {
 320:Drivers/STM32L4xx_HAL_Driver/Src/stm32l4xx_hal_gpio.c ****     /* Get current io position */
 321:Drivers/STM32L4xx_HAL_Driver/Src/stm32l4xx_hal_gpio.c ****     iocurrent = (GPIO_Pin) & (1uL << position);
 322:Drivers/STM32L4xx_HAL_Driver/Src/stm32l4xx_hal_gpio.c **** 
 323:Drivers/STM32L4xx_HAL_Driver/Src/stm32l4xx_hal_gpio.c ****     if (iocurrent != 0x00u)
 324:Drivers/STM32L4xx_HAL_Driver/Src/stm32l4xx_hal_gpio.c ****     {
 325:Drivers/STM32L4xx_HAL_Driver/Src/stm32l4xx_hal_gpio.c ****       /*------------------------- EXTI Mode Configuration --------------------*/
 326:Drivers/STM32L4xx_HAL_Driver/Src/stm32l4xx_hal_gpio.c ****       /* Clear the External Interrupt or Event for the current IO */
 327:Drivers/STM32L4xx_HAL_Driver/Src/stm32l4xx_hal_gpio.c **** 
 328:Drivers/STM32L4xx_HAL_Driver/Src/stm32l4xx_hal_gpio.c ****       tmp = SYSCFG->EXTICR[position >> 2u];
 329:Drivers/STM32L4xx_HAL_Driver/Src/stm32l4xx_hal_gpio.c ****       tmp &= (0x0FuL << (4u * (position & 0x03u)));
 330:Drivers/STM32L4xx_HAL_Driver/Src/stm32l4xx_hal_gpio.c ****       if (tmp == (GPIO_GET_INDEX(GPIOx) << (4u * (position & 0x03u))))
 681              		.loc 1 330 19 discriminator 9 view .LVU216
 682 0050 0023     		movs	r3, #0
 683 0052 29E0     		b	.L47
 684              	.LVL61:
 685              	.L57:
 686              		.loc 1 330 19 discriminator 9 view .LVU217
ARM GAS  C:\Users\mathi\AppData\Local\Temp\ccmITq2K.s 			page 21


 687 0054 0426     		movs	r6, #4
 688 0056 00E0     		b	.L45
 689              	.L49:
 690              		.loc 1 330 19 discriminator 2 view .LVU218
 691 0058 0026     		movs	r6, #0
 692              	.L45:
 693              		.loc 1 330 41 discriminator 20 view .LVU219
 694 005a 06FA01F1 		lsl	r1, r6, r1
 695              		.loc 1 330 10 discriminator 20 view .LVU220
 696 005e 8142     		cmp	r1, r0
 697 0060 53D0     		beq	.L55
 698              	.LVL62:
 699              	.L46:
 331:Drivers/STM32L4xx_HAL_Driver/Src/stm32l4xx_hal_gpio.c ****       {
 332:Drivers/STM32L4xx_HAL_Driver/Src/stm32l4xx_hal_gpio.c ****         /* Clear EXTI line configuration */
 333:Drivers/STM32L4xx_HAL_Driver/Src/stm32l4xx_hal_gpio.c ****         EXTI->IMR1 &= ~(iocurrent);
 334:Drivers/STM32L4xx_HAL_Driver/Src/stm32l4xx_hal_gpio.c ****         EXTI->EMR1 &= ~(iocurrent);
 335:Drivers/STM32L4xx_HAL_Driver/Src/stm32l4xx_hal_gpio.c **** 
 336:Drivers/STM32L4xx_HAL_Driver/Src/stm32l4xx_hal_gpio.c ****         /* Clear Rising Falling edge configuration */
 337:Drivers/STM32L4xx_HAL_Driver/Src/stm32l4xx_hal_gpio.c ****         EXTI->FTSR1 &= ~(iocurrent);
 338:Drivers/STM32L4xx_HAL_Driver/Src/stm32l4xx_hal_gpio.c ****         EXTI->RTSR1 &= ~(iocurrent);
 339:Drivers/STM32L4xx_HAL_Driver/Src/stm32l4xx_hal_gpio.c **** 
 340:Drivers/STM32L4xx_HAL_Driver/Src/stm32l4xx_hal_gpio.c ****         tmp = 0x0FuL << (4u * (position & 0x03u));
 341:Drivers/STM32L4xx_HAL_Driver/Src/stm32l4xx_hal_gpio.c ****         SYSCFG->EXTICR[position >> 2u] &= ~tmp;
 342:Drivers/STM32L4xx_HAL_Driver/Src/stm32l4xx_hal_gpio.c ****       }
 343:Drivers/STM32L4xx_HAL_Driver/Src/stm32l4xx_hal_gpio.c **** 
 344:Drivers/STM32L4xx_HAL_Driver/Src/stm32l4xx_hal_gpio.c ****       /*------------------------- GPIO Mode Configuration --------------------*/
 345:Drivers/STM32L4xx_HAL_Driver/Src/stm32l4xx_hal_gpio.c ****       /* Configure IO in Analog Mode */
 346:Drivers/STM32L4xx_HAL_Driver/Src/stm32l4xx_hal_gpio.c ****       GPIOx->MODER |= (GPIO_MODER_MODE0 << (position * 2u));
 700              		.loc 1 346 7 is_stmt 1 view .LVU221
 701              		.loc 1 346 12 is_stmt 0 view .LVU222
 702 0062 2068     		ldr	r0, [r4]
 703              		.loc 1 346 54 view .LVU223
 704 0064 5E00     		lsls	r6, r3, #1
 705              		.loc 1 346 41 view .LVU224
 706 0066 0321     		movs	r1, #3
 707 0068 B140     		lsls	r1, r1, r6
 708              		.loc 1 346 20 view .LVU225
 709 006a 0843     		orrs	r0, r0, r1
 710 006c 2060     		str	r0, [r4]
 347:Drivers/STM32L4xx_HAL_Driver/Src/stm32l4xx_hal_gpio.c **** 
 348:Drivers/STM32L4xx_HAL_Driver/Src/stm32l4xx_hal_gpio.c ****       /* Configure the default Alternate Function in current IO */
 349:Drivers/STM32L4xx_HAL_Driver/Src/stm32l4xx_hal_gpio.c ****       GPIOx->AFR[position >> 3u] &= ~(0xFu << ((position & 0x07u) * 4u)) ;
 711              		.loc 1 349 7 is_stmt 1 view .LVU226
 712              		.loc 1 349 17 is_stmt 0 view .LVU227
 713 006e D808     		lsrs	r0, r3, #3
 714 0070 0830     		adds	r0, r0, #8
 715 0072 54F82060 		ldr	r6, [r4, r0, lsl #2]
 716              		.loc 1 349 58 view .LVU228
 717 0076 03F0070E 		and	lr, r3, #7
 718              		.loc 1 349 67 view .LVU229
 719 007a 4FEA8E0E 		lsl	lr, lr, #2
 720              		.loc 1 349 44 view .LVU230
 721 007e 4FF00F0C 		mov	ip, #15
 722 0082 0CFA0EFC 		lsl	ip, ip, lr
 723              		.loc 1 349 34 view .LVU231
 724 0086 26EA0C06 		bic	r6, r6, ip
ARM GAS  C:\Users\mathi\AppData\Local\Temp\ccmITq2K.s 			page 22


 725 008a 44F82060 		str	r6, [r4, r0, lsl #2]
 350:Drivers/STM32L4xx_HAL_Driver/Src/stm32l4xx_hal_gpio.c **** 
 351:Drivers/STM32L4xx_HAL_Driver/Src/stm32l4xx_hal_gpio.c ****       /* Configure the default value for IO Speed */
 352:Drivers/STM32L4xx_HAL_Driver/Src/stm32l4xx_hal_gpio.c ****       GPIOx->OSPEEDR &= ~(GPIO_OSPEEDR_OSPEED0 << (position * 2u));
 726              		.loc 1 352 7 is_stmt 1 view .LVU232
 727              		.loc 1 352 12 is_stmt 0 view .LVU233
 728 008e A068     		ldr	r0, [r4, #8]
 729              		.loc 1 352 22 view .LVU234
 730 0090 20EA0100 		bic	r0, r0, r1
 731 0094 A060     		str	r0, [r4, #8]
 353:Drivers/STM32L4xx_HAL_Driver/Src/stm32l4xx_hal_gpio.c **** 
 354:Drivers/STM32L4xx_HAL_Driver/Src/stm32l4xx_hal_gpio.c ****       /* Configure the default value IO Output Type */
 355:Drivers/STM32L4xx_HAL_Driver/Src/stm32l4xx_hal_gpio.c ****       GPIOx->OTYPER  &= ~(GPIO_OTYPER_OT0 << position) ;
 732              		.loc 1 355 7 is_stmt 1 view .LVU235
 733              		.loc 1 355 12 is_stmt 0 view .LVU236
 734 0096 6068     		ldr	r0, [r4, #4]
 735              		.loc 1 355 22 view .LVU237
 736 0098 20EA0202 		bic	r2, r0, r2
 737 009c 6260     		str	r2, [r4, #4]
 356:Drivers/STM32L4xx_HAL_Driver/Src/stm32l4xx_hal_gpio.c **** 
 357:Drivers/STM32L4xx_HAL_Driver/Src/stm32l4xx_hal_gpio.c ****       /* Deactivate the Pull-up and Pull-down resistor for the current IO */
 358:Drivers/STM32L4xx_HAL_Driver/Src/stm32l4xx_hal_gpio.c ****       GPIOx->PUPDR &= ~(GPIO_PUPDR_PUPD0 << (position * 2u));
 738              		.loc 1 358 7 is_stmt 1 view .LVU238
 739              		.loc 1 358 12 is_stmt 0 view .LVU239
 740 009e E268     		ldr	r2, [r4, #12]
 741              		.loc 1 358 20 view .LVU240
 742 00a0 22EA0102 		bic	r2, r2, r1
 743 00a4 E260     		str	r2, [r4, #12]
 744              	.L44:
 359:Drivers/STM32L4xx_HAL_Driver/Src/stm32l4xx_hal_gpio.c **** 
 360:Drivers/STM32L4xx_HAL_Driver/Src/stm32l4xx_hal_gpio.c **** #if defined(STM32L471xx) || defined(STM32L475xx) || defined(STM32L476xx) || defined(STM32L485xx) ||
 361:Drivers/STM32L4xx_HAL_Driver/Src/stm32l4xx_hal_gpio.c ****       /* Deactivate the Control bit of Analog mode for the current IO */
 362:Drivers/STM32L4xx_HAL_Driver/Src/stm32l4xx_hal_gpio.c ****       GPIOx->ASCR &= ~(GPIO_ASCR_ASC0<< position);
 363:Drivers/STM32L4xx_HAL_Driver/Src/stm32l4xx_hal_gpio.c **** #endif /* STM32L471xx || STM32L475xx || STM32L476xx || STM32L485xx || STM32L486xx */
 364:Drivers/STM32L4xx_HAL_Driver/Src/stm32l4xx_hal_gpio.c ****     }
 365:Drivers/STM32L4xx_HAL_Driver/Src/stm32l4xx_hal_gpio.c **** 
 366:Drivers/STM32L4xx_HAL_Driver/Src/stm32l4xx_hal_gpio.c ****     position++;
 745              		.loc 1 366 5 is_stmt 1 view .LVU241
 746              		.loc 1 366 13 is_stmt 0 view .LVU242
 747 00a6 0133     		adds	r3, r3, #1
 748              	.LVL63:
 749              	.L47:
 318:Drivers/STM32L4xx_HAL_Driver/Src/stm32l4xx_hal_gpio.c ****   {
 750              		.loc 1 318 33 is_stmt 1 view .LVU243
 751 00a8 35FA03F2 		lsrs	r2, r5, r3
 752 00ac 48D0     		beq	.L56
 321:Drivers/STM32L4xx_HAL_Driver/Src/stm32l4xx_hal_gpio.c **** 
 753              		.loc 1 321 5 view .LVU244
 321:Drivers/STM32L4xx_HAL_Driver/Src/stm32l4xx_hal_gpio.c **** 
 754              		.loc 1 321 35 is_stmt 0 view .LVU245
 755 00ae 0122     		movs	r2, #1
 756 00b0 9A40     		lsls	r2, r2, r3
 757              	.LVL64:
 323:Drivers/STM32L4xx_HAL_Driver/Src/stm32l4xx_hal_gpio.c ****     {
 758              		.loc 1 323 5 is_stmt 1 view .LVU246
 323:Drivers/STM32L4xx_HAL_Driver/Src/stm32l4xx_hal_gpio.c ****     {
 759              		.loc 1 323 8 is_stmt 0 view .LVU247
ARM GAS  C:\Users\mathi\AppData\Local\Temp\ccmITq2K.s 			page 23


 760 00b2 12EA0507 		ands	r7, r2, r5
 761              	.LVL65:
 323:Drivers/STM32L4xx_HAL_Driver/Src/stm32l4xx_hal_gpio.c ****     {
 762              		.loc 1 323 8 view .LVU248
 763 00b6 F6D0     		beq	.L44
 328:Drivers/STM32L4xx_HAL_Driver/Src/stm32l4xx_hal_gpio.c ****       tmp &= (0x0FuL << (4u * (position & 0x03u)));
 764              		.loc 1 328 7 is_stmt 1 view .LVU249
 328:Drivers/STM32L4xx_HAL_Driver/Src/stm32l4xx_hal_gpio.c ****       tmp &= (0x0FuL << (4u * (position & 0x03u)));
 765              		.loc 1 328 37 is_stmt 0 view .LVU250
 766 00b8 4FEA930E 		lsr	lr, r3, #2
 328:Drivers/STM32L4xx_HAL_Driver/Src/stm32l4xx_hal_gpio.c ****       tmp &= (0x0FuL << (4u * (position & 0x03u)));
 767              		.loc 1 328 11 view .LVU251
 768 00bc 0EF10200 		add	r0, lr, #2
 769 00c0 2249     		ldr	r1, .L58+8
 770 00c2 51F82000 		ldr	r0, [r1, r0, lsl #2]
 771              	.LVL66:
 329:Drivers/STM32L4xx_HAL_Driver/Src/stm32l4xx_hal_gpio.c ****       if (tmp == (GPIO_GET_INDEX(GPIOx) << (4u * (position & 0x03u))))
 772              		.loc 1 329 7 is_stmt 1 view .LVU252
 329:Drivers/STM32L4xx_HAL_Driver/Src/stm32l4xx_hal_gpio.c ****       if (tmp == (GPIO_GET_INDEX(GPIOx) << (4u * (position & 0x03u))))
 773              		.loc 1 329 41 is_stmt 0 view .LVU253
 774 00c6 03F00301 		and	r1, r3, #3
 329:Drivers/STM32L4xx_HAL_Driver/Src/stm32l4xx_hal_gpio.c ****       if (tmp == (GPIO_GET_INDEX(GPIOx) << (4u * (position & 0x03u))))
 775              		.loc 1 329 29 view .LVU254
 776 00ca 8900     		lsls	r1, r1, #2
 329:Drivers/STM32L4xx_HAL_Driver/Src/stm32l4xx_hal_gpio.c ****       if (tmp == (GPIO_GET_INDEX(GPIOx) << (4u * (position & 0x03u))))
 777              		.loc 1 329 22 view .LVU255
 778 00cc 0F26     		movs	r6, #15
 779 00ce 06FA01FC 		lsl	ip, r6, r1
 329:Drivers/STM32L4xx_HAL_Driver/Src/stm32l4xx_hal_gpio.c ****       if (tmp == (GPIO_GET_INDEX(GPIOx) << (4u * (position & 0x03u))))
 780              		.loc 1 329 11 view .LVU256
 781 00d2 0CEA0000 		and	r0, ip, r0
 782              	.LVL67:
 330:Drivers/STM32L4xx_HAL_Driver/Src/stm32l4xx_hal_gpio.c ****       {
 783              		.loc 1 330 7 is_stmt 1 view .LVU257
 330:Drivers/STM32L4xx_HAL_Driver/Src/stm32l4xx_hal_gpio.c ****       {
 784              		.loc 1 330 19 is_stmt 0 view .LVU258
 785 00d6 B4F1904F 		cmp	r4, #1207959552
 786 00da BDD0     		beq	.L49
 330:Drivers/STM32L4xx_HAL_Driver/Src/stm32l4xx_hal_gpio.c ****       {
 787              		.loc 1 330 19 discriminator 1 view .LVU259
 788 00dc 194E     		ldr	r6, .L58
 789 00de B442     		cmp	r4, r6
 790 00e0 0DD0     		beq	.L50
 330:Drivers/STM32L4xx_HAL_Driver/Src/stm32l4xx_hal_gpio.c ****       {
 791              		.loc 1 330 19 discriminator 3 view .LVU260
 792 00e2 06F58066 		add	r6, r6, #1024
 793 00e6 B442     		cmp	r4, r6
 794 00e8 0BD0     		beq	.L51
 330:Drivers/STM32L4xx_HAL_Driver/Src/stm32l4xx_hal_gpio.c ****       {
 795              		.loc 1 330 19 discriminator 5 view .LVU261
 796 00ea 06F58066 		add	r6, r6, #1024
 797 00ee B442     		cmp	r4, r6
 798 00f0 09D0     		beq	.L52
 330:Drivers/STM32L4xx_HAL_Driver/Src/stm32l4xx_hal_gpio.c ****       {
 799              		.loc 1 330 19 discriminator 7 view .LVU262
 800 00f2 06F58066 		add	r6, r6, #1024
 801 00f6 B442     		cmp	r4, r6
ARM GAS  C:\Users\mathi\AppData\Local\Temp\ccmITq2K.s 			page 24


 802 00f8 ACD0     		beq	.L57
 330:Drivers/STM32L4xx_HAL_Driver/Src/stm32l4xx_hal_gpio.c ****       {
 803              		.loc 1 330 19 discriminator 10 view .LVU263
 804 00fa 0726     		movs	r6, #7
 805 00fc ADE7     		b	.L45
 806              	.L50:
 330:Drivers/STM32L4xx_HAL_Driver/Src/stm32l4xx_hal_gpio.c ****       {
 807              		.loc 1 330 19 discriminator 4 view .LVU264
 808 00fe 0126     		movs	r6, #1
 809 0100 ABE7     		b	.L45
 810              	.L51:
 330:Drivers/STM32L4xx_HAL_Driver/Src/stm32l4xx_hal_gpio.c ****       {
 811              		.loc 1 330 19 discriminator 6 view .LVU265
 812 0102 0226     		movs	r6, #2
 813 0104 A9E7     		b	.L45
 814              	.L52:
 330:Drivers/STM32L4xx_HAL_Driver/Src/stm32l4xx_hal_gpio.c ****       {
 815              		.loc 1 330 19 discriminator 8 view .LVU266
 816 0106 0326     		movs	r6, #3
 817 0108 A7E7     		b	.L45
 818              	.L55:
 333:Drivers/STM32L4xx_HAL_Driver/Src/stm32l4xx_hal_gpio.c ****         EXTI->EMR1 &= ~(iocurrent);
 819              		.loc 1 333 9 is_stmt 1 view .LVU267
 333:Drivers/STM32L4xx_HAL_Driver/Src/stm32l4xx_hal_gpio.c ****         EXTI->EMR1 &= ~(iocurrent);
 820              		.loc 1 333 13 is_stmt 0 view .LVU268
 821 010a 1149     		ldr	r1, .L58+12
 822 010c 0868     		ldr	r0, [r1]
 823              	.LVL68:
 333:Drivers/STM32L4xx_HAL_Driver/Src/stm32l4xx_hal_gpio.c ****         EXTI->EMR1 &= ~(iocurrent);
 824              		.loc 1 333 20 view .LVU269
 825 010e 20EA0700 		bic	r0, r0, r7
 826 0112 0860     		str	r0, [r1]
 334:Drivers/STM32L4xx_HAL_Driver/Src/stm32l4xx_hal_gpio.c **** 
 827              		.loc 1 334 9 is_stmt 1 view .LVU270
 334:Drivers/STM32L4xx_HAL_Driver/Src/stm32l4xx_hal_gpio.c **** 
 828              		.loc 1 334 13 is_stmt 0 view .LVU271
 829 0114 4868     		ldr	r0, [r1, #4]
 334:Drivers/STM32L4xx_HAL_Driver/Src/stm32l4xx_hal_gpio.c **** 
 830              		.loc 1 334 20 view .LVU272
 831 0116 20EA0700 		bic	r0, r0, r7
 832 011a 4860     		str	r0, [r1, #4]
 337:Drivers/STM32L4xx_HAL_Driver/Src/stm32l4xx_hal_gpio.c ****         EXTI->RTSR1 &= ~(iocurrent);
 833              		.loc 1 337 9 is_stmt 1 view .LVU273
 337:Drivers/STM32L4xx_HAL_Driver/Src/stm32l4xx_hal_gpio.c ****         EXTI->RTSR1 &= ~(iocurrent);
 834              		.loc 1 337 13 is_stmt 0 view .LVU274
 835 011c C868     		ldr	r0, [r1, #12]
 337:Drivers/STM32L4xx_HAL_Driver/Src/stm32l4xx_hal_gpio.c ****         EXTI->RTSR1 &= ~(iocurrent);
 836              		.loc 1 337 21 view .LVU275
 837 011e 20EA0700 		bic	r0, r0, r7
 838 0122 C860     		str	r0, [r1, #12]
 338:Drivers/STM32L4xx_HAL_Driver/Src/stm32l4xx_hal_gpio.c **** 
 839              		.loc 1 338 9 is_stmt 1 view .LVU276
 338:Drivers/STM32L4xx_HAL_Driver/Src/stm32l4xx_hal_gpio.c **** 
 840              		.loc 1 338 13 is_stmt 0 view .LVU277
 841 0124 8868     		ldr	r0, [r1, #8]
 338:Drivers/STM32L4xx_HAL_Driver/Src/stm32l4xx_hal_gpio.c **** 
 842              		.loc 1 338 21 view .LVU278
ARM GAS  C:\Users\mathi\AppData\Local\Temp\ccmITq2K.s 			page 25


 843 0126 20EA0700 		bic	r0, r0, r7
 844 012a 8860     		str	r0, [r1, #8]
 340:Drivers/STM32L4xx_HAL_Driver/Src/stm32l4xx_hal_gpio.c ****         SYSCFG->EXTICR[position >> 2u] &= ~tmp;
 845              		.loc 1 340 9 is_stmt 1 view .LVU279
 846              	.LVL69:
 341:Drivers/STM32L4xx_HAL_Driver/Src/stm32l4xx_hal_gpio.c ****       }
 847              		.loc 1 341 9 view .LVU280
 341:Drivers/STM32L4xx_HAL_Driver/Src/stm32l4xx_hal_gpio.c ****       }
 848              		.loc 1 341 23 is_stmt 0 view .LVU281
 849 012c 074E     		ldr	r6, .L58+8
 850 012e 0EF10201 		add	r1, lr, #2
 851 0132 56F82100 		ldr	r0, [r6, r1, lsl #2]
 341:Drivers/STM32L4xx_HAL_Driver/Src/stm32l4xx_hal_gpio.c ****       }
 852              		.loc 1 341 40 view .LVU282
 853 0136 20EA0C00 		bic	r0, r0, ip
 854 013a 46F82100 		str	r0, [r6, r1, lsl #2]
 855 013e 90E7     		b	.L46
 856              	.LVL70:
 857              	.L56:
 367:Drivers/STM32L4xx_HAL_Driver/Src/stm32l4xx_hal_gpio.c ****   }
 368:Drivers/STM32L4xx_HAL_Driver/Src/stm32l4xx_hal_gpio.c **** }
 858              		.loc 1 368 1 view .LVU283
 859 0140 F8BD     		pop	{r3, r4, r5, r6, r7, pc}
 860              	.LVL71:
 861              	.L59:
 862              		.loc 1 368 1 view .LVU284
 863 0142 00BF     		.align	2
 864              	.L58:
 865 0144 00040048 		.word	1207960576
 866 0148 00000000 		.word	.LC0
 867 014c 00000140 		.word	1073807360
 868 0150 00040140 		.word	1073808384
 869              		.cfi_endproc
 870              	.LFE293:
 872              		.section	.text.HAL_GPIO_ReadPin,"ax",%progbits
 873              		.align	1
 874              		.global	HAL_GPIO_ReadPin
 875              		.syntax unified
 876              		.thumb
 877              		.thumb_func
 879              	HAL_GPIO_ReadPin:
 880              	.LVL72:
 881              	.LFB294:
 369:Drivers/STM32L4xx_HAL_Driver/Src/stm32l4xx_hal_gpio.c **** 
 370:Drivers/STM32L4xx_HAL_Driver/Src/stm32l4xx_hal_gpio.c **** /**
 371:Drivers/STM32L4xx_HAL_Driver/Src/stm32l4xx_hal_gpio.c ****   * @}
 372:Drivers/STM32L4xx_HAL_Driver/Src/stm32l4xx_hal_gpio.c ****   */
 373:Drivers/STM32L4xx_HAL_Driver/Src/stm32l4xx_hal_gpio.c **** 
 374:Drivers/STM32L4xx_HAL_Driver/Src/stm32l4xx_hal_gpio.c **** /** @defgroup GPIO_Exported_Functions_Group2 IO operation functions
 375:Drivers/STM32L4xx_HAL_Driver/Src/stm32l4xx_hal_gpio.c ****  *  @brief GPIO Read, Write, Toggle, Lock and EXTI management functions.
 376:Drivers/STM32L4xx_HAL_Driver/Src/stm32l4xx_hal_gpio.c ****  *
 377:Drivers/STM32L4xx_HAL_Driver/Src/stm32l4xx_hal_gpio.c **** @verbatim
 378:Drivers/STM32L4xx_HAL_Driver/Src/stm32l4xx_hal_gpio.c ****  ===============================================================================
 379:Drivers/STM32L4xx_HAL_Driver/Src/stm32l4xx_hal_gpio.c ****                        ##### IO operation functions #####
 380:Drivers/STM32L4xx_HAL_Driver/Src/stm32l4xx_hal_gpio.c ****  ===============================================================================
 381:Drivers/STM32L4xx_HAL_Driver/Src/stm32l4xx_hal_gpio.c **** 
 382:Drivers/STM32L4xx_HAL_Driver/Src/stm32l4xx_hal_gpio.c **** @endverbatim
ARM GAS  C:\Users\mathi\AppData\Local\Temp\ccmITq2K.s 			page 26


 383:Drivers/STM32L4xx_HAL_Driver/Src/stm32l4xx_hal_gpio.c ****   * @{
 384:Drivers/STM32L4xx_HAL_Driver/Src/stm32l4xx_hal_gpio.c ****   */
 385:Drivers/STM32L4xx_HAL_Driver/Src/stm32l4xx_hal_gpio.c **** 
 386:Drivers/STM32L4xx_HAL_Driver/Src/stm32l4xx_hal_gpio.c **** /**
 387:Drivers/STM32L4xx_HAL_Driver/Src/stm32l4xx_hal_gpio.c ****   * @brief  Read the specified input port pin.
 388:Drivers/STM32L4xx_HAL_Driver/Src/stm32l4xx_hal_gpio.c ****   * @param  GPIOx where x can be (A..H) to select the GPIO peripheral for STM32L4 family
 389:Drivers/STM32L4xx_HAL_Driver/Src/stm32l4xx_hal_gpio.c ****   * @param  GPIO_Pin specifies the port bit to read.
 390:Drivers/STM32L4xx_HAL_Driver/Src/stm32l4xx_hal_gpio.c ****   *         This parameter can be any combination of GPIO_PIN_x where x can be (0..15).
 391:Drivers/STM32L4xx_HAL_Driver/Src/stm32l4xx_hal_gpio.c ****   * @retval The input port pin value.
 392:Drivers/STM32L4xx_HAL_Driver/Src/stm32l4xx_hal_gpio.c ****   */
 393:Drivers/STM32L4xx_HAL_Driver/Src/stm32l4xx_hal_gpio.c **** GPIO_PinState HAL_GPIO_ReadPin(GPIO_TypeDef* GPIOx, uint16_t GPIO_Pin)
 394:Drivers/STM32L4xx_HAL_Driver/Src/stm32l4xx_hal_gpio.c **** {
 882              		.loc 1 394 1 is_stmt 1 view -0
 883              		.cfi_startproc
 884              		@ args = 0, pretend = 0, frame = 0
 885              		@ frame_needed = 0, uses_anonymous_args = 0
 886              		.loc 1 394 1 is_stmt 0 view .LVU286
 887 0000 38B5     		push	{r3, r4, r5, lr}
 888              		.cfi_def_cfa_offset 16
 889              		.cfi_offset 3, -16
 890              		.cfi_offset 4, -12
 891              		.cfi_offset 5, -8
 892              		.cfi_offset 14, -4
 893 0002 0446     		mov	r4, r0
 395:Drivers/STM32L4xx_HAL_Driver/Src/stm32l4xx_hal_gpio.c ****   GPIO_PinState bitstatus;
 894              		.loc 1 395 3 is_stmt 1 view .LVU287
 396:Drivers/STM32L4xx_HAL_Driver/Src/stm32l4xx_hal_gpio.c **** 
 397:Drivers/STM32L4xx_HAL_Driver/Src/stm32l4xx_hal_gpio.c ****   /* Check the parameters */
 398:Drivers/STM32L4xx_HAL_Driver/Src/stm32l4xx_hal_gpio.c ****   assert_param(IS_GPIO_PIN(GPIO_Pin));
 895              		.loc 1 398 3 view .LVU288
 896 0004 0D46     		mov	r5, r1
 897 0006 21B1     		cbz	r1, .L65
 898              	.LVL73:
 899              	.L61:
 399:Drivers/STM32L4xx_HAL_Driver/Src/stm32l4xx_hal_gpio.c **** 
 400:Drivers/STM32L4xx_HAL_Driver/Src/stm32l4xx_hal_gpio.c ****   if ((GPIOx->IDR & GPIO_Pin) != 0x00u)
 900              		.loc 1 400 3 view .LVU289
 901              		.loc 1 400 13 is_stmt 0 view .LVU290
 902 0008 2369     		ldr	r3, [r4, #16]
 903              		.loc 1 400 6 view .LVU291
 904 000a 1D42     		tst	r5, r3
 905 000c 07D0     		beq	.L63
 401:Drivers/STM32L4xx_HAL_Driver/Src/stm32l4xx_hal_gpio.c ****   {
 402:Drivers/STM32L4xx_HAL_Driver/Src/stm32l4xx_hal_gpio.c ****     bitstatus = GPIO_PIN_SET;
 906              		.loc 1 402 15 view .LVU292
 907 000e 0120     		movs	r0, #1
 908              	.L62:
 909              	.LVL74:
 403:Drivers/STM32L4xx_HAL_Driver/Src/stm32l4xx_hal_gpio.c ****   }
 404:Drivers/STM32L4xx_HAL_Driver/Src/stm32l4xx_hal_gpio.c ****   else
 405:Drivers/STM32L4xx_HAL_Driver/Src/stm32l4xx_hal_gpio.c ****   {
 406:Drivers/STM32L4xx_HAL_Driver/Src/stm32l4xx_hal_gpio.c ****     bitstatus = GPIO_PIN_RESET;
 407:Drivers/STM32L4xx_HAL_Driver/Src/stm32l4xx_hal_gpio.c ****   }
 408:Drivers/STM32L4xx_HAL_Driver/Src/stm32l4xx_hal_gpio.c ****   return bitstatus;
 910              		.loc 1 408 3 is_stmt 1 view .LVU293
 409:Drivers/STM32L4xx_HAL_Driver/Src/stm32l4xx_hal_gpio.c **** }
 911              		.loc 1 409 1 is_stmt 0 view .LVU294
ARM GAS  C:\Users\mathi\AppData\Local\Temp\ccmITq2K.s 			page 27


 912 0010 38BD     		pop	{r3, r4, r5, pc}
 913              	.LVL75:
 914              	.L65:
 398:Drivers/STM32L4xx_HAL_Driver/Src/stm32l4xx_hal_gpio.c **** 
 915              		.loc 1 398 3 discriminator 1 view .LVU295
 916 0012 4FF4C771 		mov	r1, #398
 917              	.LVL76:
 398:Drivers/STM32L4xx_HAL_Driver/Src/stm32l4xx_hal_gpio.c **** 
 918              		.loc 1 398 3 discriminator 1 view .LVU296
 919 0016 0348     		ldr	r0, .L66
 920              	.LVL77:
 398:Drivers/STM32L4xx_HAL_Driver/Src/stm32l4xx_hal_gpio.c **** 
 921              		.loc 1 398 3 discriminator 1 view .LVU297
 922 0018 FFF7FEFF 		bl	assert_failed
 923              	.LVL78:
 924 001c F4E7     		b	.L61
 925              	.L63:
 406:Drivers/STM32L4xx_HAL_Driver/Src/stm32l4xx_hal_gpio.c ****   }
 926              		.loc 1 406 15 view .LVU298
 927 001e 0020     		movs	r0, #0
 928 0020 F6E7     		b	.L62
 929              	.L67:
 930 0022 00BF     		.align	2
 931              	.L66:
 932 0024 00000000 		.word	.LC0
 933              		.cfi_endproc
 934              	.LFE294:
 936              		.section	.text.HAL_GPIO_WritePin,"ax",%progbits
 937              		.align	1
 938              		.global	HAL_GPIO_WritePin
 939              		.syntax unified
 940              		.thumb
 941              		.thumb_func
 943              	HAL_GPIO_WritePin:
 944              	.LVL79:
 945              	.LFB295:
 410:Drivers/STM32L4xx_HAL_Driver/Src/stm32l4xx_hal_gpio.c **** 
 411:Drivers/STM32L4xx_HAL_Driver/Src/stm32l4xx_hal_gpio.c **** /**
 412:Drivers/STM32L4xx_HAL_Driver/Src/stm32l4xx_hal_gpio.c ****   * @brief  Set or clear the selected data port bit.
 413:Drivers/STM32L4xx_HAL_Driver/Src/stm32l4xx_hal_gpio.c ****   *
 414:Drivers/STM32L4xx_HAL_Driver/Src/stm32l4xx_hal_gpio.c ****   * @note   This function uses GPIOx_BSRR and GPIOx_BRR registers to allow atomic read/modify
 415:Drivers/STM32L4xx_HAL_Driver/Src/stm32l4xx_hal_gpio.c ****   *         accesses. In this way, there is no risk of an IRQ occurring between
 416:Drivers/STM32L4xx_HAL_Driver/Src/stm32l4xx_hal_gpio.c ****   *         the read and the modify access.
 417:Drivers/STM32L4xx_HAL_Driver/Src/stm32l4xx_hal_gpio.c ****   *
 418:Drivers/STM32L4xx_HAL_Driver/Src/stm32l4xx_hal_gpio.c ****   * @param  GPIOx where x can be (A..H) to select the GPIO peripheral for STM32L4 family
 419:Drivers/STM32L4xx_HAL_Driver/Src/stm32l4xx_hal_gpio.c ****   * @param  GPIO_Pin specifies the port bit to be written.
 420:Drivers/STM32L4xx_HAL_Driver/Src/stm32l4xx_hal_gpio.c ****   *         This parameter can be any combination of GPIO_PIN_x where x can be (0..15).
 421:Drivers/STM32L4xx_HAL_Driver/Src/stm32l4xx_hal_gpio.c ****   * @param  PinState specifies the value to be written to the selected bit.
 422:Drivers/STM32L4xx_HAL_Driver/Src/stm32l4xx_hal_gpio.c ****   *         This parameter can be one of the GPIO_PinState enum values:
 423:Drivers/STM32L4xx_HAL_Driver/Src/stm32l4xx_hal_gpio.c ****   *            @arg GPIO_PIN_RESET: to clear the port pin
 424:Drivers/STM32L4xx_HAL_Driver/Src/stm32l4xx_hal_gpio.c ****   *            @arg GPIO_PIN_SET: to set the port pin
 425:Drivers/STM32L4xx_HAL_Driver/Src/stm32l4xx_hal_gpio.c ****   * @retval None
 426:Drivers/STM32L4xx_HAL_Driver/Src/stm32l4xx_hal_gpio.c ****   */
 427:Drivers/STM32L4xx_HAL_Driver/Src/stm32l4xx_hal_gpio.c **** void HAL_GPIO_WritePin(GPIO_TypeDef* GPIOx, uint16_t GPIO_Pin, GPIO_PinState PinState)
 428:Drivers/STM32L4xx_HAL_Driver/Src/stm32l4xx_hal_gpio.c **** {
 946              		.loc 1 428 1 is_stmt 1 view -0
 947              		.cfi_startproc
ARM GAS  C:\Users\mathi\AppData\Local\Temp\ccmITq2K.s 			page 28


 948              		@ args = 0, pretend = 0, frame = 0
 949              		@ frame_needed = 0, uses_anonymous_args = 0
 950              		.loc 1 428 1 is_stmt 0 view .LVU300
 951 0000 70B5     		push	{r4, r5, r6, lr}
 952              		.cfi_def_cfa_offset 16
 953              		.cfi_offset 4, -16
 954              		.cfi_offset 5, -12
 955              		.cfi_offset 6, -8
 956              		.cfi_offset 14, -4
 957 0002 0546     		mov	r5, r0
 958 0004 1446     		mov	r4, r2
 429:Drivers/STM32L4xx_HAL_Driver/Src/stm32l4xx_hal_gpio.c ****   /* Check the parameters */
 430:Drivers/STM32L4xx_HAL_Driver/Src/stm32l4xx_hal_gpio.c ****   assert_param(IS_GPIO_PIN(GPIO_Pin));
 959              		.loc 1 430 3 is_stmt 1 view .LVU301
 960 0006 0E46     		mov	r6, r1
 961 0008 21B1     		cbz	r1, .L74
 962              	.LVL80:
 963              	.L69:
 431:Drivers/STM32L4xx_HAL_Driver/Src/stm32l4xx_hal_gpio.c ****   assert_param(IS_GPIO_PIN_ACTION(PinState));
 964              		.loc 1 431 3 view .LVU302
 965 000a 012C     		cmp	r4, #1
 966 000c 08D8     		bhi	.L75
 967              	.L70:
 432:Drivers/STM32L4xx_HAL_Driver/Src/stm32l4xx_hal_gpio.c **** 
 433:Drivers/STM32L4xx_HAL_Driver/Src/stm32l4xx_hal_gpio.c ****   if(PinState != GPIO_PIN_RESET)
 968              		.loc 1 433 3 view .LVU303
 969              		.loc 1 433 5 is_stmt 0 view .LVU304
 970 000e 6CB1     		cbz	r4, .L71
 434:Drivers/STM32L4xx_HAL_Driver/Src/stm32l4xx_hal_gpio.c ****   {
 435:Drivers/STM32L4xx_HAL_Driver/Src/stm32l4xx_hal_gpio.c ****     GPIOx->BSRR = (uint32_t)GPIO_Pin;
 971              		.loc 1 435 5 is_stmt 1 view .LVU305
 972              		.loc 1 435 17 is_stmt 0 view .LVU306
 973 0010 AE61     		str	r6, [r5, #24]
 974              	.L68:
 436:Drivers/STM32L4xx_HAL_Driver/Src/stm32l4xx_hal_gpio.c ****   }
 437:Drivers/STM32L4xx_HAL_Driver/Src/stm32l4xx_hal_gpio.c ****   else
 438:Drivers/STM32L4xx_HAL_Driver/Src/stm32l4xx_hal_gpio.c ****   {
 439:Drivers/STM32L4xx_HAL_Driver/Src/stm32l4xx_hal_gpio.c ****     GPIOx->BRR = (uint32_t)GPIO_Pin;
 440:Drivers/STM32L4xx_HAL_Driver/Src/stm32l4xx_hal_gpio.c ****   }
 441:Drivers/STM32L4xx_HAL_Driver/Src/stm32l4xx_hal_gpio.c **** }
 975              		.loc 1 441 1 view .LVU307
 976 0012 70BD     		pop	{r4, r5, r6, pc}
 977              	.LVL81:
 978              	.L74:
 430:Drivers/STM32L4xx_HAL_Driver/Src/stm32l4xx_hal_gpio.c ****   assert_param(IS_GPIO_PIN_ACTION(PinState));
 979              		.loc 1 430 3 discriminator 1 view .LVU308
 980 0014 4FF4D771 		mov	r1, #430
 981              	.LVL82:
 430:Drivers/STM32L4xx_HAL_Driver/Src/stm32l4xx_hal_gpio.c ****   assert_param(IS_GPIO_PIN_ACTION(PinState));
 982              		.loc 1 430 3 discriminator 1 view .LVU309
 983 0018 0548     		ldr	r0, .L76
 984              	.LVL83:
 430:Drivers/STM32L4xx_HAL_Driver/Src/stm32l4xx_hal_gpio.c ****   assert_param(IS_GPIO_PIN_ACTION(PinState));
 985              		.loc 1 430 3 discriminator 1 view .LVU310
 986 001a FFF7FEFF 		bl	assert_failed
 987              	.LVL84:
 430:Drivers/STM32L4xx_HAL_Driver/Src/stm32l4xx_hal_gpio.c ****   assert_param(IS_GPIO_PIN_ACTION(PinState));
ARM GAS  C:\Users\mathi\AppData\Local\Temp\ccmITq2K.s 			page 29


 988              		.loc 1 430 3 discriminator 1 view .LVU311
 989 001e F4E7     		b	.L69
 990              	.L75:
 431:Drivers/STM32L4xx_HAL_Driver/Src/stm32l4xx_hal_gpio.c **** 
 991              		.loc 1 431 3 discriminator 1 view .LVU312
 992 0020 40F2AF11 		movw	r1, #431
 993 0024 0248     		ldr	r0, .L76
 994 0026 FFF7FEFF 		bl	assert_failed
 995              	.LVL85:
 996 002a F0E7     		b	.L70
 997              	.L71:
 439:Drivers/STM32L4xx_HAL_Driver/Src/stm32l4xx_hal_gpio.c ****   }
 998              		.loc 1 439 5 is_stmt 1 view .LVU313
 439:Drivers/STM32L4xx_HAL_Driver/Src/stm32l4xx_hal_gpio.c ****   }
 999              		.loc 1 439 16 is_stmt 0 view .LVU314
 1000 002c AE62     		str	r6, [r5, #40]
 1001              		.loc 1 441 1 view .LVU315
 1002 002e F0E7     		b	.L68
 1003              	.L77:
 1004              		.align	2
 1005              	.L76:
 1006 0030 00000000 		.word	.LC0
 1007              		.cfi_endproc
 1008              	.LFE295:
 1010              		.section	.text.HAL_GPIO_TogglePin,"ax",%progbits
 1011              		.align	1
 1012              		.global	HAL_GPIO_TogglePin
 1013              		.syntax unified
 1014              		.thumb
 1015              		.thumb_func
 1017              	HAL_GPIO_TogglePin:
 1018              	.LVL86:
 1019              	.LFB296:
 442:Drivers/STM32L4xx_HAL_Driver/Src/stm32l4xx_hal_gpio.c **** 
 443:Drivers/STM32L4xx_HAL_Driver/Src/stm32l4xx_hal_gpio.c **** /**
 444:Drivers/STM32L4xx_HAL_Driver/Src/stm32l4xx_hal_gpio.c ****   * @brief  Toggle the specified GPIO pin.
 445:Drivers/STM32L4xx_HAL_Driver/Src/stm32l4xx_hal_gpio.c ****   * @param  GPIOx where x can be (A..H) to select the GPIO peripheral for STM32L4 family
 446:Drivers/STM32L4xx_HAL_Driver/Src/stm32l4xx_hal_gpio.c ****   * @param  GPIO_Pin specifies the pin to be toggled.
 447:Drivers/STM32L4xx_HAL_Driver/Src/stm32l4xx_hal_gpio.c ****   * @retval None
 448:Drivers/STM32L4xx_HAL_Driver/Src/stm32l4xx_hal_gpio.c ****   */
 449:Drivers/STM32L4xx_HAL_Driver/Src/stm32l4xx_hal_gpio.c **** void HAL_GPIO_TogglePin(GPIO_TypeDef* GPIOx, uint16_t GPIO_Pin)
 450:Drivers/STM32L4xx_HAL_Driver/Src/stm32l4xx_hal_gpio.c **** {
 1020              		.loc 1 450 1 is_stmt 1 view -0
 1021              		.cfi_startproc
 1022              		@ args = 0, pretend = 0, frame = 0
 1023              		@ frame_needed = 0, uses_anonymous_args = 0
 1024              		.loc 1 450 1 is_stmt 0 view .LVU317
 1025 0000 38B5     		push	{r3, r4, r5, lr}
 1026              		.cfi_def_cfa_offset 16
 1027              		.cfi_offset 3, -16
 1028              		.cfi_offset 4, -12
 1029              		.cfi_offset 5, -8
 1030              		.cfi_offset 14, -4
 1031 0002 0546     		mov	r5, r0
 451:Drivers/STM32L4xx_HAL_Driver/Src/stm32l4xx_hal_gpio.c ****   uint32_t odr;
 1032              		.loc 1 451 3 is_stmt 1 view .LVU318
 452:Drivers/STM32L4xx_HAL_Driver/Src/stm32l4xx_hal_gpio.c **** 
ARM GAS  C:\Users\mathi\AppData\Local\Temp\ccmITq2K.s 			page 30


 453:Drivers/STM32L4xx_HAL_Driver/Src/stm32l4xx_hal_gpio.c ****   /* Check the parameters */
 454:Drivers/STM32L4xx_HAL_Driver/Src/stm32l4xx_hal_gpio.c ****   assert_param(IS_GPIO_PIN(GPIO_Pin));
 1033              		.loc 1 454 3 view .LVU319
 1034 0004 0C46     		mov	r4, r1
 1035 0006 41B1     		cbz	r1, .L81
 1036              	.LVL87:
 1037              	.L79:
 455:Drivers/STM32L4xx_HAL_Driver/Src/stm32l4xx_hal_gpio.c **** 
 456:Drivers/STM32L4xx_HAL_Driver/Src/stm32l4xx_hal_gpio.c ****   /* get current Output Data Register value */
 457:Drivers/STM32L4xx_HAL_Driver/Src/stm32l4xx_hal_gpio.c ****   odr = GPIOx->ODR;
 1038              		.loc 1 457 3 view .LVU320
 1039              		.loc 1 457 7 is_stmt 0 view .LVU321
 1040 0008 6B69     		ldr	r3, [r5, #20]
 1041              	.LVL88:
 458:Drivers/STM32L4xx_HAL_Driver/Src/stm32l4xx_hal_gpio.c **** 
 459:Drivers/STM32L4xx_HAL_Driver/Src/stm32l4xx_hal_gpio.c ****   /* Set selected pins that were at low level, and reset ones that were high */
 460:Drivers/STM32L4xx_HAL_Driver/Src/stm32l4xx_hal_gpio.c ****   GPIOx->BSRR = ((odr & GPIO_Pin) << GPIO_NUMBER) | (~odr & GPIO_Pin);
 1042              		.loc 1 460 3 is_stmt 1 view .LVU322
 1043              		.loc 1 460 23 is_stmt 0 view .LVU323
 1044 000a 04EA0302 		and	r2, r4, r3
 1045              		.loc 1 460 59 view .LVU324
 1046 000e 24EA0304 		bic	r4, r4, r3
 1047              	.LVL89:
 1048              		.loc 1 460 51 view .LVU325
 1049 0012 44EA0244 		orr	r4, r4, r2, lsl #16
 1050              		.loc 1 460 15 view .LVU326
 1051 0016 AC61     		str	r4, [r5, #24]
 461:Drivers/STM32L4xx_HAL_Driver/Src/stm32l4xx_hal_gpio.c **** }
 1052              		.loc 1 461 1 view .LVU327
 1053 0018 38BD     		pop	{r3, r4, r5, pc}
 1054              	.LVL90:
 1055              	.L81:
 454:Drivers/STM32L4xx_HAL_Driver/Src/stm32l4xx_hal_gpio.c **** 
 1056              		.loc 1 454 3 discriminator 1 view .LVU328
 1057 001a 4FF4E371 		mov	r1, #454
 1058              	.LVL91:
 454:Drivers/STM32L4xx_HAL_Driver/Src/stm32l4xx_hal_gpio.c **** 
 1059              		.loc 1 454 3 discriminator 1 view .LVU329
 1060 001e 0248     		ldr	r0, .L82
 1061              	.LVL92:
 454:Drivers/STM32L4xx_HAL_Driver/Src/stm32l4xx_hal_gpio.c **** 
 1062              		.loc 1 454 3 discriminator 1 view .LVU330
 1063 0020 FFF7FEFF 		bl	assert_failed
 1064              	.LVL93:
 1065 0024 F0E7     		b	.L79
 1066              	.L83:
 1067 0026 00BF     		.align	2
 1068              	.L82:
 1069 0028 00000000 		.word	.LC0
 1070              		.cfi_endproc
 1071              	.LFE296:
 1073              		.section	.text.HAL_GPIO_LockPin,"ax",%progbits
 1074              		.align	1
 1075              		.global	HAL_GPIO_LockPin
 1076              		.syntax unified
 1077              		.thumb
 1078              		.thumb_func
ARM GAS  C:\Users\mathi\AppData\Local\Temp\ccmITq2K.s 			page 31


 1080              	HAL_GPIO_LockPin:
 1081              	.LVL94:
 1082              	.LFB297:
 462:Drivers/STM32L4xx_HAL_Driver/Src/stm32l4xx_hal_gpio.c **** 
 463:Drivers/STM32L4xx_HAL_Driver/Src/stm32l4xx_hal_gpio.c **** /**
 464:Drivers/STM32L4xx_HAL_Driver/Src/stm32l4xx_hal_gpio.c **** * @brief  Lock GPIO Pins configuration registers.
 465:Drivers/STM32L4xx_HAL_Driver/Src/stm32l4xx_hal_gpio.c ****   * @note   The locked registers are GPIOx_MODER, GPIOx_OTYPER, GPIOx_OSPEEDR,
 466:Drivers/STM32L4xx_HAL_Driver/Src/stm32l4xx_hal_gpio.c ****   *         GPIOx_PUPDR, GPIOx_AFRL and GPIOx_AFRH.
 467:Drivers/STM32L4xx_HAL_Driver/Src/stm32l4xx_hal_gpio.c ****   * @note   The configuration of the locked GPIO pins can no longer be modified
 468:Drivers/STM32L4xx_HAL_Driver/Src/stm32l4xx_hal_gpio.c ****   *         until the next reset.
 469:Drivers/STM32L4xx_HAL_Driver/Src/stm32l4xx_hal_gpio.c ****   * @param  GPIOx where x can be (A..H) to select the GPIO peripheral for STM32L4 family
 470:Drivers/STM32L4xx_HAL_Driver/Src/stm32l4xx_hal_gpio.c ****   * @param  GPIO_Pin specifies the port bits to be locked.
 471:Drivers/STM32L4xx_HAL_Driver/Src/stm32l4xx_hal_gpio.c ****   *         This parameter can be any combination of GPIO_PIN_x where x can be (0..15).
 472:Drivers/STM32L4xx_HAL_Driver/Src/stm32l4xx_hal_gpio.c ****   * @retval None
 473:Drivers/STM32L4xx_HAL_Driver/Src/stm32l4xx_hal_gpio.c ****   */
 474:Drivers/STM32L4xx_HAL_Driver/Src/stm32l4xx_hal_gpio.c **** HAL_StatusTypeDef HAL_GPIO_LockPin(GPIO_TypeDef* GPIOx, uint16_t GPIO_Pin)
 475:Drivers/STM32L4xx_HAL_Driver/Src/stm32l4xx_hal_gpio.c **** {
 1083              		.loc 1 475 1 is_stmt 1 view -0
 1084              		.cfi_startproc
 1085              		@ args = 0, pretend = 0, frame = 8
 1086              		@ frame_needed = 0, uses_anonymous_args = 0
 1087              		.loc 1 475 1 is_stmt 0 view .LVU332
 1088 0000 30B5     		push	{r4, r5, lr}
 1089              		.cfi_def_cfa_offset 12
 1090              		.cfi_offset 4, -12
 1091              		.cfi_offset 5, -8
 1092              		.cfi_offset 14, -4
 1093 0002 83B0     		sub	sp, sp, #12
 1094              		.cfi_def_cfa_offset 24
 1095 0004 0446     		mov	r4, r0
 1096 0006 0D46     		mov	r5, r1
 476:Drivers/STM32L4xx_HAL_Driver/Src/stm32l4xx_hal_gpio.c ****   __IO uint32_t tmp = GPIO_LCKR_LCKK;
 1097              		.loc 1 476 3 is_stmt 1 view .LVU333
 1098              		.loc 1 476 17 is_stmt 0 view .LVU334
 1099 0008 4FF48033 		mov	r3, #65536
 1100 000c 0193     		str	r3, [sp, #4]
 477:Drivers/STM32L4xx_HAL_Driver/Src/stm32l4xx_hal_gpio.c **** 
 478:Drivers/STM32L4xx_HAL_Driver/Src/stm32l4xx_hal_gpio.c ****   /* Check the parameters */
 479:Drivers/STM32L4xx_HAL_Driver/Src/stm32l4xx_hal_gpio.c ****   assert_param(IS_GPIO_LOCK_INSTANCE(GPIOx));
 1101              		.loc 1 479 3 is_stmt 1 view .LVU335
 1102 000e B0F1904F 		cmp	r0, #1207959552
 1103 0012 17D0     		beq	.L85
 1104              		.loc 1 479 3 is_stmt 0 discriminator 1 view .LVU336
 1105 0014 184B     		ldr	r3, .L91
 1106 0016 9842     		cmp	r0, r3
 1107 0018 14D0     		beq	.L85
 1108              		.loc 1 479 3 discriminator 2 view .LVU337
 1109 001a 03F58063 		add	r3, r3, #1024
 1110 001e 9842     		cmp	r0, r3
 1111 0020 10D0     		beq	.L85
 1112              		.loc 1 479 3 discriminator 3 view .LVU338
 1113 0022 03F58063 		add	r3, r3, #1024
 1114 0026 9842     		cmp	r0, r3
 1115 0028 0CD0     		beq	.L85
 1116              		.loc 1 479 3 discriminator 4 view .LVU339
 1117 002a 03F58063 		add	r3, r3, #1024
 1118 002e 9842     		cmp	r0, r3
ARM GAS  C:\Users\mathi\AppData\Local\Temp\ccmITq2K.s 			page 32


 1119 0030 08D0     		beq	.L85
 1120              		.loc 1 479 3 discriminator 5 view .LVU340
 1121 0032 03F54063 		add	r3, r3, #3072
 1122 0036 9842     		cmp	r0, r3
 1123 0038 04D0     		beq	.L85
 1124              		.loc 1 479 3 discriminator 6 view .LVU341
 1125 003a 40F2DF11 		movw	r1, #479
 1126              	.LVL95:
 1127              		.loc 1 479 3 discriminator 6 view .LVU342
 1128 003e 0F48     		ldr	r0, .L91+4
 1129              	.LVL96:
 1130              		.loc 1 479 3 discriminator 6 view .LVU343
 1131 0040 FFF7FEFF 		bl	assert_failed
 1132              	.LVL97:
 1133              	.L85:
 480:Drivers/STM32L4xx_HAL_Driver/Src/stm32l4xx_hal_gpio.c ****   assert_param(IS_GPIO_PIN(GPIO_Pin));
 1134              		.loc 1 480 3 is_stmt 1 view .LVU344
 1135 0044 85B1     		cbz	r5, .L90
 1136              	.L86:
 481:Drivers/STM32L4xx_HAL_Driver/Src/stm32l4xx_hal_gpio.c **** 
 482:Drivers/STM32L4xx_HAL_Driver/Src/stm32l4xx_hal_gpio.c ****   /* Apply lock key write sequence */
 483:Drivers/STM32L4xx_HAL_Driver/Src/stm32l4xx_hal_gpio.c ****   tmp |= GPIO_Pin;
 1137              		.loc 1 483 3 view .LVU345
 1138              		.loc 1 483 7 is_stmt 0 view .LVU346
 1139 0046 019B     		ldr	r3, [sp, #4]
 1140 0048 2B43     		orrs	r3, r3, r5
 1141 004a 0193     		str	r3, [sp, #4]
 484:Drivers/STM32L4xx_HAL_Driver/Src/stm32l4xx_hal_gpio.c ****   /* Set LCKx bit(s): LCKK='1' + LCK[15-0] */
 485:Drivers/STM32L4xx_HAL_Driver/Src/stm32l4xx_hal_gpio.c ****   GPIOx->LCKR = tmp;
 1142              		.loc 1 485 3 is_stmt 1 view .LVU347
 1143              		.loc 1 485 15 is_stmt 0 view .LVU348
 1144 004c 019B     		ldr	r3, [sp, #4]
 1145 004e E361     		str	r3, [r4, #28]
 486:Drivers/STM32L4xx_HAL_Driver/Src/stm32l4xx_hal_gpio.c ****   /* Reset LCKx bit(s): LCKK='0' + LCK[15-0] */
 487:Drivers/STM32L4xx_HAL_Driver/Src/stm32l4xx_hal_gpio.c ****   GPIOx->LCKR = GPIO_Pin;
 1146              		.loc 1 487 3 is_stmt 1 view .LVU349
 1147              		.loc 1 487 15 is_stmt 0 view .LVU350
 1148 0050 E561     		str	r5, [r4, #28]
 488:Drivers/STM32L4xx_HAL_Driver/Src/stm32l4xx_hal_gpio.c ****   /* Set LCKx bit(s): LCKK='1' + LCK[15-0] */
 489:Drivers/STM32L4xx_HAL_Driver/Src/stm32l4xx_hal_gpio.c ****   GPIOx->LCKR = tmp;
 1149              		.loc 1 489 3 is_stmt 1 view .LVU351
 1150              		.loc 1 489 15 is_stmt 0 view .LVU352
 1151 0052 019B     		ldr	r3, [sp, #4]
 1152 0054 E361     		str	r3, [r4, #28]
 490:Drivers/STM32L4xx_HAL_Driver/Src/stm32l4xx_hal_gpio.c ****   /* Read LCKK register. This read is mandatory to complete key lock sequence */
 491:Drivers/STM32L4xx_HAL_Driver/Src/stm32l4xx_hal_gpio.c ****   tmp = GPIOx->LCKR;
 1153              		.loc 1 491 3 is_stmt 1 view .LVU353
 1154              		.loc 1 491 14 is_stmt 0 view .LVU354
 1155 0056 E369     		ldr	r3, [r4, #28]
 1156              		.loc 1 491 7 view .LVU355
 1157 0058 0193     		str	r3, [sp, #4]
 492:Drivers/STM32L4xx_HAL_Driver/Src/stm32l4xx_hal_gpio.c **** 
 493:Drivers/STM32L4xx_HAL_Driver/Src/stm32l4xx_hal_gpio.c ****   /* Read again in order to confirm lock is active */
 494:Drivers/STM32L4xx_HAL_Driver/Src/stm32l4xx_hal_gpio.c ****   if ((GPIOx->LCKR & GPIO_LCKR_LCKK) != 0x00u)
 1158              		.loc 1 494 3 is_stmt 1 view .LVU356
 1159              		.loc 1 494 13 is_stmt 0 view .LVU357
 1160 005a E369     		ldr	r3, [r4, #28]
ARM GAS  C:\Users\mathi\AppData\Local\Temp\ccmITq2K.s 			page 33


 1161              		.loc 1 494 6 view .LVU358
 1162 005c 13F4803F 		tst	r3, #65536
 1163 0060 08D0     		beq	.L88
 495:Drivers/STM32L4xx_HAL_Driver/Src/stm32l4xx_hal_gpio.c ****   {
 496:Drivers/STM32L4xx_HAL_Driver/Src/stm32l4xx_hal_gpio.c ****     return HAL_OK;
 1164              		.loc 1 496 12 view .LVU359
 1165 0062 0020     		movs	r0, #0
 1166              	.L87:
 497:Drivers/STM32L4xx_HAL_Driver/Src/stm32l4xx_hal_gpio.c ****   }
 498:Drivers/STM32L4xx_HAL_Driver/Src/stm32l4xx_hal_gpio.c ****   else
 499:Drivers/STM32L4xx_HAL_Driver/Src/stm32l4xx_hal_gpio.c ****   {
 500:Drivers/STM32L4xx_HAL_Driver/Src/stm32l4xx_hal_gpio.c ****     return HAL_ERROR;
 501:Drivers/STM32L4xx_HAL_Driver/Src/stm32l4xx_hal_gpio.c ****   }
 502:Drivers/STM32L4xx_HAL_Driver/Src/stm32l4xx_hal_gpio.c **** }
 1167              		.loc 1 502 1 view .LVU360
 1168 0064 03B0     		add	sp, sp, #12
 1169              		.cfi_remember_state
 1170              		.cfi_def_cfa_offset 12
 1171              		@ sp needed
 1172 0066 30BD     		pop	{r4, r5, pc}
 1173              	.LVL98:
 1174              	.L90:
 1175              		.cfi_restore_state
 480:Drivers/STM32L4xx_HAL_Driver/Src/stm32l4xx_hal_gpio.c **** 
 1176              		.loc 1 480 3 discriminator 1 view .LVU361
 1177 0068 4FF4F071 		mov	r1, #480
 1178 006c 0348     		ldr	r0, .L91+4
 1179 006e FFF7FEFF 		bl	assert_failed
 1180              	.LVL99:
 1181 0072 E8E7     		b	.L86
 1182              	.L88:
 500:Drivers/STM32L4xx_HAL_Driver/Src/stm32l4xx_hal_gpio.c ****   }
 1183              		.loc 1 500 12 view .LVU362
 1184 0074 0120     		movs	r0, #1
 1185 0076 F5E7     		b	.L87
 1186              	.L92:
 1187              		.align	2
 1188              	.L91:
 1189 0078 00040048 		.word	1207960576
 1190 007c 00000000 		.word	.LC0
 1191              		.cfi_endproc
 1192              	.LFE297:
 1194              		.section	.text.HAL_GPIO_EXTI_Callback,"ax",%progbits
 1195              		.align	1
 1196              		.weak	HAL_GPIO_EXTI_Callback
 1197              		.syntax unified
 1198              		.thumb
 1199              		.thumb_func
 1201              	HAL_GPIO_EXTI_Callback:
 1202              	.LVL100:
 1203              	.LFB299:
 503:Drivers/STM32L4xx_HAL_Driver/Src/stm32l4xx_hal_gpio.c **** 
 504:Drivers/STM32L4xx_HAL_Driver/Src/stm32l4xx_hal_gpio.c **** /**
 505:Drivers/STM32L4xx_HAL_Driver/Src/stm32l4xx_hal_gpio.c ****   * @brief  Handle EXTI interrupt request.
 506:Drivers/STM32L4xx_HAL_Driver/Src/stm32l4xx_hal_gpio.c ****   * @param  GPIO_Pin Specifies the port pin connected to corresponding EXTI line.
 507:Drivers/STM32L4xx_HAL_Driver/Src/stm32l4xx_hal_gpio.c ****   * @retval None
 508:Drivers/STM32L4xx_HAL_Driver/Src/stm32l4xx_hal_gpio.c ****   */
ARM GAS  C:\Users\mathi\AppData\Local\Temp\ccmITq2K.s 			page 34


 509:Drivers/STM32L4xx_HAL_Driver/Src/stm32l4xx_hal_gpio.c **** void HAL_GPIO_EXTI_IRQHandler(uint16_t GPIO_Pin)
 510:Drivers/STM32L4xx_HAL_Driver/Src/stm32l4xx_hal_gpio.c **** {
 511:Drivers/STM32L4xx_HAL_Driver/Src/stm32l4xx_hal_gpio.c ****   /* EXTI line interrupt detected */
 512:Drivers/STM32L4xx_HAL_Driver/Src/stm32l4xx_hal_gpio.c ****   if(__HAL_GPIO_EXTI_GET_IT(GPIO_Pin) != 0x00u)
 513:Drivers/STM32L4xx_HAL_Driver/Src/stm32l4xx_hal_gpio.c ****   {
 514:Drivers/STM32L4xx_HAL_Driver/Src/stm32l4xx_hal_gpio.c ****     __HAL_GPIO_EXTI_CLEAR_IT(GPIO_Pin);
 515:Drivers/STM32L4xx_HAL_Driver/Src/stm32l4xx_hal_gpio.c ****     HAL_GPIO_EXTI_Callback(GPIO_Pin);
 516:Drivers/STM32L4xx_HAL_Driver/Src/stm32l4xx_hal_gpio.c ****   }
 517:Drivers/STM32L4xx_HAL_Driver/Src/stm32l4xx_hal_gpio.c **** }
 518:Drivers/STM32L4xx_HAL_Driver/Src/stm32l4xx_hal_gpio.c **** 
 519:Drivers/STM32L4xx_HAL_Driver/Src/stm32l4xx_hal_gpio.c **** /**
 520:Drivers/STM32L4xx_HAL_Driver/Src/stm32l4xx_hal_gpio.c ****   * @brief  EXTI line detection callback.
 521:Drivers/STM32L4xx_HAL_Driver/Src/stm32l4xx_hal_gpio.c ****   * @param  GPIO_Pin Specifies the port pin connected to corresponding EXTI line.
 522:Drivers/STM32L4xx_HAL_Driver/Src/stm32l4xx_hal_gpio.c ****   * @retval None
 523:Drivers/STM32L4xx_HAL_Driver/Src/stm32l4xx_hal_gpio.c ****   */
 524:Drivers/STM32L4xx_HAL_Driver/Src/stm32l4xx_hal_gpio.c **** __weak void HAL_GPIO_EXTI_Callback(uint16_t GPIO_Pin)
 525:Drivers/STM32L4xx_HAL_Driver/Src/stm32l4xx_hal_gpio.c **** {
 1204              		.loc 1 525 1 is_stmt 1 view -0
 1205              		.cfi_startproc
 1206              		@ args = 0, pretend = 0, frame = 0
 1207              		@ frame_needed = 0, uses_anonymous_args = 0
 1208              		@ link register save eliminated.
 526:Drivers/STM32L4xx_HAL_Driver/Src/stm32l4xx_hal_gpio.c ****   /* Prevent unused argument(s) compilation warning */
 527:Drivers/STM32L4xx_HAL_Driver/Src/stm32l4xx_hal_gpio.c ****   UNUSED(GPIO_Pin);
 1209              		.loc 1 527 3 view .LVU364
 528:Drivers/STM32L4xx_HAL_Driver/Src/stm32l4xx_hal_gpio.c **** 
 529:Drivers/STM32L4xx_HAL_Driver/Src/stm32l4xx_hal_gpio.c ****   /* NOTE: This function should not be modified, when the callback is needed,
 530:Drivers/STM32L4xx_HAL_Driver/Src/stm32l4xx_hal_gpio.c ****            the HAL_GPIO_EXTI_Callback could be implemented in the user file
 531:Drivers/STM32L4xx_HAL_Driver/Src/stm32l4xx_hal_gpio.c ****    */
 532:Drivers/STM32L4xx_HAL_Driver/Src/stm32l4xx_hal_gpio.c **** }
 1210              		.loc 1 532 1 is_stmt 0 view .LVU365
 1211 0000 7047     		bx	lr
 1212              		.cfi_endproc
 1213              	.LFE299:
 1215              		.section	.text.HAL_GPIO_EXTI_IRQHandler,"ax",%progbits
 1216              		.align	1
 1217              		.global	HAL_GPIO_EXTI_IRQHandler
 1218              		.syntax unified
 1219              		.thumb
 1220              		.thumb_func
 1222              	HAL_GPIO_EXTI_IRQHandler:
 1223              	.LVL101:
 1224              	.LFB298:
 510:Drivers/STM32L4xx_HAL_Driver/Src/stm32l4xx_hal_gpio.c ****   /* EXTI line interrupt detected */
 1225              		.loc 1 510 1 is_stmt 1 view -0
 1226              		.cfi_startproc
 1227              		@ args = 0, pretend = 0, frame = 0
 1228              		@ frame_needed = 0, uses_anonymous_args = 0
 510:Drivers/STM32L4xx_HAL_Driver/Src/stm32l4xx_hal_gpio.c ****   /* EXTI line interrupt detected */
 1229              		.loc 1 510 1 is_stmt 0 view .LVU367
 1230 0000 08B5     		push	{r3, lr}
 1231              		.cfi_def_cfa_offset 8
 1232              		.cfi_offset 3, -8
 1233              		.cfi_offset 14, -4
 512:Drivers/STM32L4xx_HAL_Driver/Src/stm32l4xx_hal_gpio.c ****   {
 1234              		.loc 1 512 3 is_stmt 1 view .LVU368
 512:Drivers/STM32L4xx_HAL_Driver/Src/stm32l4xx_hal_gpio.c ****   {
ARM GAS  C:\Users\mathi\AppData\Local\Temp\ccmITq2K.s 			page 35


 1235              		.loc 1 512 6 is_stmt 0 view .LVU369
 1236 0002 054B     		ldr	r3, .L98
 1237 0004 5B69     		ldr	r3, [r3, #20]
 512:Drivers/STM32L4xx_HAL_Driver/Src/stm32l4xx_hal_gpio.c ****   {
 1238              		.loc 1 512 5 view .LVU370
 1239 0006 0342     		tst	r3, r0
 1240 0008 00D1     		bne	.L97
 1241              	.LVL102:
 1242              	.L94:
 517:Drivers/STM32L4xx_HAL_Driver/Src/stm32l4xx_hal_gpio.c **** 
 1243              		.loc 1 517 1 view .LVU371
 1244 000a 08BD     		pop	{r3, pc}
 1245              	.LVL103:
 1246              	.L97:
 514:Drivers/STM32L4xx_HAL_Driver/Src/stm32l4xx_hal_gpio.c ****     HAL_GPIO_EXTI_Callback(GPIO_Pin);
 1247              		.loc 1 514 5 is_stmt 1 view .LVU372
 1248 000c 024B     		ldr	r3, .L98
 1249 000e 5861     		str	r0, [r3, #20]
 515:Drivers/STM32L4xx_HAL_Driver/Src/stm32l4xx_hal_gpio.c ****   }
 1250              		.loc 1 515 5 view .LVU373
 1251 0010 FFF7FEFF 		bl	HAL_GPIO_EXTI_Callback
 1252              	.LVL104:
 517:Drivers/STM32L4xx_HAL_Driver/Src/stm32l4xx_hal_gpio.c **** 
 1253              		.loc 1 517 1 is_stmt 0 view .LVU374
 1254 0014 F9E7     		b	.L94
 1255              	.L99:
 1256 0016 00BF     		.align	2
 1257              	.L98:
 1258 0018 00040140 		.word	1073808384
 1259              		.cfi_endproc
 1260              	.LFE298:
 1262              		.text
 1263              	.Letext0:
 1264              		.file 2 "C:/Users/mathi/AppData/Roaming/Code/User/globalStorage/bmd.stm32-for-vscode/@xpack-dev-to
 1265              		.file 3 "C:/Users/mathi/AppData/Roaming/Code/User/globalStorage/bmd.stm32-for-vscode/@xpack-dev-to
 1266              		.file 4 "Drivers/CMSIS/Device/ST/STM32L4xx/Include/stm32l452xx.h"
 1267              		.file 5 "Drivers/STM32L4xx_HAL_Driver/Inc/stm32l4xx_hal_def.h"
 1268              		.file 6 "Drivers/STM32L4xx_HAL_Driver/Inc/stm32l4xx_hal_gpio.h"
 1269              		.file 7 "Core/Inc/stm32l4xx_hal_conf.h"
ARM GAS  C:\Users\mathi\AppData\Local\Temp\ccmITq2K.s 			page 36

