ARM GAS  C:\Users\mathi\AppData\Local\Temp\cc6ocpEq.s 			page 1


   1              		.cpu cortex-m4
   2              		.arch armv7e-m
   3              		.fpu fpv4-sp-d16
   4              		.eabi_attribute 27, 1
   5              		.eabi_attribute 28, 1
   6              		.eabi_attribute 20, 1
   7              		.eabi_attribute 21, 1
   8              		.eabi_attribute 23, 3
   9              		.eabi_attribute 24, 1
  10              		.eabi_attribute 25, 1
  11              		.eabi_attribute 26, 1
  12              		.eabi_attribute 30, 1
  13              		.eabi_attribute 34, 1
  14              		.eabi_attribute 18, 4
  15              		.file	"stm32l4xx_hal_pwr_ex.c"
  16              		.text
  17              	.Ltext0:
  18              		.cfi_sections	.debug_frame
  19              		.file 1 "Drivers/STM32L4xx_HAL_Driver/Src/stm32l4xx_hal_pwr_ex.c"
  20              		.section	.text.HAL_PWREx_GetVoltageRange,"ax",%progbits
  21              		.align	1
  22              		.global	HAL_PWREx_GetVoltageRange
  23              		.syntax unified
  24              		.thumb
  25              		.thumb_func
  27              	HAL_PWREx_GetVoltageRange:
  28              	.LFB292:
   1:Drivers/STM32L4xx_HAL_Driver/Src/stm32l4xx_hal_pwr_ex.c **** /**
   2:Drivers/STM32L4xx_HAL_Driver/Src/stm32l4xx_hal_pwr_ex.c ****   ******************************************************************************
   3:Drivers/STM32L4xx_HAL_Driver/Src/stm32l4xx_hal_pwr_ex.c ****   * @file    stm32l4xx_hal_pwr_ex.c
   4:Drivers/STM32L4xx_HAL_Driver/Src/stm32l4xx_hal_pwr_ex.c ****   * @author  MCD Application Team
   5:Drivers/STM32L4xx_HAL_Driver/Src/stm32l4xx_hal_pwr_ex.c ****   * @brief   Extended PWR HAL module driver.
   6:Drivers/STM32L4xx_HAL_Driver/Src/stm32l4xx_hal_pwr_ex.c ****   *          This file provides firmware functions to manage the following
   7:Drivers/STM32L4xx_HAL_Driver/Src/stm32l4xx_hal_pwr_ex.c ****   *          functionalities of the Power Controller (PWR) peripheral:
   8:Drivers/STM32L4xx_HAL_Driver/Src/stm32l4xx_hal_pwr_ex.c ****   *           + Extended Initialization and de-initialization functions
   9:Drivers/STM32L4xx_HAL_Driver/Src/stm32l4xx_hal_pwr_ex.c ****   *           + Extended Peripheral Control functions
  10:Drivers/STM32L4xx_HAL_Driver/Src/stm32l4xx_hal_pwr_ex.c ****   *
  11:Drivers/STM32L4xx_HAL_Driver/Src/stm32l4xx_hal_pwr_ex.c ****   ******************************************************************************
  12:Drivers/STM32L4xx_HAL_Driver/Src/stm32l4xx_hal_pwr_ex.c ****   * @attention
  13:Drivers/STM32L4xx_HAL_Driver/Src/stm32l4xx_hal_pwr_ex.c ****   *
  14:Drivers/STM32L4xx_HAL_Driver/Src/stm32l4xx_hal_pwr_ex.c ****   * Copyright (c) 2017 STMicroelectronics.
  15:Drivers/STM32L4xx_HAL_Driver/Src/stm32l4xx_hal_pwr_ex.c ****   * All rights reserved.
  16:Drivers/STM32L4xx_HAL_Driver/Src/stm32l4xx_hal_pwr_ex.c ****   *
  17:Drivers/STM32L4xx_HAL_Driver/Src/stm32l4xx_hal_pwr_ex.c ****   * This software is licensed under terms that can be found in the LICENSE file
  18:Drivers/STM32L4xx_HAL_Driver/Src/stm32l4xx_hal_pwr_ex.c ****   * in the root directory of this software component.
  19:Drivers/STM32L4xx_HAL_Driver/Src/stm32l4xx_hal_pwr_ex.c ****   * If no LICENSE file comes with this software, it is provided AS-IS.
  20:Drivers/STM32L4xx_HAL_Driver/Src/stm32l4xx_hal_pwr_ex.c ****   *
  21:Drivers/STM32L4xx_HAL_Driver/Src/stm32l4xx_hal_pwr_ex.c ****   ******************************************************************************
  22:Drivers/STM32L4xx_HAL_Driver/Src/stm32l4xx_hal_pwr_ex.c ****   */
  23:Drivers/STM32L4xx_HAL_Driver/Src/stm32l4xx_hal_pwr_ex.c **** 
  24:Drivers/STM32L4xx_HAL_Driver/Src/stm32l4xx_hal_pwr_ex.c **** /* Includes ------------------------------------------------------------------*/
  25:Drivers/STM32L4xx_HAL_Driver/Src/stm32l4xx_hal_pwr_ex.c **** #include "stm32l4xx_hal.h"
  26:Drivers/STM32L4xx_HAL_Driver/Src/stm32l4xx_hal_pwr_ex.c **** 
  27:Drivers/STM32L4xx_HAL_Driver/Src/stm32l4xx_hal_pwr_ex.c **** /** @addtogroup STM32L4xx_HAL_Driver
  28:Drivers/STM32L4xx_HAL_Driver/Src/stm32l4xx_hal_pwr_ex.c ****   * @{
  29:Drivers/STM32L4xx_HAL_Driver/Src/stm32l4xx_hal_pwr_ex.c ****   */
  30:Drivers/STM32L4xx_HAL_Driver/Src/stm32l4xx_hal_pwr_ex.c **** 
ARM GAS  C:\Users\mathi\AppData\Local\Temp\cc6ocpEq.s 			page 2


  31:Drivers/STM32L4xx_HAL_Driver/Src/stm32l4xx_hal_pwr_ex.c **** /** @defgroup PWREx PWREx
  32:Drivers/STM32L4xx_HAL_Driver/Src/stm32l4xx_hal_pwr_ex.c ****   * @brief PWR Extended HAL module driver
  33:Drivers/STM32L4xx_HAL_Driver/Src/stm32l4xx_hal_pwr_ex.c ****   * @{
  34:Drivers/STM32L4xx_HAL_Driver/Src/stm32l4xx_hal_pwr_ex.c ****   */
  35:Drivers/STM32L4xx_HAL_Driver/Src/stm32l4xx_hal_pwr_ex.c **** 
  36:Drivers/STM32L4xx_HAL_Driver/Src/stm32l4xx_hal_pwr_ex.c **** #ifdef HAL_PWR_MODULE_ENABLED
  37:Drivers/STM32L4xx_HAL_Driver/Src/stm32l4xx_hal_pwr_ex.c **** 
  38:Drivers/STM32L4xx_HAL_Driver/Src/stm32l4xx_hal_pwr_ex.c **** /* Private typedef -----------------------------------------------------------*/
  39:Drivers/STM32L4xx_HAL_Driver/Src/stm32l4xx_hal_pwr_ex.c **** /* Private define ------------------------------------------------------------*/
  40:Drivers/STM32L4xx_HAL_Driver/Src/stm32l4xx_hal_pwr_ex.c **** 
  41:Drivers/STM32L4xx_HAL_Driver/Src/stm32l4xx_hal_pwr_ex.c **** #if defined (STM32L412xx) || defined (STM32L422xx) || defined (STM32L431xx) || defined (STM32L432xx
  42:Drivers/STM32L4xx_HAL_Driver/Src/stm32l4xx_hal_pwr_ex.c **** #define PWR_PORTH_AVAILABLE_PINS   ((uint32_t)0x0000000B) /* PH0/PH1/PH3 */
  43:Drivers/STM32L4xx_HAL_Driver/Src/stm32l4xx_hal_pwr_ex.c **** #elif defined (STM32L451xx) || defined (STM32L452xx) || defined (STM32L462xx)
  44:Drivers/STM32L4xx_HAL_Driver/Src/stm32l4xx_hal_pwr_ex.c **** #define PWR_PORTH_AVAILABLE_PINS   ((uint32_t)0x0000000B) /* PH0/PH1/PH3 */
  45:Drivers/STM32L4xx_HAL_Driver/Src/stm32l4xx_hal_pwr_ex.c **** #elif defined (STM32L471xx) || defined (STM32L475xx) || defined (STM32L476xx) || defined (STM32L485
  46:Drivers/STM32L4xx_HAL_Driver/Src/stm32l4xx_hal_pwr_ex.c **** #define PWR_PORTH_AVAILABLE_PINS   ((uint32_t)0x00000003) /* PH0/PH1 */
  47:Drivers/STM32L4xx_HAL_Driver/Src/stm32l4xx_hal_pwr_ex.c **** #elif defined (STM32L496xx) || defined (STM32L4A6xx) || defined (STM32L4P5xx) || defined (STM32L4Q5
  48:Drivers/STM32L4xx_HAL_Driver/Src/stm32l4xx_hal_pwr_ex.c **** #define PWR_PORTH_AVAILABLE_PINS   ((uint32_t)0x0000FFFF) /* PH0..PH15 */
  49:Drivers/STM32L4xx_HAL_Driver/Src/stm32l4xx_hal_pwr_ex.c **** #endif
  50:Drivers/STM32L4xx_HAL_Driver/Src/stm32l4xx_hal_pwr_ex.c **** 
  51:Drivers/STM32L4xx_HAL_Driver/Src/stm32l4xx_hal_pwr_ex.c **** #if defined (STM32L496xx) || defined (STM32L4A6xx) || defined (STM32L4P5xx) || defined (STM32L4Q5xx
  52:Drivers/STM32L4xx_HAL_Driver/Src/stm32l4xx_hal_pwr_ex.c **** #define PWR_PORTI_AVAILABLE_PINS   ((uint32_t)0x00000FFF) /* PI0..PI11 */
  53:Drivers/STM32L4xx_HAL_Driver/Src/stm32l4xx_hal_pwr_ex.c **** #endif
  54:Drivers/STM32L4xx_HAL_Driver/Src/stm32l4xx_hal_pwr_ex.c **** 
  55:Drivers/STM32L4xx_HAL_Driver/Src/stm32l4xx_hal_pwr_ex.c **** /** @defgroup PWR_Extended_Private_Defines PWR Extended Private Defines
  56:Drivers/STM32L4xx_HAL_Driver/Src/stm32l4xx_hal_pwr_ex.c ****   * @{
  57:Drivers/STM32L4xx_HAL_Driver/Src/stm32l4xx_hal_pwr_ex.c ****   */
  58:Drivers/STM32L4xx_HAL_Driver/Src/stm32l4xx_hal_pwr_ex.c **** 
  59:Drivers/STM32L4xx_HAL_Driver/Src/stm32l4xx_hal_pwr_ex.c **** /** @defgroup PWREx_PVM_Mode_Mask PWR PVM Mode Mask
  60:Drivers/STM32L4xx_HAL_Driver/Src/stm32l4xx_hal_pwr_ex.c ****   * @{
  61:Drivers/STM32L4xx_HAL_Driver/Src/stm32l4xx_hal_pwr_ex.c ****   */
  62:Drivers/STM32L4xx_HAL_Driver/Src/stm32l4xx_hal_pwr_ex.c **** #define PVM_MODE_IT               ((uint32_t)0x00010000)  /*!< Mask for interruption yielded by PVM
  63:Drivers/STM32L4xx_HAL_Driver/Src/stm32l4xx_hal_pwr_ex.c **** #define PVM_MODE_EVT              ((uint32_t)0x00020000)  /*!< Mask for event yielded by PVM thresh
  64:Drivers/STM32L4xx_HAL_Driver/Src/stm32l4xx_hal_pwr_ex.c **** #define PVM_RISING_EDGE           ((uint32_t)0x00000001)  /*!< Mask for rising edge set as PVM trig
  65:Drivers/STM32L4xx_HAL_Driver/Src/stm32l4xx_hal_pwr_ex.c **** #define PVM_FALLING_EDGE          ((uint32_t)0x00000002)  /*!< Mask for falling edge set as PVM tri
  66:Drivers/STM32L4xx_HAL_Driver/Src/stm32l4xx_hal_pwr_ex.c **** /**
  67:Drivers/STM32L4xx_HAL_Driver/Src/stm32l4xx_hal_pwr_ex.c ****   * @}
  68:Drivers/STM32L4xx_HAL_Driver/Src/stm32l4xx_hal_pwr_ex.c ****   */
  69:Drivers/STM32L4xx_HAL_Driver/Src/stm32l4xx_hal_pwr_ex.c **** 
  70:Drivers/STM32L4xx_HAL_Driver/Src/stm32l4xx_hal_pwr_ex.c **** /** @defgroup PWREx_TimeOut_Value PWR Extended Flag Setting Time Out Value
  71:Drivers/STM32L4xx_HAL_Driver/Src/stm32l4xx_hal_pwr_ex.c ****   * @{
  72:Drivers/STM32L4xx_HAL_Driver/Src/stm32l4xx_hal_pwr_ex.c ****   */
  73:Drivers/STM32L4xx_HAL_Driver/Src/stm32l4xx_hal_pwr_ex.c **** #define PWR_FLAG_SETTING_DELAY_US                      50UL   /*!< Time out value for REGLPF and VO
  74:Drivers/STM32L4xx_HAL_Driver/Src/stm32l4xx_hal_pwr_ex.c **** /**
  75:Drivers/STM32L4xx_HAL_Driver/Src/stm32l4xx_hal_pwr_ex.c ****   * @}
  76:Drivers/STM32L4xx_HAL_Driver/Src/stm32l4xx_hal_pwr_ex.c ****   */
  77:Drivers/STM32L4xx_HAL_Driver/Src/stm32l4xx_hal_pwr_ex.c **** 
  78:Drivers/STM32L4xx_HAL_Driver/Src/stm32l4xx_hal_pwr_ex.c **** 
  79:Drivers/STM32L4xx_HAL_Driver/Src/stm32l4xx_hal_pwr_ex.c **** 
  80:Drivers/STM32L4xx_HAL_Driver/Src/stm32l4xx_hal_pwr_ex.c **** /**
  81:Drivers/STM32L4xx_HAL_Driver/Src/stm32l4xx_hal_pwr_ex.c ****   * @}
  82:Drivers/STM32L4xx_HAL_Driver/Src/stm32l4xx_hal_pwr_ex.c ****   */
  83:Drivers/STM32L4xx_HAL_Driver/Src/stm32l4xx_hal_pwr_ex.c **** 
  84:Drivers/STM32L4xx_HAL_Driver/Src/stm32l4xx_hal_pwr_ex.c **** 
  85:Drivers/STM32L4xx_HAL_Driver/Src/stm32l4xx_hal_pwr_ex.c **** 
  86:Drivers/STM32L4xx_HAL_Driver/Src/stm32l4xx_hal_pwr_ex.c **** /* Private macro -------------------------------------------------------------*/
  87:Drivers/STM32L4xx_HAL_Driver/Src/stm32l4xx_hal_pwr_ex.c **** /* Private variables ---------------------------------------------------------*/
ARM GAS  C:\Users\mathi\AppData\Local\Temp\cc6ocpEq.s 			page 3


  88:Drivers/STM32L4xx_HAL_Driver/Src/stm32l4xx_hal_pwr_ex.c **** /* Private function prototypes -----------------------------------------------*/
  89:Drivers/STM32L4xx_HAL_Driver/Src/stm32l4xx_hal_pwr_ex.c **** /* Exported functions --------------------------------------------------------*/
  90:Drivers/STM32L4xx_HAL_Driver/Src/stm32l4xx_hal_pwr_ex.c **** 
  91:Drivers/STM32L4xx_HAL_Driver/Src/stm32l4xx_hal_pwr_ex.c **** /** @defgroup PWREx_Exported_Functions PWR Extended Exported Functions
  92:Drivers/STM32L4xx_HAL_Driver/Src/stm32l4xx_hal_pwr_ex.c ****   * @{
  93:Drivers/STM32L4xx_HAL_Driver/Src/stm32l4xx_hal_pwr_ex.c ****   */
  94:Drivers/STM32L4xx_HAL_Driver/Src/stm32l4xx_hal_pwr_ex.c **** 
  95:Drivers/STM32L4xx_HAL_Driver/Src/stm32l4xx_hal_pwr_ex.c **** /** @defgroup PWREx_Exported_Functions_Group1 Extended Peripheral Control functions
  96:Drivers/STM32L4xx_HAL_Driver/Src/stm32l4xx_hal_pwr_ex.c ****   *  @brief   Extended Peripheral Control functions
  97:Drivers/STM32L4xx_HAL_Driver/Src/stm32l4xx_hal_pwr_ex.c ****   *
  98:Drivers/STM32L4xx_HAL_Driver/Src/stm32l4xx_hal_pwr_ex.c **** @verbatim
  99:Drivers/STM32L4xx_HAL_Driver/Src/stm32l4xx_hal_pwr_ex.c ****  ===============================================================================
 100:Drivers/STM32L4xx_HAL_Driver/Src/stm32l4xx_hal_pwr_ex.c ****               ##### Extended Peripheral Initialization and de-initialization functions #####
 101:Drivers/STM32L4xx_HAL_Driver/Src/stm32l4xx_hal_pwr_ex.c ****  ===============================================================================
 102:Drivers/STM32L4xx_HAL_Driver/Src/stm32l4xx_hal_pwr_ex.c ****     [..]
 103:Drivers/STM32L4xx_HAL_Driver/Src/stm32l4xx_hal_pwr_ex.c **** 
 104:Drivers/STM32L4xx_HAL_Driver/Src/stm32l4xx_hal_pwr_ex.c **** @endverbatim
 105:Drivers/STM32L4xx_HAL_Driver/Src/stm32l4xx_hal_pwr_ex.c ****   * @{
 106:Drivers/STM32L4xx_HAL_Driver/Src/stm32l4xx_hal_pwr_ex.c ****   */
 107:Drivers/STM32L4xx_HAL_Driver/Src/stm32l4xx_hal_pwr_ex.c **** 
 108:Drivers/STM32L4xx_HAL_Driver/Src/stm32l4xx_hal_pwr_ex.c **** 
 109:Drivers/STM32L4xx_HAL_Driver/Src/stm32l4xx_hal_pwr_ex.c **** /**
 110:Drivers/STM32L4xx_HAL_Driver/Src/stm32l4xx_hal_pwr_ex.c ****   * @brief Return Voltage Scaling Range.
 111:Drivers/STM32L4xx_HAL_Driver/Src/stm32l4xx_hal_pwr_ex.c ****   * @retval VOS bit field (PWR_REGULATOR_VOLTAGE_SCALE1 or PWR_REGULATOR_VOLTAGE_SCALE2
 112:Drivers/STM32L4xx_HAL_Driver/Src/stm32l4xx_hal_pwr_ex.c ****   *         or PWR_REGULATOR_VOLTAGE_SCALE1_BOOST when applicable)
 113:Drivers/STM32L4xx_HAL_Driver/Src/stm32l4xx_hal_pwr_ex.c ****   */
 114:Drivers/STM32L4xx_HAL_Driver/Src/stm32l4xx_hal_pwr_ex.c **** uint32_t HAL_PWREx_GetVoltageRange(void)
 115:Drivers/STM32L4xx_HAL_Driver/Src/stm32l4xx_hal_pwr_ex.c **** {
  29              		.loc 1 115 1 view -0
  30              		.cfi_startproc
  31              		@ args = 0, pretend = 0, frame = 0
  32              		@ frame_needed = 0, uses_anonymous_args = 0
  33              		@ link register save eliminated.
 116:Drivers/STM32L4xx_HAL_Driver/Src/stm32l4xx_hal_pwr_ex.c **** #if defined(PWR_CR5_R1MODE)
 117:Drivers/STM32L4xx_HAL_Driver/Src/stm32l4xx_hal_pwr_ex.c ****     if (READ_BIT(PWR->CR1, PWR_CR1_VOS) == PWR_REGULATOR_VOLTAGE_SCALE2)
 118:Drivers/STM32L4xx_HAL_Driver/Src/stm32l4xx_hal_pwr_ex.c ****     {
 119:Drivers/STM32L4xx_HAL_Driver/Src/stm32l4xx_hal_pwr_ex.c ****       return PWR_REGULATOR_VOLTAGE_SCALE2;
 120:Drivers/STM32L4xx_HAL_Driver/Src/stm32l4xx_hal_pwr_ex.c ****     }
 121:Drivers/STM32L4xx_HAL_Driver/Src/stm32l4xx_hal_pwr_ex.c ****     else if (READ_BIT(PWR->CR5, PWR_CR5_R1MODE) == PWR_CR5_R1MODE)
 122:Drivers/STM32L4xx_HAL_Driver/Src/stm32l4xx_hal_pwr_ex.c ****     {
 123:Drivers/STM32L4xx_HAL_Driver/Src/stm32l4xx_hal_pwr_ex.c ****       /* PWR_CR5_R1MODE bit set means that Range 1 Boost is disabled */
 124:Drivers/STM32L4xx_HAL_Driver/Src/stm32l4xx_hal_pwr_ex.c ****       return PWR_REGULATOR_VOLTAGE_SCALE1;
 125:Drivers/STM32L4xx_HAL_Driver/Src/stm32l4xx_hal_pwr_ex.c ****     }
 126:Drivers/STM32L4xx_HAL_Driver/Src/stm32l4xx_hal_pwr_ex.c ****     else
 127:Drivers/STM32L4xx_HAL_Driver/Src/stm32l4xx_hal_pwr_ex.c ****     {
 128:Drivers/STM32L4xx_HAL_Driver/Src/stm32l4xx_hal_pwr_ex.c ****       return PWR_REGULATOR_VOLTAGE_SCALE1_BOOST;
 129:Drivers/STM32L4xx_HAL_Driver/Src/stm32l4xx_hal_pwr_ex.c ****     }
 130:Drivers/STM32L4xx_HAL_Driver/Src/stm32l4xx_hal_pwr_ex.c **** #else
 131:Drivers/STM32L4xx_HAL_Driver/Src/stm32l4xx_hal_pwr_ex.c ****   return  (PWR->CR1 & PWR_CR1_VOS);
  34              		.loc 1 131 3 view .LVU1
  35              		.loc 1 131 15 is_stmt 0 view .LVU2
  36 0000 024B     		ldr	r3, .L2
  37 0002 1868     		ldr	r0, [r3]
 132:Drivers/STM32L4xx_HAL_Driver/Src/stm32l4xx_hal_pwr_ex.c **** #endif
 133:Drivers/STM32L4xx_HAL_Driver/Src/stm32l4xx_hal_pwr_ex.c **** }
  38              		.loc 1 133 1 view .LVU3
  39 0004 00F4C060 		and	r0, r0, #1536
ARM GAS  C:\Users\mathi\AppData\Local\Temp\cc6ocpEq.s 			page 4


  40 0008 7047     		bx	lr
  41              	.L3:
  42 000a 00BF     		.align	2
  43              	.L2:
  44 000c 00700040 		.word	1073770496
  45              		.cfi_endproc
  46              	.LFE292:
  48              		.section	.rodata.HAL_PWREx_ControlVoltageScaling.str1.4,"aMS",%progbits,1
  49              		.align	2
  50              	.LC0:
  51 0000 44726976 		.ascii	"Drivers/STM32L4xx_HAL_Driver/Src/stm32l4xx_hal_pwr_"
  51      6572732F 
  51      53544D33 
  51      324C3478 
  51      785F4841 
  52 0033 65782E63 		.ascii	"ex.c\000"
  52      00
  53              		.section	.text.HAL_PWREx_ControlVoltageScaling,"ax",%progbits
  54              		.align	1
  55              		.global	HAL_PWREx_ControlVoltageScaling
  56              		.syntax unified
  57              		.thumb
  58              		.thumb_func
  60              	HAL_PWREx_ControlVoltageScaling:
  61              	.LVL0:
  62              	.LFB293:
 134:Drivers/STM32L4xx_HAL_Driver/Src/stm32l4xx_hal_pwr_ex.c **** 
 135:Drivers/STM32L4xx_HAL_Driver/Src/stm32l4xx_hal_pwr_ex.c **** 
 136:Drivers/STM32L4xx_HAL_Driver/Src/stm32l4xx_hal_pwr_ex.c **** 
 137:Drivers/STM32L4xx_HAL_Driver/Src/stm32l4xx_hal_pwr_ex.c **** /**
 138:Drivers/STM32L4xx_HAL_Driver/Src/stm32l4xx_hal_pwr_ex.c ****   * @brief Configure the main internal regulator output voltage.
 139:Drivers/STM32L4xx_HAL_Driver/Src/stm32l4xx_hal_pwr_ex.c ****   * @param  VoltageScaling specifies the regulator output voltage to achieve
 140:Drivers/STM32L4xx_HAL_Driver/Src/stm32l4xx_hal_pwr_ex.c ****   *         a tradeoff between performance and power consumption.
 141:Drivers/STM32L4xx_HAL_Driver/Src/stm32l4xx_hal_pwr_ex.c ****   *          This parameter can be one of the following values:
 142:Drivers/STM32L4xx_HAL_Driver/Src/stm32l4xx_hal_pwr_ex.c ****   @if STM32L4S9xx
 143:Drivers/STM32L4xx_HAL_Driver/Src/stm32l4xx_hal_pwr_ex.c ****   *            @arg @ref PWR_REGULATOR_VOLTAGE_SCALE1_BOOST when available, Regulator voltage outpu
 144:Drivers/STM32L4xx_HAL_Driver/Src/stm32l4xx_hal_pwr_ex.c ****   *                                                typical output voltage at 1.2 V,
 145:Drivers/STM32L4xx_HAL_Driver/Src/stm32l4xx_hal_pwr_ex.c ****   *                                                system frequency up to 120 MHz.
 146:Drivers/STM32L4xx_HAL_Driver/Src/stm32l4xx_hal_pwr_ex.c ****   @endif
 147:Drivers/STM32L4xx_HAL_Driver/Src/stm32l4xx_hal_pwr_ex.c ****   *            @arg @ref PWR_REGULATOR_VOLTAGE_SCALE1 Regulator voltage output range 1 mode,
 148:Drivers/STM32L4xx_HAL_Driver/Src/stm32l4xx_hal_pwr_ex.c ****   *                                                typical output voltage at 1.2 V,
 149:Drivers/STM32L4xx_HAL_Driver/Src/stm32l4xx_hal_pwr_ex.c ****   *                                                system frequency up to 80 MHz.
 150:Drivers/STM32L4xx_HAL_Driver/Src/stm32l4xx_hal_pwr_ex.c ****   *            @arg @ref PWR_REGULATOR_VOLTAGE_SCALE2 Regulator voltage output range 2 mode,
 151:Drivers/STM32L4xx_HAL_Driver/Src/stm32l4xx_hal_pwr_ex.c ****   *                                                typical output voltage at 1.0 V,
 152:Drivers/STM32L4xx_HAL_Driver/Src/stm32l4xx_hal_pwr_ex.c ****   *                                                system frequency up to 26 MHz.
 153:Drivers/STM32L4xx_HAL_Driver/Src/stm32l4xx_hal_pwr_ex.c ****   * @note  When moving from Range 1 to Range 2, the system frequency must be decreased to
 154:Drivers/STM32L4xx_HAL_Driver/Src/stm32l4xx_hal_pwr_ex.c ****   *        a value below 26 MHz before calling HAL_PWREx_ControlVoltageScaling() API.
 155:Drivers/STM32L4xx_HAL_Driver/Src/stm32l4xx_hal_pwr_ex.c ****   *        When moving from Range 2 to Range 1, the system frequency can be increased to
 156:Drivers/STM32L4xx_HAL_Driver/Src/stm32l4xx_hal_pwr_ex.c ****   *        a value up to 80 MHz after calling HAL_PWREx_ControlVoltageScaling() API. For
 157:Drivers/STM32L4xx_HAL_Driver/Src/stm32l4xx_hal_pwr_ex.c ****   *        some devices, the system frequency can be increased up to 120 MHz.
 158:Drivers/STM32L4xx_HAL_Driver/Src/stm32l4xx_hal_pwr_ex.c ****   * @note  When moving from Range 2 to Range 1, the API waits for VOSF flag to be
 159:Drivers/STM32L4xx_HAL_Driver/Src/stm32l4xx_hal_pwr_ex.c ****   *        cleared before returning the status. If the flag is not cleared within
 160:Drivers/STM32L4xx_HAL_Driver/Src/stm32l4xx_hal_pwr_ex.c ****   *        50 microseconds, HAL_TIMEOUT status is reported.
 161:Drivers/STM32L4xx_HAL_Driver/Src/stm32l4xx_hal_pwr_ex.c ****   * @retval HAL Status
 162:Drivers/STM32L4xx_HAL_Driver/Src/stm32l4xx_hal_pwr_ex.c ****   */
 163:Drivers/STM32L4xx_HAL_Driver/Src/stm32l4xx_hal_pwr_ex.c **** HAL_StatusTypeDef HAL_PWREx_ControlVoltageScaling(uint32_t VoltageScaling)
 164:Drivers/STM32L4xx_HAL_Driver/Src/stm32l4xx_hal_pwr_ex.c **** {
ARM GAS  C:\Users\mathi\AppData\Local\Temp\cc6ocpEq.s 			page 5


  63              		.loc 1 164 1 is_stmt 1 view -0
  64              		.cfi_startproc
  65              		@ args = 0, pretend = 0, frame = 0
  66              		@ frame_needed = 0, uses_anonymous_args = 0
  67              		.loc 1 164 1 is_stmt 0 view .LVU5
  68 0000 08B5     		push	{r3, lr}
  69              		.cfi_def_cfa_offset 8
  70              		.cfi_offset 3, -8
  71              		.cfi_offset 14, -4
 165:Drivers/STM32L4xx_HAL_Driver/Src/stm32l4xx_hal_pwr_ex.c ****   uint32_t wait_loop_index;
  72              		.loc 1 165 3 is_stmt 1 view .LVU6
 166:Drivers/STM32L4xx_HAL_Driver/Src/stm32l4xx_hal_pwr_ex.c **** 
 167:Drivers/STM32L4xx_HAL_Driver/Src/stm32l4xx_hal_pwr_ex.c ****   assert_param(IS_PWR_VOLTAGE_SCALING_RANGE(VoltageScaling));
  73              		.loc 1 167 3 view .LVU7
  74 0002 B0F5007F 		cmp	r0, #512
  75 0006 12D0     		beq	.L15
  76              		.loc 1 167 3 is_stmt 0 discriminator 1 view .LVU8
  77 0008 B0F5806F 		cmp	r0, #1024
  78 000c 2AD1     		bne	.L16
  79              	.LVL1:
  80              	.L8:
 168:Drivers/STM32L4xx_HAL_Driver/Src/stm32l4xx_hal_pwr_ex.c **** 
 169:Drivers/STM32L4xx_HAL_Driver/Src/stm32l4xx_hal_pwr_ex.c **** #if defined(PWR_CR5_R1MODE)
 170:Drivers/STM32L4xx_HAL_Driver/Src/stm32l4xx_hal_pwr_ex.c ****   if (VoltageScaling == PWR_REGULATOR_VOLTAGE_SCALE1_BOOST)
 171:Drivers/STM32L4xx_HAL_Driver/Src/stm32l4xx_hal_pwr_ex.c ****   {
 172:Drivers/STM32L4xx_HAL_Driver/Src/stm32l4xx_hal_pwr_ex.c ****     /* If current range is range 2 */
 173:Drivers/STM32L4xx_HAL_Driver/Src/stm32l4xx_hal_pwr_ex.c ****     if (READ_BIT(PWR->CR1, PWR_CR1_VOS) == PWR_REGULATOR_VOLTAGE_SCALE2)
 174:Drivers/STM32L4xx_HAL_Driver/Src/stm32l4xx_hal_pwr_ex.c ****     {
 175:Drivers/STM32L4xx_HAL_Driver/Src/stm32l4xx_hal_pwr_ex.c ****       /* Make sure Range 1 Boost is enabled */
 176:Drivers/STM32L4xx_HAL_Driver/Src/stm32l4xx_hal_pwr_ex.c ****       CLEAR_BIT(PWR->CR5, PWR_CR5_R1MODE);
 177:Drivers/STM32L4xx_HAL_Driver/Src/stm32l4xx_hal_pwr_ex.c **** 
 178:Drivers/STM32L4xx_HAL_Driver/Src/stm32l4xx_hal_pwr_ex.c ****       /* Set Range 1 */
 179:Drivers/STM32L4xx_HAL_Driver/Src/stm32l4xx_hal_pwr_ex.c ****       MODIFY_REG(PWR->CR1, PWR_CR1_VOS, PWR_REGULATOR_VOLTAGE_SCALE1);
 180:Drivers/STM32L4xx_HAL_Driver/Src/stm32l4xx_hal_pwr_ex.c **** 
 181:Drivers/STM32L4xx_HAL_Driver/Src/stm32l4xx_hal_pwr_ex.c ****       /* Wait until VOSF is cleared */
 182:Drivers/STM32L4xx_HAL_Driver/Src/stm32l4xx_hal_pwr_ex.c ****       wait_loop_index = ((PWR_FLAG_SETTING_DELAY_US * SystemCoreClock) / 1000000U) + 1;
 183:Drivers/STM32L4xx_HAL_Driver/Src/stm32l4xx_hal_pwr_ex.c ****       while ((HAL_IS_BIT_SET(PWR->SR2, PWR_SR2_VOSF)) && (wait_loop_index != 0U))
 184:Drivers/STM32L4xx_HAL_Driver/Src/stm32l4xx_hal_pwr_ex.c ****       {
 185:Drivers/STM32L4xx_HAL_Driver/Src/stm32l4xx_hal_pwr_ex.c ****         wait_loop_index--;
 186:Drivers/STM32L4xx_HAL_Driver/Src/stm32l4xx_hal_pwr_ex.c ****       }
 187:Drivers/STM32L4xx_HAL_Driver/Src/stm32l4xx_hal_pwr_ex.c ****       if (HAL_IS_BIT_SET(PWR->SR2, PWR_SR2_VOSF))
 188:Drivers/STM32L4xx_HAL_Driver/Src/stm32l4xx_hal_pwr_ex.c ****       {
 189:Drivers/STM32L4xx_HAL_Driver/Src/stm32l4xx_hal_pwr_ex.c ****         return HAL_TIMEOUT;
 190:Drivers/STM32L4xx_HAL_Driver/Src/stm32l4xx_hal_pwr_ex.c ****       }
 191:Drivers/STM32L4xx_HAL_Driver/Src/stm32l4xx_hal_pwr_ex.c ****     }
 192:Drivers/STM32L4xx_HAL_Driver/Src/stm32l4xx_hal_pwr_ex.c ****     /* If current range is range 1 normal or boost mode */
 193:Drivers/STM32L4xx_HAL_Driver/Src/stm32l4xx_hal_pwr_ex.c ****     else
 194:Drivers/STM32L4xx_HAL_Driver/Src/stm32l4xx_hal_pwr_ex.c ****     {
 195:Drivers/STM32L4xx_HAL_Driver/Src/stm32l4xx_hal_pwr_ex.c ****       /* Enable Range 1 Boost (no issue if bit already reset) */
 196:Drivers/STM32L4xx_HAL_Driver/Src/stm32l4xx_hal_pwr_ex.c ****       CLEAR_BIT(PWR->CR5, PWR_CR5_R1MODE);
 197:Drivers/STM32L4xx_HAL_Driver/Src/stm32l4xx_hal_pwr_ex.c ****     }
 198:Drivers/STM32L4xx_HAL_Driver/Src/stm32l4xx_hal_pwr_ex.c ****   }
 199:Drivers/STM32L4xx_HAL_Driver/Src/stm32l4xx_hal_pwr_ex.c ****   else if (VoltageScaling == PWR_REGULATOR_VOLTAGE_SCALE1)
 200:Drivers/STM32L4xx_HAL_Driver/Src/stm32l4xx_hal_pwr_ex.c ****   {
 201:Drivers/STM32L4xx_HAL_Driver/Src/stm32l4xx_hal_pwr_ex.c ****     /* If current range is range 2 */
 202:Drivers/STM32L4xx_HAL_Driver/Src/stm32l4xx_hal_pwr_ex.c ****     if (READ_BIT(PWR->CR1, PWR_CR1_VOS) == PWR_REGULATOR_VOLTAGE_SCALE2)
 203:Drivers/STM32L4xx_HAL_Driver/Src/stm32l4xx_hal_pwr_ex.c ****     {
ARM GAS  C:\Users\mathi\AppData\Local\Temp\cc6ocpEq.s 			page 6


 204:Drivers/STM32L4xx_HAL_Driver/Src/stm32l4xx_hal_pwr_ex.c ****       /* Make sure Range 1 Boost is disabled */
 205:Drivers/STM32L4xx_HAL_Driver/Src/stm32l4xx_hal_pwr_ex.c ****       SET_BIT(PWR->CR5, PWR_CR5_R1MODE);
 206:Drivers/STM32L4xx_HAL_Driver/Src/stm32l4xx_hal_pwr_ex.c **** 
 207:Drivers/STM32L4xx_HAL_Driver/Src/stm32l4xx_hal_pwr_ex.c ****       /* Set Range 1 */
 208:Drivers/STM32L4xx_HAL_Driver/Src/stm32l4xx_hal_pwr_ex.c ****       MODIFY_REG(PWR->CR1, PWR_CR1_VOS, PWR_REGULATOR_VOLTAGE_SCALE1);
 209:Drivers/STM32L4xx_HAL_Driver/Src/stm32l4xx_hal_pwr_ex.c **** 
 210:Drivers/STM32L4xx_HAL_Driver/Src/stm32l4xx_hal_pwr_ex.c ****       /* Wait until VOSF is cleared */
 211:Drivers/STM32L4xx_HAL_Driver/Src/stm32l4xx_hal_pwr_ex.c ****       wait_loop_index = ((PWR_FLAG_SETTING_DELAY_US * SystemCoreClock) / 1000000U) + 1;
 212:Drivers/STM32L4xx_HAL_Driver/Src/stm32l4xx_hal_pwr_ex.c ****       while ((HAL_IS_BIT_SET(PWR->SR2, PWR_SR2_VOSF)) && (wait_loop_index != 0U))
 213:Drivers/STM32L4xx_HAL_Driver/Src/stm32l4xx_hal_pwr_ex.c ****       {
 214:Drivers/STM32L4xx_HAL_Driver/Src/stm32l4xx_hal_pwr_ex.c ****         wait_loop_index--;
 215:Drivers/STM32L4xx_HAL_Driver/Src/stm32l4xx_hal_pwr_ex.c ****       }
 216:Drivers/STM32L4xx_HAL_Driver/Src/stm32l4xx_hal_pwr_ex.c ****       if (HAL_IS_BIT_SET(PWR->SR2, PWR_SR2_VOSF))
 217:Drivers/STM32L4xx_HAL_Driver/Src/stm32l4xx_hal_pwr_ex.c ****       {
 218:Drivers/STM32L4xx_HAL_Driver/Src/stm32l4xx_hal_pwr_ex.c ****         return HAL_TIMEOUT;
 219:Drivers/STM32L4xx_HAL_Driver/Src/stm32l4xx_hal_pwr_ex.c ****       }
 220:Drivers/STM32L4xx_HAL_Driver/Src/stm32l4xx_hal_pwr_ex.c ****     }
 221:Drivers/STM32L4xx_HAL_Driver/Src/stm32l4xx_hal_pwr_ex.c ****      /* If current range is range 1 normal or boost mode */
 222:Drivers/STM32L4xx_HAL_Driver/Src/stm32l4xx_hal_pwr_ex.c ****     else
 223:Drivers/STM32L4xx_HAL_Driver/Src/stm32l4xx_hal_pwr_ex.c ****     {
 224:Drivers/STM32L4xx_HAL_Driver/Src/stm32l4xx_hal_pwr_ex.c ****       /* Disable Range 1 Boost (no issue if bit already set) */
 225:Drivers/STM32L4xx_HAL_Driver/Src/stm32l4xx_hal_pwr_ex.c ****       SET_BIT(PWR->CR5, PWR_CR5_R1MODE);
 226:Drivers/STM32L4xx_HAL_Driver/Src/stm32l4xx_hal_pwr_ex.c ****     }
 227:Drivers/STM32L4xx_HAL_Driver/Src/stm32l4xx_hal_pwr_ex.c ****   }
 228:Drivers/STM32L4xx_HAL_Driver/Src/stm32l4xx_hal_pwr_ex.c ****   else
 229:Drivers/STM32L4xx_HAL_Driver/Src/stm32l4xx_hal_pwr_ex.c ****   {
 230:Drivers/STM32L4xx_HAL_Driver/Src/stm32l4xx_hal_pwr_ex.c ****     /* Set Range 2 */
 231:Drivers/STM32L4xx_HAL_Driver/Src/stm32l4xx_hal_pwr_ex.c ****     MODIFY_REG(PWR->CR1, PWR_CR1_VOS, PWR_REGULATOR_VOLTAGE_SCALE2);
 232:Drivers/STM32L4xx_HAL_Driver/Src/stm32l4xx_hal_pwr_ex.c ****     /* No need to wait for VOSF to be cleared for this transition */
 233:Drivers/STM32L4xx_HAL_Driver/Src/stm32l4xx_hal_pwr_ex.c ****     /* PWR_CR5_R1MODE bit setting has no effect in Range 2        */
 234:Drivers/STM32L4xx_HAL_Driver/Src/stm32l4xx_hal_pwr_ex.c ****   }
 235:Drivers/STM32L4xx_HAL_Driver/Src/stm32l4xx_hal_pwr_ex.c **** 
 236:Drivers/STM32L4xx_HAL_Driver/Src/stm32l4xx_hal_pwr_ex.c **** #else
 237:Drivers/STM32L4xx_HAL_Driver/Src/stm32l4xx_hal_pwr_ex.c **** 
 238:Drivers/STM32L4xx_HAL_Driver/Src/stm32l4xx_hal_pwr_ex.c ****   /* If Set Range 1 */
 239:Drivers/STM32L4xx_HAL_Driver/Src/stm32l4xx_hal_pwr_ex.c ****   if (VoltageScaling == PWR_REGULATOR_VOLTAGE_SCALE1)
 240:Drivers/STM32L4xx_HAL_Driver/Src/stm32l4xx_hal_pwr_ex.c ****   {
 241:Drivers/STM32L4xx_HAL_Driver/Src/stm32l4xx_hal_pwr_ex.c ****     if (READ_BIT(PWR->CR1, PWR_CR1_VOS) != PWR_REGULATOR_VOLTAGE_SCALE1)
 242:Drivers/STM32L4xx_HAL_Driver/Src/stm32l4xx_hal_pwr_ex.c ****     {
 243:Drivers/STM32L4xx_HAL_Driver/Src/stm32l4xx_hal_pwr_ex.c ****       /* Set Range 1 */
 244:Drivers/STM32L4xx_HAL_Driver/Src/stm32l4xx_hal_pwr_ex.c ****       MODIFY_REG(PWR->CR1, PWR_CR1_VOS, PWR_REGULATOR_VOLTAGE_SCALE1);
 245:Drivers/STM32L4xx_HAL_Driver/Src/stm32l4xx_hal_pwr_ex.c **** 
 246:Drivers/STM32L4xx_HAL_Driver/Src/stm32l4xx_hal_pwr_ex.c ****       /* Wait until VOSF is cleared */
 247:Drivers/STM32L4xx_HAL_Driver/Src/stm32l4xx_hal_pwr_ex.c ****       wait_loop_index = ((PWR_FLAG_SETTING_DELAY_US * SystemCoreClock) / 1000000U) + 1U;
 248:Drivers/STM32L4xx_HAL_Driver/Src/stm32l4xx_hal_pwr_ex.c ****       while ((HAL_IS_BIT_SET(PWR->SR2, PWR_SR2_VOSF)) && (wait_loop_index != 0U))
 249:Drivers/STM32L4xx_HAL_Driver/Src/stm32l4xx_hal_pwr_ex.c ****       {
 250:Drivers/STM32L4xx_HAL_Driver/Src/stm32l4xx_hal_pwr_ex.c ****         wait_loop_index--;
 251:Drivers/STM32L4xx_HAL_Driver/Src/stm32l4xx_hal_pwr_ex.c ****       }
 252:Drivers/STM32L4xx_HAL_Driver/Src/stm32l4xx_hal_pwr_ex.c ****       if (HAL_IS_BIT_SET(PWR->SR2, PWR_SR2_VOSF))
 253:Drivers/STM32L4xx_HAL_Driver/Src/stm32l4xx_hal_pwr_ex.c ****       {
 254:Drivers/STM32L4xx_HAL_Driver/Src/stm32l4xx_hal_pwr_ex.c ****         return HAL_TIMEOUT;
 255:Drivers/STM32L4xx_HAL_Driver/Src/stm32l4xx_hal_pwr_ex.c ****       }
 256:Drivers/STM32L4xx_HAL_Driver/Src/stm32l4xx_hal_pwr_ex.c ****     }
 257:Drivers/STM32L4xx_HAL_Driver/Src/stm32l4xx_hal_pwr_ex.c ****   }
 258:Drivers/STM32L4xx_HAL_Driver/Src/stm32l4xx_hal_pwr_ex.c ****   else
 259:Drivers/STM32L4xx_HAL_Driver/Src/stm32l4xx_hal_pwr_ex.c ****   {
 260:Drivers/STM32L4xx_HAL_Driver/Src/stm32l4xx_hal_pwr_ex.c ****     if (READ_BIT(PWR->CR1, PWR_CR1_VOS) != PWR_REGULATOR_VOLTAGE_SCALE2)
ARM GAS  C:\Users\mathi\AppData\Local\Temp\cc6ocpEq.s 			page 7


  81              		.loc 1 260 5 is_stmt 1 view .LVU9
  82              		.loc 1 260 9 is_stmt 0 view .LVU10
  83 000e 214B     		ldr	r3, .L18
  84 0010 1B68     		ldr	r3, [r3]
  85 0012 03F4C063 		and	r3, r3, #1536
  86              		.loc 1 260 8 view .LVU11
  87 0016 B3F5806F 		cmp	r3, #1024
  88 001a 39D0     		beq	.L13
 261:Drivers/STM32L4xx_HAL_Driver/Src/stm32l4xx_hal_pwr_ex.c ****     {
 262:Drivers/STM32L4xx_HAL_Driver/Src/stm32l4xx_hal_pwr_ex.c ****       /* Set Range 2 */
 263:Drivers/STM32L4xx_HAL_Driver/Src/stm32l4xx_hal_pwr_ex.c ****       MODIFY_REG(PWR->CR1, PWR_CR1_VOS, PWR_REGULATOR_VOLTAGE_SCALE2);
  89              		.loc 1 263 7 is_stmt 1 view .LVU12
  90 001c 1D4A     		ldr	r2, .L18
  91 001e 1368     		ldr	r3, [r2]
  92 0020 23F4C063 		bic	r3, r3, #1536
  93 0024 43F48063 		orr	r3, r3, #1024
  94 0028 1360     		str	r3, [r2]
 264:Drivers/STM32L4xx_HAL_Driver/Src/stm32l4xx_hal_pwr_ex.c ****       /* No need to wait for VOSF to be cleared for this transition */
 265:Drivers/STM32L4xx_HAL_Driver/Src/stm32l4xx_hal_pwr_ex.c ****     }
 266:Drivers/STM32L4xx_HAL_Driver/Src/stm32l4xx_hal_pwr_ex.c ****   }
 267:Drivers/STM32L4xx_HAL_Driver/Src/stm32l4xx_hal_pwr_ex.c **** #endif
 268:Drivers/STM32L4xx_HAL_Driver/Src/stm32l4xx_hal_pwr_ex.c **** 
 269:Drivers/STM32L4xx_HAL_Driver/Src/stm32l4xx_hal_pwr_ex.c ****   return HAL_OK;
  95              		.loc 1 269 10 is_stmt 0 view .LVU13
  96 002a 0020     		movs	r0, #0
  97              	.L7:
 270:Drivers/STM32L4xx_HAL_Driver/Src/stm32l4xx_hal_pwr_ex.c **** }
  98              		.loc 1 270 1 view .LVU14
  99 002c 08BD     		pop	{r3, pc}
 100              	.LVL2:
 101              	.L15:
 239:Drivers/STM32L4xx_HAL_Driver/Src/stm32l4xx_hal_pwr_ex.c ****   {
 102              		.loc 1 239 3 is_stmt 1 view .LVU15
 241:Drivers/STM32L4xx_HAL_Driver/Src/stm32l4xx_hal_pwr_ex.c ****     {
 103              		.loc 1 241 5 view .LVU16
 241:Drivers/STM32L4xx_HAL_Driver/Src/stm32l4xx_hal_pwr_ex.c ****     {
 104              		.loc 1 241 9 is_stmt 0 view .LVU17
 105 002e 194B     		ldr	r3, .L18
 106 0030 1B68     		ldr	r3, [r3]
 107 0032 03F4C063 		and	r3, r3, #1536
 241:Drivers/STM32L4xx_HAL_Driver/Src/stm32l4xx_hal_pwr_ex.c ****     {
 108              		.loc 1 241 8 view .LVU18
 109 0036 B3F5007F 		cmp	r3, #512
 110 003a 11D0     		beq	.L17
 244:Drivers/STM32L4xx_HAL_Driver/Src/stm32l4xx_hal_pwr_ex.c **** 
 111              		.loc 1 244 7 is_stmt 1 view .LVU19
 112 003c 154A     		ldr	r2, .L18
 113 003e 1368     		ldr	r3, [r2]
 114 0040 23F4C063 		bic	r3, r3, #1536
 115 0044 43F40073 		orr	r3, r3, #512
 116 0048 1360     		str	r3, [r2]
 247:Drivers/STM32L4xx_HAL_Driver/Src/stm32l4xx_hal_pwr_ex.c ****       while ((HAL_IS_BIT_SET(PWR->SR2, PWR_SR2_VOSF)) && (wait_loop_index != 0U))
 117              		.loc 1 247 7 view .LVU20
 247:Drivers/STM32L4xx_HAL_Driver/Src/stm32l4xx_hal_pwr_ex.c ****       while ((HAL_IS_BIT_SET(PWR->SR2, PWR_SR2_VOSF)) && (wait_loop_index != 0U))
 118              		.loc 1 247 53 is_stmt 0 view .LVU21
 119 004a 134B     		ldr	r3, .L18+4
 120 004c 1B68     		ldr	r3, [r3]
ARM GAS  C:\Users\mathi\AppData\Local\Temp\cc6ocpEq.s 			page 8


 121 004e 3222     		movs	r2, #50
 122 0050 02FB03F3 		mul	r3, r2, r3
 247:Drivers/STM32L4xx_HAL_Driver/Src/stm32l4xx_hal_pwr_ex.c ****       while ((HAL_IS_BIT_SET(PWR->SR2, PWR_SR2_VOSF)) && (wait_loop_index != 0U))
 123              		.loc 1 247 72 view .LVU22
 124 0054 114A     		ldr	r2, .L18+8
 125 0056 A2FB0323 		umull	r2, r3, r2, r3
 126 005a 9B0C     		lsrs	r3, r3, #18
 247:Drivers/STM32L4xx_HAL_Driver/Src/stm32l4xx_hal_pwr_ex.c ****       while ((HAL_IS_BIT_SET(PWR->SR2, PWR_SR2_VOSF)) && (wait_loop_index != 0U))
 127              		.loc 1 247 23 view .LVU23
 128 005c 0133     		adds	r3, r3, #1
 129              	.LVL3:
 248:Drivers/STM32L4xx_HAL_Driver/Src/stm32l4xx_hal_pwr_ex.c ****       {
 130              		.loc 1 248 7 is_stmt 1 view .LVU24
 248:Drivers/STM32L4xx_HAL_Driver/Src/stm32l4xx_hal_pwr_ex.c ****       {
 131              		.loc 1 248 13 is_stmt 0 view .LVU25
 132 005e 07E0     		b	.L9
 133              	.LVL4:
 134              	.L17:
 269:Drivers/STM32L4xx_HAL_Driver/Src/stm32l4xx_hal_pwr_ex.c **** }
 135              		.loc 1 269 10 view .LVU26
 136 0060 0020     		movs	r0, #0
 137              	.LVL5:
 269:Drivers/STM32L4xx_HAL_Driver/Src/stm32l4xx_hal_pwr_ex.c **** }
 138              		.loc 1 269 10 view .LVU27
 139 0062 E3E7     		b	.L7
 140              	.LVL6:
 141              	.L16:
 167:Drivers/STM32L4xx_HAL_Driver/Src/stm32l4xx_hal_pwr_ex.c **** 
 142              		.loc 1 167 3 discriminator 2 view .LVU28
 143 0064 A721     		movs	r1, #167
 144 0066 0E48     		ldr	r0, .L18+12
 145              	.LVL7:
 167:Drivers/STM32L4xx_HAL_Driver/Src/stm32l4xx_hal_pwr_ex.c **** 
 146              		.loc 1 167 3 discriminator 2 view .LVU29
 147 0068 FFF7FEFF 		bl	assert_failed
 148              	.LVL8:
 239:Drivers/STM32L4xx_HAL_Driver/Src/stm32l4xx_hal_pwr_ex.c ****   {
 149              		.loc 1 239 3 is_stmt 1 view .LVU30
 150 006c CFE7     		b	.L8
 151              	.LVL9:
 152              	.L11:
 250:Drivers/STM32L4xx_HAL_Driver/Src/stm32l4xx_hal_pwr_ex.c ****       }
 153              		.loc 1 250 9 view .LVU31
 250:Drivers/STM32L4xx_HAL_Driver/Src/stm32l4xx_hal_pwr_ex.c ****       }
 154              		.loc 1 250 24 is_stmt 0 view .LVU32
 155 006e 013B     		subs	r3, r3, #1
 156              	.LVL10:
 157              	.L9:
 248:Drivers/STM32L4xx_HAL_Driver/Src/stm32l4xx_hal_pwr_ex.c ****       {
 158              		.loc 1 248 55 is_stmt 1 view .LVU33
 248:Drivers/STM32L4xx_HAL_Driver/Src/stm32l4xx_hal_pwr_ex.c ****       {
 159              		.loc 1 248 15 is_stmt 0 view .LVU34
 160 0070 084A     		ldr	r2, .L18
 161 0072 5269     		ldr	r2, [r2, #20]
 248:Drivers/STM32L4xx_HAL_Driver/Src/stm32l4xx_hal_pwr_ex.c ****       {
 162              		.loc 1 248 55 view .LVU35
 163 0074 12F4806F 		tst	r2, #1024
ARM GAS  C:\Users\mathi\AppData\Local\Temp\cc6ocpEq.s 			page 9


 164 0078 01D0     		beq	.L10
 248:Drivers/STM32L4xx_HAL_Driver/Src/stm32l4xx_hal_pwr_ex.c ****       {
 165              		.loc 1 248 55 discriminator 1 view .LVU36
 166 007a 002B     		cmp	r3, #0
 167 007c F7D1     		bne	.L11
 168              	.L10:
 252:Drivers/STM32L4xx_HAL_Driver/Src/stm32l4xx_hal_pwr_ex.c ****       {
 169              		.loc 1 252 7 is_stmt 1 view .LVU37
 252:Drivers/STM32L4xx_HAL_Driver/Src/stm32l4xx_hal_pwr_ex.c ****       {
 170              		.loc 1 252 11 is_stmt 0 view .LVU38
 171 007e 054B     		ldr	r3, .L18
 172              	.LVL11:
 252:Drivers/STM32L4xx_HAL_Driver/Src/stm32l4xx_hal_pwr_ex.c ****       {
 173              		.loc 1 252 11 view .LVU39
 174 0080 5B69     		ldr	r3, [r3, #20]
 252:Drivers/STM32L4xx_HAL_Driver/Src/stm32l4xx_hal_pwr_ex.c ****       {
 175              		.loc 1 252 10 view .LVU40
 176 0082 13F4806F 		tst	r3, #1024
 177 0086 01D1     		bne	.L12
 269:Drivers/STM32L4xx_HAL_Driver/Src/stm32l4xx_hal_pwr_ex.c **** }
 178              		.loc 1 269 10 view .LVU41
 179 0088 0020     		movs	r0, #0
 180              	.LVL12:
 269:Drivers/STM32L4xx_HAL_Driver/Src/stm32l4xx_hal_pwr_ex.c **** }
 181              		.loc 1 269 10 view .LVU42
 182 008a CFE7     		b	.L7
 183              	.LVL13:
 184              	.L12:
 254:Drivers/STM32L4xx_HAL_Driver/Src/stm32l4xx_hal_pwr_ex.c ****       }
 185              		.loc 1 254 16 view .LVU43
 186 008c 0320     		movs	r0, #3
 187              	.LVL14:
 254:Drivers/STM32L4xx_HAL_Driver/Src/stm32l4xx_hal_pwr_ex.c ****       }
 188              		.loc 1 254 16 view .LVU44
 189 008e CDE7     		b	.L7
 190              	.LVL15:
 191              	.L13:
 269:Drivers/STM32L4xx_HAL_Driver/Src/stm32l4xx_hal_pwr_ex.c **** }
 192              		.loc 1 269 10 view .LVU45
 193 0090 0020     		movs	r0, #0
 194 0092 CBE7     		b	.L7
 195              	.L19:
 196              		.align	2
 197              	.L18:
 198 0094 00700040 		.word	1073770496
 199 0098 00000000 		.word	SystemCoreClock
 200 009c 83DE1B43 		.word	1125899907
 201 00a0 00000000 		.word	.LC0
 202              		.cfi_endproc
 203              	.LFE293:
 205              		.section	.text.HAL_PWREx_EnableBatteryCharging,"ax",%progbits
 206              		.align	1
 207              		.global	HAL_PWREx_EnableBatteryCharging
 208              		.syntax unified
 209              		.thumb
 210              		.thumb_func
 212              	HAL_PWREx_EnableBatteryCharging:
ARM GAS  C:\Users\mathi\AppData\Local\Temp\cc6ocpEq.s 			page 10


 213              	.LVL16:
 214              	.LFB294:
 271:Drivers/STM32L4xx_HAL_Driver/Src/stm32l4xx_hal_pwr_ex.c **** 
 272:Drivers/STM32L4xx_HAL_Driver/Src/stm32l4xx_hal_pwr_ex.c **** 
 273:Drivers/STM32L4xx_HAL_Driver/Src/stm32l4xx_hal_pwr_ex.c **** /**
 274:Drivers/STM32L4xx_HAL_Driver/Src/stm32l4xx_hal_pwr_ex.c ****   * @brief Enable battery charging.
 275:Drivers/STM32L4xx_HAL_Driver/Src/stm32l4xx_hal_pwr_ex.c ****   *        When VDD is present, charge the external battery on VBAT through an internal resistor.
 276:Drivers/STM32L4xx_HAL_Driver/Src/stm32l4xx_hal_pwr_ex.c ****   * @param  ResistorSelection specifies the resistor impedance.
 277:Drivers/STM32L4xx_HAL_Driver/Src/stm32l4xx_hal_pwr_ex.c ****   *          This parameter can be one of the following values:
 278:Drivers/STM32L4xx_HAL_Driver/Src/stm32l4xx_hal_pwr_ex.c ****   *            @arg @ref PWR_BATTERY_CHARGING_RESISTOR_5     5 kOhms resistor
 279:Drivers/STM32L4xx_HAL_Driver/Src/stm32l4xx_hal_pwr_ex.c ****   *            @arg @ref PWR_BATTERY_CHARGING_RESISTOR_1_5 1.5 kOhms resistor
 280:Drivers/STM32L4xx_HAL_Driver/Src/stm32l4xx_hal_pwr_ex.c ****   * @retval None
 281:Drivers/STM32L4xx_HAL_Driver/Src/stm32l4xx_hal_pwr_ex.c ****   */
 282:Drivers/STM32L4xx_HAL_Driver/Src/stm32l4xx_hal_pwr_ex.c **** void HAL_PWREx_EnableBatteryCharging(uint32_t ResistorSelection)
 283:Drivers/STM32L4xx_HAL_Driver/Src/stm32l4xx_hal_pwr_ex.c **** {
 215              		.loc 1 283 1 is_stmt 1 view -0
 216              		.cfi_startproc
 217              		@ args = 0, pretend = 0, frame = 0
 218              		@ frame_needed = 0, uses_anonymous_args = 0
 219              		.loc 1 283 1 is_stmt 0 view .LVU47
 220 0000 10B5     		push	{r4, lr}
 221              		.cfi_def_cfa_offset 8
 222              		.cfi_offset 4, -8
 223              		.cfi_offset 14, -4
 284:Drivers/STM32L4xx_HAL_Driver/Src/stm32l4xx_hal_pwr_ex.c ****   assert_param(IS_PWR_BATTERY_RESISTOR_SELECT(ResistorSelection));
 224              		.loc 1 284 3 is_stmt 1 view .LVU48
 225 0002 0446     		mov	r4, r0
 226 0004 10B1     		cbz	r0, .L21
 227              		.loc 1 284 3 is_stmt 0 discriminator 1 view .LVU49
 228 0006 B0F5007F 		cmp	r0, #512
 229 000a 0AD1     		bne	.L23
 230              	.LVL17:
 231              	.L21:
 285:Drivers/STM32L4xx_HAL_Driver/Src/stm32l4xx_hal_pwr_ex.c **** 
 286:Drivers/STM32L4xx_HAL_Driver/Src/stm32l4xx_hal_pwr_ex.c ****   /* Specify resistor selection */
 287:Drivers/STM32L4xx_HAL_Driver/Src/stm32l4xx_hal_pwr_ex.c ****   MODIFY_REG(PWR->CR4, PWR_CR4_VBRS, ResistorSelection);
 232              		.loc 1 287 3 is_stmt 1 view .LVU50
 233 000c 084A     		ldr	r2, .L24
 234 000e D368     		ldr	r3, [r2, #12]
 235 0010 23F40073 		bic	r3, r3, #512
 236 0014 2343     		orrs	r3, r3, r4
 237 0016 D360     		str	r3, [r2, #12]
 288:Drivers/STM32L4xx_HAL_Driver/Src/stm32l4xx_hal_pwr_ex.c **** 
 289:Drivers/STM32L4xx_HAL_Driver/Src/stm32l4xx_hal_pwr_ex.c ****   /* Enable battery charging */
 290:Drivers/STM32L4xx_HAL_Driver/Src/stm32l4xx_hal_pwr_ex.c ****   SET_BIT(PWR->CR4, PWR_CR4_VBE);
 238              		.loc 1 290 3 view .LVU51
 239 0018 D368     		ldr	r3, [r2, #12]
 240 001a 43F48073 		orr	r3, r3, #256
 241 001e D360     		str	r3, [r2, #12]
 291:Drivers/STM32L4xx_HAL_Driver/Src/stm32l4xx_hal_pwr_ex.c **** }
 242              		.loc 1 291 1 is_stmt 0 view .LVU52
 243 0020 10BD     		pop	{r4, pc}
 244              	.LVL18:
 245              	.L23:
 284:Drivers/STM32L4xx_HAL_Driver/Src/stm32l4xx_hal_pwr_ex.c **** 
 246              		.loc 1 284 3 discriminator 2 view .LVU53
 247 0022 4FF48E71 		mov	r1, #284
ARM GAS  C:\Users\mathi\AppData\Local\Temp\cc6ocpEq.s 			page 11


 248 0026 0348     		ldr	r0, .L24+4
 249              	.LVL19:
 284:Drivers/STM32L4xx_HAL_Driver/Src/stm32l4xx_hal_pwr_ex.c **** 
 250              		.loc 1 284 3 discriminator 2 view .LVU54
 251 0028 FFF7FEFF 		bl	assert_failed
 252              	.LVL20:
 253 002c EEE7     		b	.L21
 254              	.L25:
 255 002e 00BF     		.align	2
 256              	.L24:
 257 0030 00700040 		.word	1073770496
 258 0034 00000000 		.word	.LC0
 259              		.cfi_endproc
 260              	.LFE294:
 262              		.section	.text.HAL_PWREx_DisableBatteryCharging,"ax",%progbits
 263              		.align	1
 264              		.global	HAL_PWREx_DisableBatteryCharging
 265              		.syntax unified
 266              		.thumb
 267              		.thumb_func
 269              	HAL_PWREx_DisableBatteryCharging:
 270              	.LFB295:
 292:Drivers/STM32L4xx_HAL_Driver/Src/stm32l4xx_hal_pwr_ex.c **** 
 293:Drivers/STM32L4xx_HAL_Driver/Src/stm32l4xx_hal_pwr_ex.c **** 
 294:Drivers/STM32L4xx_HAL_Driver/Src/stm32l4xx_hal_pwr_ex.c **** /**
 295:Drivers/STM32L4xx_HAL_Driver/Src/stm32l4xx_hal_pwr_ex.c ****   * @brief Disable battery charging.
 296:Drivers/STM32L4xx_HAL_Driver/Src/stm32l4xx_hal_pwr_ex.c ****   * @retval None
 297:Drivers/STM32L4xx_HAL_Driver/Src/stm32l4xx_hal_pwr_ex.c ****   */
 298:Drivers/STM32L4xx_HAL_Driver/Src/stm32l4xx_hal_pwr_ex.c **** void HAL_PWREx_DisableBatteryCharging(void)
 299:Drivers/STM32L4xx_HAL_Driver/Src/stm32l4xx_hal_pwr_ex.c **** {
 271              		.loc 1 299 1 is_stmt 1 view -0
 272              		.cfi_startproc
 273              		@ args = 0, pretend = 0, frame = 0
 274              		@ frame_needed = 0, uses_anonymous_args = 0
 275              		@ link register save eliminated.
 300:Drivers/STM32L4xx_HAL_Driver/Src/stm32l4xx_hal_pwr_ex.c ****   CLEAR_BIT(PWR->CR4, PWR_CR4_VBE);
 276              		.loc 1 300 3 view .LVU56
 277 0000 024A     		ldr	r2, .L27
 278 0002 D368     		ldr	r3, [r2, #12]
 279 0004 23F48073 		bic	r3, r3, #256
 280 0008 D360     		str	r3, [r2, #12]
 301:Drivers/STM32L4xx_HAL_Driver/Src/stm32l4xx_hal_pwr_ex.c **** }
 281              		.loc 1 301 1 is_stmt 0 view .LVU57
 282 000a 7047     		bx	lr
 283              	.L28:
 284              		.align	2
 285              	.L27:
 286 000c 00700040 		.word	1073770496
 287              		.cfi_endproc
 288              	.LFE295:
 290              		.section	.text.HAL_PWREx_EnableVddUSB,"ax",%progbits
 291              		.align	1
 292              		.global	HAL_PWREx_EnableVddUSB
 293              		.syntax unified
 294              		.thumb
 295              		.thumb_func
 297              	HAL_PWREx_EnableVddUSB:
ARM GAS  C:\Users\mathi\AppData\Local\Temp\cc6ocpEq.s 			page 12


 298              	.LFB296:
 302:Drivers/STM32L4xx_HAL_Driver/Src/stm32l4xx_hal_pwr_ex.c **** 
 303:Drivers/STM32L4xx_HAL_Driver/Src/stm32l4xx_hal_pwr_ex.c **** 
 304:Drivers/STM32L4xx_HAL_Driver/Src/stm32l4xx_hal_pwr_ex.c **** #if defined(PWR_CR2_USV)
 305:Drivers/STM32L4xx_HAL_Driver/Src/stm32l4xx_hal_pwr_ex.c **** /**
 306:Drivers/STM32L4xx_HAL_Driver/Src/stm32l4xx_hal_pwr_ex.c ****   * @brief Enable VDDUSB supply.
 307:Drivers/STM32L4xx_HAL_Driver/Src/stm32l4xx_hal_pwr_ex.c ****   * @note  Remove VDDUSB electrical and logical isolation, once VDDUSB supply is present.
 308:Drivers/STM32L4xx_HAL_Driver/Src/stm32l4xx_hal_pwr_ex.c ****   * @retval None
 309:Drivers/STM32L4xx_HAL_Driver/Src/stm32l4xx_hal_pwr_ex.c ****   */
 310:Drivers/STM32L4xx_HAL_Driver/Src/stm32l4xx_hal_pwr_ex.c **** void HAL_PWREx_EnableVddUSB(void)
 311:Drivers/STM32L4xx_HAL_Driver/Src/stm32l4xx_hal_pwr_ex.c **** {
 299              		.loc 1 311 1 is_stmt 1 view -0
 300              		.cfi_startproc
 301              		@ args = 0, pretend = 0, frame = 0
 302              		@ frame_needed = 0, uses_anonymous_args = 0
 303              		@ link register save eliminated.
 312:Drivers/STM32L4xx_HAL_Driver/Src/stm32l4xx_hal_pwr_ex.c ****   SET_BIT(PWR->CR2, PWR_CR2_USV);
 304              		.loc 1 312 3 view .LVU59
 305 0000 024A     		ldr	r2, .L30
 306 0002 5368     		ldr	r3, [r2, #4]
 307 0004 43F48063 		orr	r3, r3, #1024
 308 0008 5360     		str	r3, [r2, #4]
 313:Drivers/STM32L4xx_HAL_Driver/Src/stm32l4xx_hal_pwr_ex.c **** }
 309              		.loc 1 313 1 is_stmt 0 view .LVU60
 310 000a 7047     		bx	lr
 311              	.L31:
 312              		.align	2
 313              	.L30:
 314 000c 00700040 		.word	1073770496
 315              		.cfi_endproc
 316              	.LFE296:
 318              		.section	.text.HAL_PWREx_DisableVddUSB,"ax",%progbits
 319              		.align	1
 320              		.global	HAL_PWREx_DisableVddUSB
 321              		.syntax unified
 322              		.thumb
 323              		.thumb_func
 325              	HAL_PWREx_DisableVddUSB:
 326              	.LFB297:
 314:Drivers/STM32L4xx_HAL_Driver/Src/stm32l4xx_hal_pwr_ex.c **** 
 315:Drivers/STM32L4xx_HAL_Driver/Src/stm32l4xx_hal_pwr_ex.c **** 
 316:Drivers/STM32L4xx_HAL_Driver/Src/stm32l4xx_hal_pwr_ex.c **** /**
 317:Drivers/STM32L4xx_HAL_Driver/Src/stm32l4xx_hal_pwr_ex.c ****   * @brief Disable VDDUSB supply.
 318:Drivers/STM32L4xx_HAL_Driver/Src/stm32l4xx_hal_pwr_ex.c ****   * @retval None
 319:Drivers/STM32L4xx_HAL_Driver/Src/stm32l4xx_hal_pwr_ex.c ****   */
 320:Drivers/STM32L4xx_HAL_Driver/Src/stm32l4xx_hal_pwr_ex.c **** void HAL_PWREx_DisableVddUSB(void)
 321:Drivers/STM32L4xx_HAL_Driver/Src/stm32l4xx_hal_pwr_ex.c **** {
 327              		.loc 1 321 1 is_stmt 1 view -0
 328              		.cfi_startproc
 329              		@ args = 0, pretend = 0, frame = 0
 330              		@ frame_needed = 0, uses_anonymous_args = 0
 331              		@ link register save eliminated.
 322:Drivers/STM32L4xx_HAL_Driver/Src/stm32l4xx_hal_pwr_ex.c ****   CLEAR_BIT(PWR->CR2, PWR_CR2_USV);
 332              		.loc 1 322 3 view .LVU62
 333 0000 024A     		ldr	r2, .L33
 334 0002 5368     		ldr	r3, [r2, #4]
 335 0004 23F48063 		bic	r3, r3, #1024
ARM GAS  C:\Users\mathi\AppData\Local\Temp\cc6ocpEq.s 			page 13


 336 0008 5360     		str	r3, [r2, #4]
 323:Drivers/STM32L4xx_HAL_Driver/Src/stm32l4xx_hal_pwr_ex.c **** }
 337              		.loc 1 323 1 is_stmt 0 view .LVU63
 338 000a 7047     		bx	lr
 339              	.L34:
 340              		.align	2
 341              	.L33:
 342 000c 00700040 		.word	1073770496
 343              		.cfi_endproc
 344              	.LFE297:
 346              		.section	.text.HAL_PWREx_EnableInternalWakeUpLine,"ax",%progbits
 347              		.align	1
 348              		.global	HAL_PWREx_EnableInternalWakeUpLine
 349              		.syntax unified
 350              		.thumb
 351              		.thumb_func
 353              	HAL_PWREx_EnableInternalWakeUpLine:
 354              	.LFB298:
 324:Drivers/STM32L4xx_HAL_Driver/Src/stm32l4xx_hal_pwr_ex.c **** #endif /* PWR_CR2_USV */
 325:Drivers/STM32L4xx_HAL_Driver/Src/stm32l4xx_hal_pwr_ex.c **** 
 326:Drivers/STM32L4xx_HAL_Driver/Src/stm32l4xx_hal_pwr_ex.c **** #if defined(PWR_CR2_IOSV)
 327:Drivers/STM32L4xx_HAL_Driver/Src/stm32l4xx_hal_pwr_ex.c **** /**
 328:Drivers/STM32L4xx_HAL_Driver/Src/stm32l4xx_hal_pwr_ex.c ****   * @brief Enable VDDIO2 supply.
 329:Drivers/STM32L4xx_HAL_Driver/Src/stm32l4xx_hal_pwr_ex.c ****   * @note  Remove VDDIO2 electrical and logical isolation, once VDDIO2 supply is present.
 330:Drivers/STM32L4xx_HAL_Driver/Src/stm32l4xx_hal_pwr_ex.c ****   * @retval None
 331:Drivers/STM32L4xx_HAL_Driver/Src/stm32l4xx_hal_pwr_ex.c ****   */
 332:Drivers/STM32L4xx_HAL_Driver/Src/stm32l4xx_hal_pwr_ex.c **** void HAL_PWREx_EnableVddIO2(void)
 333:Drivers/STM32L4xx_HAL_Driver/Src/stm32l4xx_hal_pwr_ex.c **** {
 334:Drivers/STM32L4xx_HAL_Driver/Src/stm32l4xx_hal_pwr_ex.c ****   SET_BIT(PWR->CR2, PWR_CR2_IOSV);
 335:Drivers/STM32L4xx_HAL_Driver/Src/stm32l4xx_hal_pwr_ex.c **** }
 336:Drivers/STM32L4xx_HAL_Driver/Src/stm32l4xx_hal_pwr_ex.c **** 
 337:Drivers/STM32L4xx_HAL_Driver/Src/stm32l4xx_hal_pwr_ex.c **** 
 338:Drivers/STM32L4xx_HAL_Driver/Src/stm32l4xx_hal_pwr_ex.c **** /**
 339:Drivers/STM32L4xx_HAL_Driver/Src/stm32l4xx_hal_pwr_ex.c ****   * @brief Disable VDDIO2 supply.
 340:Drivers/STM32L4xx_HAL_Driver/Src/stm32l4xx_hal_pwr_ex.c ****   * @retval None
 341:Drivers/STM32L4xx_HAL_Driver/Src/stm32l4xx_hal_pwr_ex.c ****   */
 342:Drivers/STM32L4xx_HAL_Driver/Src/stm32l4xx_hal_pwr_ex.c **** void HAL_PWREx_DisableVddIO2(void)
 343:Drivers/STM32L4xx_HAL_Driver/Src/stm32l4xx_hal_pwr_ex.c **** {
 344:Drivers/STM32L4xx_HAL_Driver/Src/stm32l4xx_hal_pwr_ex.c ****   CLEAR_BIT(PWR->CR2, PWR_CR2_IOSV);
 345:Drivers/STM32L4xx_HAL_Driver/Src/stm32l4xx_hal_pwr_ex.c **** }
 346:Drivers/STM32L4xx_HAL_Driver/Src/stm32l4xx_hal_pwr_ex.c **** #endif /* PWR_CR2_IOSV */
 347:Drivers/STM32L4xx_HAL_Driver/Src/stm32l4xx_hal_pwr_ex.c **** 
 348:Drivers/STM32L4xx_HAL_Driver/Src/stm32l4xx_hal_pwr_ex.c **** 
 349:Drivers/STM32L4xx_HAL_Driver/Src/stm32l4xx_hal_pwr_ex.c **** /**
 350:Drivers/STM32L4xx_HAL_Driver/Src/stm32l4xx_hal_pwr_ex.c ****   * @brief Enable Internal Wake-up Line.
 351:Drivers/STM32L4xx_HAL_Driver/Src/stm32l4xx_hal_pwr_ex.c ****   * @retval None
 352:Drivers/STM32L4xx_HAL_Driver/Src/stm32l4xx_hal_pwr_ex.c ****   */
 353:Drivers/STM32L4xx_HAL_Driver/Src/stm32l4xx_hal_pwr_ex.c **** void HAL_PWREx_EnableInternalWakeUpLine(void)
 354:Drivers/STM32L4xx_HAL_Driver/Src/stm32l4xx_hal_pwr_ex.c **** {
 355              		.loc 1 354 1 is_stmt 1 view -0
 356              		.cfi_startproc
 357              		@ args = 0, pretend = 0, frame = 0
 358              		@ frame_needed = 0, uses_anonymous_args = 0
 359              		@ link register save eliminated.
 355:Drivers/STM32L4xx_HAL_Driver/Src/stm32l4xx_hal_pwr_ex.c ****   SET_BIT(PWR->CR3, PWR_CR3_EIWF);
 360              		.loc 1 355 3 view .LVU65
 361 0000 024A     		ldr	r2, .L36
ARM GAS  C:\Users\mathi\AppData\Local\Temp\cc6ocpEq.s 			page 14


 362 0002 9368     		ldr	r3, [r2, #8]
 363 0004 43F40043 		orr	r3, r3, #32768
 364 0008 9360     		str	r3, [r2, #8]
 356:Drivers/STM32L4xx_HAL_Driver/Src/stm32l4xx_hal_pwr_ex.c **** }
 365              		.loc 1 356 1 is_stmt 0 view .LVU66
 366 000a 7047     		bx	lr
 367              	.L37:
 368              		.align	2
 369              	.L36:
 370 000c 00700040 		.word	1073770496
 371              		.cfi_endproc
 372              	.LFE298:
 374              		.section	.text.HAL_PWREx_DisableInternalWakeUpLine,"ax",%progbits
 375              		.align	1
 376              		.global	HAL_PWREx_DisableInternalWakeUpLine
 377              		.syntax unified
 378              		.thumb
 379              		.thumb_func
 381              	HAL_PWREx_DisableInternalWakeUpLine:
 382              	.LFB299:
 357:Drivers/STM32L4xx_HAL_Driver/Src/stm32l4xx_hal_pwr_ex.c **** 
 358:Drivers/STM32L4xx_HAL_Driver/Src/stm32l4xx_hal_pwr_ex.c **** 
 359:Drivers/STM32L4xx_HAL_Driver/Src/stm32l4xx_hal_pwr_ex.c **** /**
 360:Drivers/STM32L4xx_HAL_Driver/Src/stm32l4xx_hal_pwr_ex.c ****   * @brief Disable Internal Wake-up Line.
 361:Drivers/STM32L4xx_HAL_Driver/Src/stm32l4xx_hal_pwr_ex.c ****   * @retval None
 362:Drivers/STM32L4xx_HAL_Driver/Src/stm32l4xx_hal_pwr_ex.c ****   */
 363:Drivers/STM32L4xx_HAL_Driver/Src/stm32l4xx_hal_pwr_ex.c **** void HAL_PWREx_DisableInternalWakeUpLine(void)
 364:Drivers/STM32L4xx_HAL_Driver/Src/stm32l4xx_hal_pwr_ex.c **** {
 383              		.loc 1 364 1 is_stmt 1 view -0
 384              		.cfi_startproc
 385              		@ args = 0, pretend = 0, frame = 0
 386              		@ frame_needed = 0, uses_anonymous_args = 0
 387              		@ link register save eliminated.
 365:Drivers/STM32L4xx_HAL_Driver/Src/stm32l4xx_hal_pwr_ex.c ****   CLEAR_BIT(PWR->CR3, PWR_CR3_EIWF);
 388              		.loc 1 365 3 view .LVU68
 389 0000 024A     		ldr	r2, .L39
 390 0002 9368     		ldr	r3, [r2, #8]
 391 0004 23F40043 		bic	r3, r3, #32768
 392 0008 9360     		str	r3, [r2, #8]
 366:Drivers/STM32L4xx_HAL_Driver/Src/stm32l4xx_hal_pwr_ex.c **** }
 393              		.loc 1 366 1 is_stmt 0 view .LVU69
 394 000a 7047     		bx	lr
 395              	.L40:
 396              		.align	2
 397              	.L39:
 398 000c 00700040 		.word	1073770496
 399              		.cfi_endproc
 400              	.LFE299:
 402              		.section	.text.HAL_PWREx_EnableGPIOPullUp,"ax",%progbits
 403              		.align	1
 404              		.global	HAL_PWREx_EnableGPIOPullUp
 405              		.syntax unified
 406              		.thumb
 407              		.thumb_func
 409              	HAL_PWREx_EnableGPIOPullUp:
 410              	.LVL21:
 411              	.LFB300:
ARM GAS  C:\Users\mathi\AppData\Local\Temp\cc6ocpEq.s 			page 15


 367:Drivers/STM32L4xx_HAL_Driver/Src/stm32l4xx_hal_pwr_ex.c **** 
 368:Drivers/STM32L4xx_HAL_Driver/Src/stm32l4xx_hal_pwr_ex.c **** 
 369:Drivers/STM32L4xx_HAL_Driver/Src/stm32l4xx_hal_pwr_ex.c **** 
 370:Drivers/STM32L4xx_HAL_Driver/Src/stm32l4xx_hal_pwr_ex.c **** /**
 371:Drivers/STM32L4xx_HAL_Driver/Src/stm32l4xx_hal_pwr_ex.c ****   * @brief Enable GPIO pull-up state in Standby and Shutdown modes.
 372:Drivers/STM32L4xx_HAL_Driver/Src/stm32l4xx_hal_pwr_ex.c ****   * @note  Set the relevant PUy bits of PWR_PUCRx register to configure the I/O in
 373:Drivers/STM32L4xx_HAL_Driver/Src/stm32l4xx_hal_pwr_ex.c ****   *        pull-up state in Standby and Shutdown modes.
 374:Drivers/STM32L4xx_HAL_Driver/Src/stm32l4xx_hal_pwr_ex.c ****   * @note  This state is effective in Standby and Shutdown modes only if APC bit
 375:Drivers/STM32L4xx_HAL_Driver/Src/stm32l4xx_hal_pwr_ex.c ****   *        is set through HAL_PWREx_EnablePullUpPullDownConfig() API.
 376:Drivers/STM32L4xx_HAL_Driver/Src/stm32l4xx_hal_pwr_ex.c ****   * @note  The configuration is lost when exiting the Shutdown mode due to the
 377:Drivers/STM32L4xx_HAL_Driver/Src/stm32l4xx_hal_pwr_ex.c ****   *        power-on reset, maintained when exiting the Standby mode.
 378:Drivers/STM32L4xx_HAL_Driver/Src/stm32l4xx_hal_pwr_ex.c ****   * @note  To avoid any conflict at Standby and Shutdown modes exits, the corresponding
 379:Drivers/STM32L4xx_HAL_Driver/Src/stm32l4xx_hal_pwr_ex.c ****   *        PDy bit of PWR_PDCRx register is cleared unless it is reserved.
 380:Drivers/STM32L4xx_HAL_Driver/Src/stm32l4xx_hal_pwr_ex.c ****   * @note  Even if a PUy bit to set is reserved, the other PUy bits entered as input
 381:Drivers/STM32L4xx_HAL_Driver/Src/stm32l4xx_hal_pwr_ex.c ****   *        parameter at the same time are set.
 382:Drivers/STM32L4xx_HAL_Driver/Src/stm32l4xx_hal_pwr_ex.c ****   * @param  GPIO Specify the IO port. This parameter can be PWR_GPIO_A, ..., PWR_GPIO_H
 383:Drivers/STM32L4xx_HAL_Driver/Src/stm32l4xx_hal_pwr_ex.c ****   *         (or PWR_GPIO_I depending on the devices) to select the GPIO peripheral.
 384:Drivers/STM32L4xx_HAL_Driver/Src/stm32l4xx_hal_pwr_ex.c ****   * @param  GPIONumber Specify the I/O pins numbers.
 385:Drivers/STM32L4xx_HAL_Driver/Src/stm32l4xx_hal_pwr_ex.c ****   *         This parameter can be one of the following values:
 386:Drivers/STM32L4xx_HAL_Driver/Src/stm32l4xx_hal_pwr_ex.c ****   *         PWR_GPIO_BIT_0, ..., PWR_GPIO_BIT_15 (except for the port where less
 387:Drivers/STM32L4xx_HAL_Driver/Src/stm32l4xx_hal_pwr_ex.c ****   *         I/O pins are available) or the logical OR of several of them to set
 388:Drivers/STM32L4xx_HAL_Driver/Src/stm32l4xx_hal_pwr_ex.c ****   *         several bits for a given port in a single API call.
 389:Drivers/STM32L4xx_HAL_Driver/Src/stm32l4xx_hal_pwr_ex.c ****   * @retval HAL Status
 390:Drivers/STM32L4xx_HAL_Driver/Src/stm32l4xx_hal_pwr_ex.c ****   */
 391:Drivers/STM32L4xx_HAL_Driver/Src/stm32l4xx_hal_pwr_ex.c **** HAL_StatusTypeDef HAL_PWREx_EnableGPIOPullUp(uint32_t GPIO, uint32_t GPIONumber)
 392:Drivers/STM32L4xx_HAL_Driver/Src/stm32l4xx_hal_pwr_ex.c **** {
 412              		.loc 1 392 1 is_stmt 1 view -0
 413              		.cfi_startproc
 414              		@ args = 0, pretend = 0, frame = 0
 415              		@ frame_needed = 0, uses_anonymous_args = 0
 416              		.loc 1 392 1 is_stmt 0 view .LVU71
 417 0000 38B5     		push	{r3, r4, r5, lr}
 418              		.cfi_def_cfa_offset 16
 419              		.cfi_offset 3, -16
 420              		.cfi_offset 4, -12
 421              		.cfi_offset 5, -8
 422              		.cfi_offset 14, -4
 423 0002 0446     		mov	r4, r0
 424 0004 0D46     		mov	r5, r1
 393:Drivers/STM32L4xx_HAL_Driver/Src/stm32l4xx_hal_pwr_ex.c ****   HAL_StatusTypeDef status = HAL_OK;
 425              		.loc 1 393 3 is_stmt 1 view .LVU72
 426              	.LVL22:
 394:Drivers/STM32L4xx_HAL_Driver/Src/stm32l4xx_hal_pwr_ex.c **** 
 395:Drivers/STM32L4xx_HAL_Driver/Src/stm32l4xx_hal_pwr_ex.c ****   assert_param(IS_PWR_GPIO(GPIO));
 427              		.loc 1 395 3 view .LVU73
 428 0006 0428     		cmp	r0, #4
 429 0008 01D9     		bls	.L42
 430              		.loc 1 395 3 is_stmt 0 discriminator 1 view .LVU74
 431 000a 0728     		cmp	r0, #7
 432 000c 09D1     		bne	.L54
 433              	.LVL23:
 434              	.L42:
 396:Drivers/STM32L4xx_HAL_Driver/Src/stm32l4xx_hal_pwr_ex.c ****   assert_param(IS_PWR_GPIO_BIT_NUMBER(GPIONumber));
 435              		.loc 1 396 3 is_stmt 1 view .LVU75
 436 000e ABB2     		uxth	r3, r5
 437 0010 6BB1     		cbz	r3, .L55
 438              	.L43:
ARM GAS  C:\Users\mathi\AppData\Local\Temp\cc6ocpEq.s 			page 16


 397:Drivers/STM32L4xx_HAL_Driver/Src/stm32l4xx_hal_pwr_ex.c **** 
 398:Drivers/STM32L4xx_HAL_Driver/Src/stm32l4xx_hal_pwr_ex.c ****   switch (GPIO)
 439              		.loc 1 398 3 view .LVU76
 440 0012 072C     		cmp	r4, #7
 441 0014 55D8     		bhi	.L52
 442 0016 DFE804F0 		tbb	[pc, r4]
 443              	.L46:
 444 001a 10       		.byte	(.L51-.L46)/2
 445 001b 1E       		.byte	(.L50-.L46)/2
 446 001c 2A       		.byte	(.L49-.L46)/2
 447 001d 34       		.byte	(.L48-.L46)/2
 448 001e 3E       		.byte	(.L47-.L46)/2
 449 001f 54       		.byte	(.L52-.L46)/2
 450 0020 54       		.byte	(.L52-.L46)/2
 451 0021 48       		.byte	(.L45-.L46)/2
 452              	.LVL24:
 453              		.p2align 1
 454              	.L54:
 395:Drivers/STM32L4xx_HAL_Driver/Src/stm32l4xx_hal_pwr_ex.c ****   assert_param(IS_PWR_GPIO_BIT_NUMBER(GPIONumber));
 455              		.loc 1 395 3 is_stmt 0 discriminator 2 view .LVU77
 456 0022 40F28B11 		movw	r1, #395
 457              	.LVL25:
 395:Drivers/STM32L4xx_HAL_Driver/Src/stm32l4xx_hal_pwr_ex.c ****   assert_param(IS_PWR_GPIO_BIT_NUMBER(GPIONumber));
 458              		.loc 1 395 3 discriminator 2 view .LVU78
 459 0026 2848     		ldr	r0, .L56
 460              	.LVL26:
 395:Drivers/STM32L4xx_HAL_Driver/Src/stm32l4xx_hal_pwr_ex.c ****   assert_param(IS_PWR_GPIO_BIT_NUMBER(GPIONumber));
 461              		.loc 1 395 3 discriminator 2 view .LVU79
 462 0028 FFF7FEFF 		bl	assert_failed
 463              	.LVL27:
 464 002c EFE7     		b	.L42
 465              	.L55:
 396:Drivers/STM32L4xx_HAL_Driver/Src/stm32l4xx_hal_pwr_ex.c ****   assert_param(IS_PWR_GPIO_BIT_NUMBER(GPIONumber));
 466              		.loc 1 396 3 discriminator 1 view .LVU80
 467 002e 4FF4C671 		mov	r1, #396
 468 0032 2548     		ldr	r0, .L56
 469 0034 FFF7FEFF 		bl	assert_failed
 470              	.LVL28:
 471 0038 EBE7     		b	.L43
 472              	.L51:
 399:Drivers/STM32L4xx_HAL_Driver/Src/stm32l4xx_hal_pwr_ex.c ****   {
 400:Drivers/STM32L4xx_HAL_Driver/Src/stm32l4xx_hal_pwr_ex.c ****     case PWR_GPIO_A:
 401:Drivers/STM32L4xx_HAL_Driver/Src/stm32l4xx_hal_pwr_ex.c ****        SET_BIT(PWR->PUCRA, (GPIONumber & (~(PWR_GPIO_BIT_14))));
 473              		.loc 1 401 8 is_stmt 1 view .LVU81
 474 003a 244B     		ldr	r3, .L56+4
 475 003c 1A6A     		ldr	r2, [r3, #32]
 476 003e 25F48041 		bic	r1, r5, #16384
 477 0042 0A43     		orrs	r2, r2, r1
 478 0044 1A62     		str	r2, [r3, #32]
 402:Drivers/STM32L4xx_HAL_Driver/Src/stm32l4xx_hal_pwr_ex.c ****        CLEAR_BIT(PWR->PDCRA, (GPIONumber & (~(PWR_GPIO_BIT_13|PWR_GPIO_BIT_15))));
 479              		.loc 1 402 8 view .LVU82
 480 0046 5A6A     		ldr	r2, [r3, #36]
 481 0048 25F42045 		bic	r5, r5, #40960
 482              	.LVL29:
 483              		.loc 1 402 8 is_stmt 0 view .LVU83
 484 004c 22EA0502 		bic	r2, r2, r5
 485 0050 5A62     		str	r2, [r3, #36]
ARM GAS  C:\Users\mathi\AppData\Local\Temp\cc6ocpEq.s 			page 17


 403:Drivers/STM32L4xx_HAL_Driver/Src/stm32l4xx_hal_pwr_ex.c ****        break;
 486              		.loc 1 403 8 is_stmt 1 view .LVU84
 393:Drivers/STM32L4xx_HAL_Driver/Src/stm32l4xx_hal_pwr_ex.c **** 
 487              		.loc 1 393 21 is_stmt 0 view .LVU85
 488 0052 0020     		movs	r0, #0
 489              		.loc 1 403 8 view .LVU86
 490 0054 36E0     		b	.L44
 491              	.LVL30:
 492              	.L50:
 404:Drivers/STM32L4xx_HAL_Driver/Src/stm32l4xx_hal_pwr_ex.c ****     case PWR_GPIO_B:
 405:Drivers/STM32L4xx_HAL_Driver/Src/stm32l4xx_hal_pwr_ex.c ****        SET_BIT(PWR->PUCRB, GPIONumber);
 493              		.loc 1 405 8 is_stmt 1 view .LVU87
 494 0056 1D4B     		ldr	r3, .L56+4
 495 0058 9A6A     		ldr	r2, [r3, #40]
 496 005a 2A43     		orrs	r2, r2, r5
 497 005c 9A62     		str	r2, [r3, #40]
 406:Drivers/STM32L4xx_HAL_Driver/Src/stm32l4xx_hal_pwr_ex.c ****        CLEAR_BIT(PWR->PDCRB, (GPIONumber & (~(PWR_GPIO_BIT_4))));
 498              		.loc 1 406 8 view .LVU88
 499 005e DA6A     		ldr	r2, [r3, #44]
 500 0060 25F01005 		bic	r5, r5, #16
 501              	.LVL31:
 502              		.loc 1 406 8 is_stmt 0 view .LVU89
 503 0064 22EA0502 		bic	r2, r2, r5
 504 0068 DA62     		str	r2, [r3, #44]
 407:Drivers/STM32L4xx_HAL_Driver/Src/stm32l4xx_hal_pwr_ex.c ****        break;
 505              		.loc 1 407 8 is_stmt 1 view .LVU90
 393:Drivers/STM32L4xx_HAL_Driver/Src/stm32l4xx_hal_pwr_ex.c **** 
 506              		.loc 1 393 21 is_stmt 0 view .LVU91
 507 006a 0020     		movs	r0, #0
 508              		.loc 1 407 8 view .LVU92
 509 006c 2AE0     		b	.L44
 510              	.LVL32:
 511              	.L49:
 408:Drivers/STM32L4xx_HAL_Driver/Src/stm32l4xx_hal_pwr_ex.c ****     case PWR_GPIO_C:
 409:Drivers/STM32L4xx_HAL_Driver/Src/stm32l4xx_hal_pwr_ex.c ****        SET_BIT(PWR->PUCRC, GPIONumber);
 512              		.loc 1 409 8 is_stmt 1 view .LVU93
 513 006e 174B     		ldr	r3, .L56+4
 514 0070 1A6B     		ldr	r2, [r3, #48]
 515 0072 2A43     		orrs	r2, r2, r5
 516 0074 1A63     		str	r2, [r3, #48]
 410:Drivers/STM32L4xx_HAL_Driver/Src/stm32l4xx_hal_pwr_ex.c ****        CLEAR_BIT(PWR->PDCRC, GPIONumber);
 517              		.loc 1 410 8 view .LVU94
 518 0076 5A6B     		ldr	r2, [r3, #52]
 519 0078 22EA0502 		bic	r2, r2, r5
 520 007c 5A63     		str	r2, [r3, #52]
 411:Drivers/STM32L4xx_HAL_Driver/Src/stm32l4xx_hal_pwr_ex.c ****        break;
 521              		.loc 1 411 8 view .LVU95
 393:Drivers/STM32L4xx_HAL_Driver/Src/stm32l4xx_hal_pwr_ex.c **** 
 522              		.loc 1 393 21 is_stmt 0 view .LVU96
 523 007e 0020     		movs	r0, #0
 524              		.loc 1 411 8 view .LVU97
 525 0080 20E0     		b	.L44
 526              	.L48:
 412:Drivers/STM32L4xx_HAL_Driver/Src/stm32l4xx_hal_pwr_ex.c **** #if defined(GPIOD)
 413:Drivers/STM32L4xx_HAL_Driver/Src/stm32l4xx_hal_pwr_ex.c ****     case PWR_GPIO_D:
 414:Drivers/STM32L4xx_HAL_Driver/Src/stm32l4xx_hal_pwr_ex.c ****        SET_BIT(PWR->PUCRD, GPIONumber);
 527              		.loc 1 414 8 is_stmt 1 view .LVU98
ARM GAS  C:\Users\mathi\AppData\Local\Temp\cc6ocpEq.s 			page 18


 528 0082 124B     		ldr	r3, .L56+4
 529 0084 9A6B     		ldr	r2, [r3, #56]
 530 0086 2A43     		orrs	r2, r2, r5
 531 0088 9A63     		str	r2, [r3, #56]
 415:Drivers/STM32L4xx_HAL_Driver/Src/stm32l4xx_hal_pwr_ex.c ****        CLEAR_BIT(PWR->PDCRD, GPIONumber);
 532              		.loc 1 415 8 view .LVU99
 533 008a DA6B     		ldr	r2, [r3, #60]
 534 008c 22EA0502 		bic	r2, r2, r5
 535 0090 DA63     		str	r2, [r3, #60]
 416:Drivers/STM32L4xx_HAL_Driver/Src/stm32l4xx_hal_pwr_ex.c ****        break;
 536              		.loc 1 416 8 view .LVU100
 393:Drivers/STM32L4xx_HAL_Driver/Src/stm32l4xx_hal_pwr_ex.c **** 
 537              		.loc 1 393 21 is_stmt 0 view .LVU101
 538 0092 0020     		movs	r0, #0
 539              		.loc 1 416 8 view .LVU102
 540 0094 16E0     		b	.L44
 541              	.L47:
 417:Drivers/STM32L4xx_HAL_Driver/Src/stm32l4xx_hal_pwr_ex.c **** #endif
 418:Drivers/STM32L4xx_HAL_Driver/Src/stm32l4xx_hal_pwr_ex.c **** #if defined(GPIOE)
 419:Drivers/STM32L4xx_HAL_Driver/Src/stm32l4xx_hal_pwr_ex.c ****     case PWR_GPIO_E:
 420:Drivers/STM32L4xx_HAL_Driver/Src/stm32l4xx_hal_pwr_ex.c ****        SET_BIT(PWR->PUCRE, GPIONumber);
 542              		.loc 1 420 8 is_stmt 1 view .LVU103
 543 0096 0D4B     		ldr	r3, .L56+4
 544 0098 1A6C     		ldr	r2, [r3, #64]
 545 009a 2A43     		orrs	r2, r2, r5
 546 009c 1A64     		str	r2, [r3, #64]
 421:Drivers/STM32L4xx_HAL_Driver/Src/stm32l4xx_hal_pwr_ex.c ****        CLEAR_BIT(PWR->PDCRE, GPIONumber);
 547              		.loc 1 421 8 view .LVU104
 548 009e 5A6C     		ldr	r2, [r3, #68]
 549 00a0 22EA0502 		bic	r2, r2, r5
 550 00a4 5A64     		str	r2, [r3, #68]
 422:Drivers/STM32L4xx_HAL_Driver/Src/stm32l4xx_hal_pwr_ex.c ****        break;
 551              		.loc 1 422 8 view .LVU105
 393:Drivers/STM32L4xx_HAL_Driver/Src/stm32l4xx_hal_pwr_ex.c **** 
 552              		.loc 1 393 21 is_stmt 0 view .LVU106
 553 00a6 0020     		movs	r0, #0
 554              		.loc 1 422 8 view .LVU107
 555 00a8 0CE0     		b	.L44
 556              	.L45:
 423:Drivers/STM32L4xx_HAL_Driver/Src/stm32l4xx_hal_pwr_ex.c **** #endif
 424:Drivers/STM32L4xx_HAL_Driver/Src/stm32l4xx_hal_pwr_ex.c **** #if defined(GPIOF)
 425:Drivers/STM32L4xx_HAL_Driver/Src/stm32l4xx_hal_pwr_ex.c ****     case PWR_GPIO_F:
 426:Drivers/STM32L4xx_HAL_Driver/Src/stm32l4xx_hal_pwr_ex.c ****        SET_BIT(PWR->PUCRF, GPIONumber);
 427:Drivers/STM32L4xx_HAL_Driver/Src/stm32l4xx_hal_pwr_ex.c ****        CLEAR_BIT(PWR->PDCRF, GPIONumber);
 428:Drivers/STM32L4xx_HAL_Driver/Src/stm32l4xx_hal_pwr_ex.c ****        break;
 429:Drivers/STM32L4xx_HAL_Driver/Src/stm32l4xx_hal_pwr_ex.c **** #endif
 430:Drivers/STM32L4xx_HAL_Driver/Src/stm32l4xx_hal_pwr_ex.c **** #if defined(GPIOG)
 431:Drivers/STM32L4xx_HAL_Driver/Src/stm32l4xx_hal_pwr_ex.c ****     case PWR_GPIO_G:
 432:Drivers/STM32L4xx_HAL_Driver/Src/stm32l4xx_hal_pwr_ex.c ****        SET_BIT(PWR->PUCRG, GPIONumber);
 433:Drivers/STM32L4xx_HAL_Driver/Src/stm32l4xx_hal_pwr_ex.c ****        CLEAR_BIT(PWR->PDCRG, GPIONumber);
 434:Drivers/STM32L4xx_HAL_Driver/Src/stm32l4xx_hal_pwr_ex.c ****        break;
 435:Drivers/STM32L4xx_HAL_Driver/Src/stm32l4xx_hal_pwr_ex.c **** #endif
 436:Drivers/STM32L4xx_HAL_Driver/Src/stm32l4xx_hal_pwr_ex.c ****     case PWR_GPIO_H:
 437:Drivers/STM32L4xx_HAL_Driver/Src/stm32l4xx_hal_pwr_ex.c ****        SET_BIT(PWR->PUCRH, (GPIONumber & PWR_PORTH_AVAILABLE_PINS));
 557              		.loc 1 437 8 is_stmt 1 view .LVU108
 558 00aa 084B     		ldr	r3, .L56+4
 559 00ac 9A6D     		ldr	r2, [r3, #88]
ARM GAS  C:\Users\mathi\AppData\Local\Temp\cc6ocpEq.s 			page 19


 560 00ae 05F00B05 		and	r5, r5, #11
 561              	.LVL33:
 562              		.loc 1 437 8 is_stmt 0 view .LVU109
 563 00b2 2A43     		orrs	r2, r2, r5
 564 00b4 9A65     		str	r2, [r3, #88]
 438:Drivers/STM32L4xx_HAL_Driver/Src/stm32l4xx_hal_pwr_ex.c **** #if defined (STM32L496xx) || defined (STM32L4A6xx)
 439:Drivers/STM32L4xx_HAL_Driver/Src/stm32l4xx_hal_pwr_ex.c ****        CLEAR_BIT(PWR->PDCRH, ((GPIONumber & PWR_PORTH_AVAILABLE_PINS) & (~(PWR_GPIO_BIT_3))));
 440:Drivers/STM32L4xx_HAL_Driver/Src/stm32l4xx_hal_pwr_ex.c **** #else
 441:Drivers/STM32L4xx_HAL_Driver/Src/stm32l4xx_hal_pwr_ex.c ****        CLEAR_BIT(PWR->PDCRH, (GPIONumber & PWR_PORTH_AVAILABLE_PINS));
 565              		.loc 1 441 8 is_stmt 1 view .LVU110
 566 00b6 DA6D     		ldr	r2, [r3, #92]
 567 00b8 22EA0502 		bic	r2, r2, r5
 568 00bc DA65     		str	r2, [r3, #92]
 442:Drivers/STM32L4xx_HAL_Driver/Src/stm32l4xx_hal_pwr_ex.c **** #endif
 443:Drivers/STM32L4xx_HAL_Driver/Src/stm32l4xx_hal_pwr_ex.c ****        break;
 569              		.loc 1 443 8 view .LVU111
 393:Drivers/STM32L4xx_HAL_Driver/Src/stm32l4xx_hal_pwr_ex.c **** 
 570              		.loc 1 393 21 is_stmt 0 view .LVU112
 571 00be 0020     		movs	r0, #0
 572              		.loc 1 443 8 view .LVU113
 573 00c0 00E0     		b	.L44
 574              	.LVL34:
 575              	.L52:
 398:Drivers/STM32L4xx_HAL_Driver/Src/stm32l4xx_hal_pwr_ex.c ****   {
 576              		.loc 1 398 3 view .LVU114
 577 00c2 0120     		movs	r0, #1
 578              	.LVL35:
 579              	.L44:
 444:Drivers/STM32L4xx_HAL_Driver/Src/stm32l4xx_hal_pwr_ex.c **** #if defined(GPIOI)
 445:Drivers/STM32L4xx_HAL_Driver/Src/stm32l4xx_hal_pwr_ex.c ****     case PWR_GPIO_I:
 446:Drivers/STM32L4xx_HAL_Driver/Src/stm32l4xx_hal_pwr_ex.c ****        SET_BIT(PWR->PUCRI, (GPIONumber & PWR_PORTI_AVAILABLE_PINS));
 447:Drivers/STM32L4xx_HAL_Driver/Src/stm32l4xx_hal_pwr_ex.c ****        CLEAR_BIT(PWR->PDCRI, (GPIONumber & PWR_PORTI_AVAILABLE_PINS));
 448:Drivers/STM32L4xx_HAL_Driver/Src/stm32l4xx_hal_pwr_ex.c ****        break;
 449:Drivers/STM32L4xx_HAL_Driver/Src/stm32l4xx_hal_pwr_ex.c **** #endif
 450:Drivers/STM32L4xx_HAL_Driver/Src/stm32l4xx_hal_pwr_ex.c ****     default:
 451:Drivers/STM32L4xx_HAL_Driver/Src/stm32l4xx_hal_pwr_ex.c ****       status = HAL_ERROR;
 452:Drivers/STM32L4xx_HAL_Driver/Src/stm32l4xx_hal_pwr_ex.c ****       break;
 453:Drivers/STM32L4xx_HAL_Driver/Src/stm32l4xx_hal_pwr_ex.c ****   }
 454:Drivers/STM32L4xx_HAL_Driver/Src/stm32l4xx_hal_pwr_ex.c **** 
 455:Drivers/STM32L4xx_HAL_Driver/Src/stm32l4xx_hal_pwr_ex.c ****   return status;
 580              		.loc 1 455 3 is_stmt 1 view .LVU115
 456:Drivers/STM32L4xx_HAL_Driver/Src/stm32l4xx_hal_pwr_ex.c **** }
 581              		.loc 1 456 1 is_stmt 0 view .LVU116
 582 00c4 38BD     		pop	{r3, r4, r5, pc}
 583              	.LVL36:
 584              	.L57:
 585              		.loc 1 456 1 view .LVU117
 586 00c6 00BF     		.align	2
 587              	.L56:
 588 00c8 00000000 		.word	.LC0
 589 00cc 00700040 		.word	1073770496
 590              		.cfi_endproc
 591              	.LFE300:
 593              		.section	.text.HAL_PWREx_DisableGPIOPullUp,"ax",%progbits
 594              		.align	1
 595              		.global	HAL_PWREx_DisableGPIOPullUp
 596              		.syntax unified
ARM GAS  C:\Users\mathi\AppData\Local\Temp\cc6ocpEq.s 			page 20


 597              		.thumb
 598              		.thumb_func
 600              	HAL_PWREx_DisableGPIOPullUp:
 601              	.LVL37:
 602              	.LFB301:
 457:Drivers/STM32L4xx_HAL_Driver/Src/stm32l4xx_hal_pwr_ex.c **** 
 458:Drivers/STM32L4xx_HAL_Driver/Src/stm32l4xx_hal_pwr_ex.c **** 
 459:Drivers/STM32L4xx_HAL_Driver/Src/stm32l4xx_hal_pwr_ex.c **** /**
 460:Drivers/STM32L4xx_HAL_Driver/Src/stm32l4xx_hal_pwr_ex.c ****   * @brief Disable GPIO pull-up state in Standby mode and Shutdown modes.
 461:Drivers/STM32L4xx_HAL_Driver/Src/stm32l4xx_hal_pwr_ex.c ****   * @note  Reset the relevant PUy bits of PWR_PUCRx register used to configure the I/O
 462:Drivers/STM32L4xx_HAL_Driver/Src/stm32l4xx_hal_pwr_ex.c ****   *        in pull-up state in Standby and Shutdown modes.
 463:Drivers/STM32L4xx_HAL_Driver/Src/stm32l4xx_hal_pwr_ex.c ****   * @note  Even if a PUy bit to reset is reserved, the other PUy bits entered as input
 464:Drivers/STM32L4xx_HAL_Driver/Src/stm32l4xx_hal_pwr_ex.c ****   *        parameter at the same time are reset.
 465:Drivers/STM32L4xx_HAL_Driver/Src/stm32l4xx_hal_pwr_ex.c ****   * @param  GPIO Specifies the IO port. This parameter can be PWR_GPIO_A, ..., PWR_GPIO_H
 466:Drivers/STM32L4xx_HAL_Driver/Src/stm32l4xx_hal_pwr_ex.c ****   *          (or PWR_GPIO_I depending on the devices) to select the GPIO peripheral.
 467:Drivers/STM32L4xx_HAL_Driver/Src/stm32l4xx_hal_pwr_ex.c ****   * @param  GPIONumber Specify the I/O pins numbers.
 468:Drivers/STM32L4xx_HAL_Driver/Src/stm32l4xx_hal_pwr_ex.c ****   *         This parameter can be one of the following values:
 469:Drivers/STM32L4xx_HAL_Driver/Src/stm32l4xx_hal_pwr_ex.c ****   *         PWR_GPIO_BIT_0, ..., PWR_GPIO_BIT_15 (except for the port where less
 470:Drivers/STM32L4xx_HAL_Driver/Src/stm32l4xx_hal_pwr_ex.c ****   *         I/O pins are available) or the logical OR of several of them to reset
 471:Drivers/STM32L4xx_HAL_Driver/Src/stm32l4xx_hal_pwr_ex.c ****   *         several bits for a given port in a single API call.
 472:Drivers/STM32L4xx_HAL_Driver/Src/stm32l4xx_hal_pwr_ex.c ****   * @retval HAL Status
 473:Drivers/STM32L4xx_HAL_Driver/Src/stm32l4xx_hal_pwr_ex.c ****   */
 474:Drivers/STM32L4xx_HAL_Driver/Src/stm32l4xx_hal_pwr_ex.c **** HAL_StatusTypeDef HAL_PWREx_DisableGPIOPullUp(uint32_t GPIO, uint32_t GPIONumber)
 475:Drivers/STM32L4xx_HAL_Driver/Src/stm32l4xx_hal_pwr_ex.c **** {
 603              		.loc 1 475 1 is_stmt 1 view -0
 604              		.cfi_startproc
 605              		@ args = 0, pretend = 0, frame = 0
 606              		@ frame_needed = 0, uses_anonymous_args = 0
 607              		.loc 1 475 1 is_stmt 0 view .LVU119
 608 0000 38B5     		push	{r3, r4, r5, lr}
 609              		.cfi_def_cfa_offset 16
 610              		.cfi_offset 3, -16
 611              		.cfi_offset 4, -12
 612              		.cfi_offset 5, -8
 613              		.cfi_offset 14, -4
 614 0002 0446     		mov	r4, r0
 615 0004 0D46     		mov	r5, r1
 476:Drivers/STM32L4xx_HAL_Driver/Src/stm32l4xx_hal_pwr_ex.c ****   HAL_StatusTypeDef status = HAL_OK;
 616              		.loc 1 476 3 is_stmt 1 view .LVU120
 617              	.LVL38:
 477:Drivers/STM32L4xx_HAL_Driver/Src/stm32l4xx_hal_pwr_ex.c **** 
 478:Drivers/STM32L4xx_HAL_Driver/Src/stm32l4xx_hal_pwr_ex.c ****   assert_param(IS_PWR_GPIO(GPIO));
 618              		.loc 1 478 3 view .LVU121
 619 0006 0428     		cmp	r0, #4
 620 0008 01D9     		bls	.L59
 621              		.loc 1 478 3 is_stmt 0 discriminator 1 view .LVU122
 622 000a 0728     		cmp	r0, #7
 623 000c 09D1     		bne	.L71
 624              	.LVL39:
 625              	.L59:
 479:Drivers/STM32L4xx_HAL_Driver/Src/stm32l4xx_hal_pwr_ex.c ****   assert_param(IS_PWR_GPIO_BIT_NUMBER(GPIONumber));
 626              		.loc 1 479 3 is_stmt 1 view .LVU123
 627 000e ABB2     		uxth	r3, r5
 628 0010 6BB1     		cbz	r3, .L72
 629              	.L60:
 480:Drivers/STM32L4xx_HAL_Driver/Src/stm32l4xx_hal_pwr_ex.c **** 
 481:Drivers/STM32L4xx_HAL_Driver/Src/stm32l4xx_hal_pwr_ex.c ****   switch (GPIO)
ARM GAS  C:\Users\mathi\AppData\Local\Temp\cc6ocpEq.s 			page 21


 630              		.loc 1 481 3 view .LVU124
 631 0012 072C     		cmp	r4, #7
 632 0014 3FD8     		bhi	.L69
 633 0016 DFE804F0 		tbb	[pc, r4]
 634              	.L63:
 635 001a 10       		.byte	(.L68-.L63)/2
 636 001b 19       		.byte	(.L67-.L63)/2
 637 001c 20       		.byte	(.L66-.L63)/2
 638 001d 27       		.byte	(.L65-.L63)/2
 639 001e 2E       		.byte	(.L64-.L63)/2
 640 001f 3E       		.byte	(.L69-.L63)/2
 641 0020 3E       		.byte	(.L69-.L63)/2
 642 0021 35       		.byte	(.L62-.L63)/2
 643              	.LVL40:
 644              		.p2align 1
 645              	.L71:
 478:Drivers/STM32L4xx_HAL_Driver/Src/stm32l4xx_hal_pwr_ex.c ****   assert_param(IS_PWR_GPIO_BIT_NUMBER(GPIONumber));
 646              		.loc 1 478 3 is_stmt 0 discriminator 2 view .LVU125
 647 0022 4FF4EF71 		mov	r1, #478
 648              	.LVL41:
 478:Drivers/STM32L4xx_HAL_Driver/Src/stm32l4xx_hal_pwr_ex.c ****   assert_param(IS_PWR_GPIO_BIT_NUMBER(GPIONumber));
 649              		.loc 1 478 3 discriminator 2 view .LVU126
 650 0026 1D48     		ldr	r0, .L73
 651              	.LVL42:
 478:Drivers/STM32L4xx_HAL_Driver/Src/stm32l4xx_hal_pwr_ex.c ****   assert_param(IS_PWR_GPIO_BIT_NUMBER(GPIONumber));
 652              		.loc 1 478 3 discriminator 2 view .LVU127
 653 0028 FFF7FEFF 		bl	assert_failed
 654              	.LVL43:
 655 002c EFE7     		b	.L59
 656              	.L72:
 479:Drivers/STM32L4xx_HAL_Driver/Src/stm32l4xx_hal_pwr_ex.c ****   assert_param(IS_PWR_GPIO_BIT_NUMBER(GPIONumber));
 657              		.loc 1 479 3 discriminator 1 view .LVU128
 658 002e 40F2DF11 		movw	r1, #479
 659 0032 1A48     		ldr	r0, .L73
 660 0034 FFF7FEFF 		bl	assert_failed
 661              	.LVL44:
 662 0038 EBE7     		b	.L60
 663              	.L68:
 482:Drivers/STM32L4xx_HAL_Driver/Src/stm32l4xx_hal_pwr_ex.c ****   {
 483:Drivers/STM32L4xx_HAL_Driver/Src/stm32l4xx_hal_pwr_ex.c ****     case PWR_GPIO_A:
 484:Drivers/STM32L4xx_HAL_Driver/Src/stm32l4xx_hal_pwr_ex.c ****        CLEAR_BIT(PWR->PUCRA, (GPIONumber & (~(PWR_GPIO_BIT_14))));
 664              		.loc 1 484 8 is_stmt 1 view .LVU129
 665 003a 194A     		ldr	r2, .L73+4
 666 003c 136A     		ldr	r3, [r2, #32]
 667 003e 25F48045 		bic	r5, r5, #16384
 668              	.LVL45:
 669              		.loc 1 484 8 is_stmt 0 view .LVU130
 670 0042 23EA0503 		bic	r3, r3, r5
 671 0046 1362     		str	r3, [r2, #32]
 485:Drivers/STM32L4xx_HAL_Driver/Src/stm32l4xx_hal_pwr_ex.c ****        break;
 672              		.loc 1 485 8 is_stmt 1 view .LVU131
 476:Drivers/STM32L4xx_HAL_Driver/Src/stm32l4xx_hal_pwr_ex.c **** 
 673              		.loc 1 476 21 is_stmt 0 view .LVU132
 674 0048 0020     		movs	r0, #0
 675              		.loc 1 485 8 view .LVU133
 676 004a 25E0     		b	.L61
 677              	.LVL46:
ARM GAS  C:\Users\mathi\AppData\Local\Temp\cc6ocpEq.s 			page 22


 678              	.L67:
 486:Drivers/STM32L4xx_HAL_Driver/Src/stm32l4xx_hal_pwr_ex.c ****     case PWR_GPIO_B:
 487:Drivers/STM32L4xx_HAL_Driver/Src/stm32l4xx_hal_pwr_ex.c ****        CLEAR_BIT(PWR->PUCRB, GPIONumber);
 679              		.loc 1 487 8 is_stmt 1 view .LVU134
 680 004c 144A     		ldr	r2, .L73+4
 681 004e 936A     		ldr	r3, [r2, #40]
 682 0050 23EA0503 		bic	r3, r3, r5
 683 0054 9362     		str	r3, [r2, #40]
 488:Drivers/STM32L4xx_HAL_Driver/Src/stm32l4xx_hal_pwr_ex.c ****        break;
 684              		.loc 1 488 8 view .LVU135
 476:Drivers/STM32L4xx_HAL_Driver/Src/stm32l4xx_hal_pwr_ex.c **** 
 685              		.loc 1 476 21 is_stmt 0 view .LVU136
 686 0056 0020     		movs	r0, #0
 687              		.loc 1 488 8 view .LVU137
 688 0058 1EE0     		b	.L61
 689              	.L66:
 489:Drivers/STM32L4xx_HAL_Driver/Src/stm32l4xx_hal_pwr_ex.c ****     case PWR_GPIO_C:
 490:Drivers/STM32L4xx_HAL_Driver/Src/stm32l4xx_hal_pwr_ex.c ****        CLEAR_BIT(PWR->PUCRC, GPIONumber);
 690              		.loc 1 490 8 is_stmt 1 view .LVU138
 691 005a 114A     		ldr	r2, .L73+4
 692 005c 136B     		ldr	r3, [r2, #48]
 693 005e 23EA0503 		bic	r3, r3, r5
 694 0062 1363     		str	r3, [r2, #48]
 491:Drivers/STM32L4xx_HAL_Driver/Src/stm32l4xx_hal_pwr_ex.c ****        break;
 695              		.loc 1 491 8 view .LVU139
 476:Drivers/STM32L4xx_HAL_Driver/Src/stm32l4xx_hal_pwr_ex.c **** 
 696              		.loc 1 476 21 is_stmt 0 view .LVU140
 697 0064 0020     		movs	r0, #0
 698              		.loc 1 491 8 view .LVU141
 699 0066 17E0     		b	.L61
 700              	.L65:
 492:Drivers/STM32L4xx_HAL_Driver/Src/stm32l4xx_hal_pwr_ex.c **** #if defined(GPIOD)
 493:Drivers/STM32L4xx_HAL_Driver/Src/stm32l4xx_hal_pwr_ex.c ****     case PWR_GPIO_D:
 494:Drivers/STM32L4xx_HAL_Driver/Src/stm32l4xx_hal_pwr_ex.c ****        CLEAR_BIT(PWR->PUCRD, GPIONumber);
 701              		.loc 1 494 8 is_stmt 1 view .LVU142
 702 0068 0D4A     		ldr	r2, .L73+4
 703 006a 936B     		ldr	r3, [r2, #56]
 704 006c 23EA0503 		bic	r3, r3, r5
 705 0070 9363     		str	r3, [r2, #56]
 495:Drivers/STM32L4xx_HAL_Driver/Src/stm32l4xx_hal_pwr_ex.c ****        break;
 706              		.loc 1 495 8 view .LVU143
 476:Drivers/STM32L4xx_HAL_Driver/Src/stm32l4xx_hal_pwr_ex.c **** 
 707              		.loc 1 476 21 is_stmt 0 view .LVU144
 708 0072 0020     		movs	r0, #0
 709              		.loc 1 495 8 view .LVU145
 710 0074 10E0     		b	.L61
 711              	.L64:
 496:Drivers/STM32L4xx_HAL_Driver/Src/stm32l4xx_hal_pwr_ex.c **** #endif
 497:Drivers/STM32L4xx_HAL_Driver/Src/stm32l4xx_hal_pwr_ex.c **** #if defined(GPIOE)
 498:Drivers/STM32L4xx_HAL_Driver/Src/stm32l4xx_hal_pwr_ex.c ****     case PWR_GPIO_E:
 499:Drivers/STM32L4xx_HAL_Driver/Src/stm32l4xx_hal_pwr_ex.c ****        CLEAR_BIT(PWR->PUCRE, GPIONumber);
 712              		.loc 1 499 8 is_stmt 1 view .LVU146
 713 0076 0A4A     		ldr	r2, .L73+4
 714 0078 136C     		ldr	r3, [r2, #64]
 715 007a 23EA0503 		bic	r3, r3, r5
 716 007e 1364     		str	r3, [r2, #64]
 500:Drivers/STM32L4xx_HAL_Driver/Src/stm32l4xx_hal_pwr_ex.c ****        break;
ARM GAS  C:\Users\mathi\AppData\Local\Temp\cc6ocpEq.s 			page 23


 717              		.loc 1 500 8 view .LVU147
 476:Drivers/STM32L4xx_HAL_Driver/Src/stm32l4xx_hal_pwr_ex.c **** 
 718              		.loc 1 476 21 is_stmt 0 view .LVU148
 719 0080 0020     		movs	r0, #0
 720              		.loc 1 500 8 view .LVU149
 721 0082 09E0     		b	.L61
 722              	.L62:
 501:Drivers/STM32L4xx_HAL_Driver/Src/stm32l4xx_hal_pwr_ex.c **** #endif
 502:Drivers/STM32L4xx_HAL_Driver/Src/stm32l4xx_hal_pwr_ex.c **** #if defined(GPIOF)
 503:Drivers/STM32L4xx_HAL_Driver/Src/stm32l4xx_hal_pwr_ex.c ****     case PWR_GPIO_F:
 504:Drivers/STM32L4xx_HAL_Driver/Src/stm32l4xx_hal_pwr_ex.c ****        CLEAR_BIT(PWR->PUCRF, GPIONumber);
 505:Drivers/STM32L4xx_HAL_Driver/Src/stm32l4xx_hal_pwr_ex.c ****        break;
 506:Drivers/STM32L4xx_HAL_Driver/Src/stm32l4xx_hal_pwr_ex.c **** #endif
 507:Drivers/STM32L4xx_HAL_Driver/Src/stm32l4xx_hal_pwr_ex.c **** #if defined(GPIOG)
 508:Drivers/STM32L4xx_HAL_Driver/Src/stm32l4xx_hal_pwr_ex.c ****     case PWR_GPIO_G:
 509:Drivers/STM32L4xx_HAL_Driver/Src/stm32l4xx_hal_pwr_ex.c ****        CLEAR_BIT(PWR->PUCRG, GPIONumber);
 510:Drivers/STM32L4xx_HAL_Driver/Src/stm32l4xx_hal_pwr_ex.c ****        break;
 511:Drivers/STM32L4xx_HAL_Driver/Src/stm32l4xx_hal_pwr_ex.c **** #endif
 512:Drivers/STM32L4xx_HAL_Driver/Src/stm32l4xx_hal_pwr_ex.c ****     case PWR_GPIO_H:
 513:Drivers/STM32L4xx_HAL_Driver/Src/stm32l4xx_hal_pwr_ex.c ****        CLEAR_BIT(PWR->PUCRH, (GPIONumber & PWR_PORTH_AVAILABLE_PINS));
 723              		.loc 1 513 8 is_stmt 1 view .LVU150
 724 0084 064A     		ldr	r2, .L73+4
 725 0086 936D     		ldr	r3, [r2, #88]
 726 0088 05F00B05 		and	r5, r5, #11
 727              	.LVL47:
 728              		.loc 1 513 8 is_stmt 0 view .LVU151
 729 008c 23EA0503 		bic	r3, r3, r5
 730 0090 9365     		str	r3, [r2, #88]
 514:Drivers/STM32L4xx_HAL_Driver/Src/stm32l4xx_hal_pwr_ex.c ****        break;
 731              		.loc 1 514 8 is_stmt 1 view .LVU152
 476:Drivers/STM32L4xx_HAL_Driver/Src/stm32l4xx_hal_pwr_ex.c **** 
 732              		.loc 1 476 21 is_stmt 0 view .LVU153
 733 0092 0020     		movs	r0, #0
 734              		.loc 1 514 8 view .LVU154
 735 0094 00E0     		b	.L61
 736              	.LVL48:
 737              	.L69:
 481:Drivers/STM32L4xx_HAL_Driver/Src/stm32l4xx_hal_pwr_ex.c ****   {
 738              		.loc 1 481 3 view .LVU155
 739 0096 0120     		movs	r0, #1
 740              	.LVL49:
 741              	.L61:
 515:Drivers/STM32L4xx_HAL_Driver/Src/stm32l4xx_hal_pwr_ex.c **** #if defined(GPIOI)
 516:Drivers/STM32L4xx_HAL_Driver/Src/stm32l4xx_hal_pwr_ex.c ****     case PWR_GPIO_I:
 517:Drivers/STM32L4xx_HAL_Driver/Src/stm32l4xx_hal_pwr_ex.c ****        CLEAR_BIT(PWR->PUCRI, (GPIONumber & PWR_PORTI_AVAILABLE_PINS));
 518:Drivers/STM32L4xx_HAL_Driver/Src/stm32l4xx_hal_pwr_ex.c ****        break;
 519:Drivers/STM32L4xx_HAL_Driver/Src/stm32l4xx_hal_pwr_ex.c **** #endif
 520:Drivers/STM32L4xx_HAL_Driver/Src/stm32l4xx_hal_pwr_ex.c ****     default:
 521:Drivers/STM32L4xx_HAL_Driver/Src/stm32l4xx_hal_pwr_ex.c ****        status = HAL_ERROR;
 522:Drivers/STM32L4xx_HAL_Driver/Src/stm32l4xx_hal_pwr_ex.c ****        break;
 523:Drivers/STM32L4xx_HAL_Driver/Src/stm32l4xx_hal_pwr_ex.c ****   }
 524:Drivers/STM32L4xx_HAL_Driver/Src/stm32l4xx_hal_pwr_ex.c **** 
 525:Drivers/STM32L4xx_HAL_Driver/Src/stm32l4xx_hal_pwr_ex.c ****   return status;
 742              		.loc 1 525 3 is_stmt 1 view .LVU156
 526:Drivers/STM32L4xx_HAL_Driver/Src/stm32l4xx_hal_pwr_ex.c **** }
 743              		.loc 1 526 1 is_stmt 0 view .LVU157
 744 0098 38BD     		pop	{r3, r4, r5, pc}
ARM GAS  C:\Users\mathi\AppData\Local\Temp\cc6ocpEq.s 			page 24


 745              	.LVL50:
 746              	.L74:
 747              		.loc 1 526 1 view .LVU158
 748 009a 00BF     		.align	2
 749              	.L73:
 750 009c 00000000 		.word	.LC0
 751 00a0 00700040 		.word	1073770496
 752              		.cfi_endproc
 753              	.LFE301:
 755              		.section	.text.HAL_PWREx_EnableGPIOPullDown,"ax",%progbits
 756              		.align	1
 757              		.global	HAL_PWREx_EnableGPIOPullDown
 758              		.syntax unified
 759              		.thumb
 760              		.thumb_func
 762              	HAL_PWREx_EnableGPIOPullDown:
 763              	.LVL51:
 764              	.LFB302:
 527:Drivers/STM32L4xx_HAL_Driver/Src/stm32l4xx_hal_pwr_ex.c **** 
 528:Drivers/STM32L4xx_HAL_Driver/Src/stm32l4xx_hal_pwr_ex.c **** 
 529:Drivers/STM32L4xx_HAL_Driver/Src/stm32l4xx_hal_pwr_ex.c **** 
 530:Drivers/STM32L4xx_HAL_Driver/Src/stm32l4xx_hal_pwr_ex.c **** /**
 531:Drivers/STM32L4xx_HAL_Driver/Src/stm32l4xx_hal_pwr_ex.c ****   * @brief Enable GPIO pull-down state in Standby and Shutdown modes.
 532:Drivers/STM32L4xx_HAL_Driver/Src/stm32l4xx_hal_pwr_ex.c ****   * @note  Set the relevant PDy bits of PWR_PDCRx register to configure the I/O in
 533:Drivers/STM32L4xx_HAL_Driver/Src/stm32l4xx_hal_pwr_ex.c ****   *        pull-down state in Standby and Shutdown modes.
 534:Drivers/STM32L4xx_HAL_Driver/Src/stm32l4xx_hal_pwr_ex.c ****   * @note  This state is effective in Standby and Shutdown modes only if APC bit
 535:Drivers/STM32L4xx_HAL_Driver/Src/stm32l4xx_hal_pwr_ex.c ****   *        is set through HAL_PWREx_EnablePullUpPullDownConfig() API.
 536:Drivers/STM32L4xx_HAL_Driver/Src/stm32l4xx_hal_pwr_ex.c ****   * @note  The configuration is lost when exiting the Shutdown mode due to the
 537:Drivers/STM32L4xx_HAL_Driver/Src/stm32l4xx_hal_pwr_ex.c ****   *        power-on reset, maintained when exiting the Standby mode.
 538:Drivers/STM32L4xx_HAL_Driver/Src/stm32l4xx_hal_pwr_ex.c ****   * @note  To avoid any conflict at Standby and Shutdown modes exits, the corresponding
 539:Drivers/STM32L4xx_HAL_Driver/Src/stm32l4xx_hal_pwr_ex.c ****   *        PUy bit of PWR_PUCRx register is cleared unless it is reserved.
 540:Drivers/STM32L4xx_HAL_Driver/Src/stm32l4xx_hal_pwr_ex.c ****   * @note  Even if a PDy bit to set is reserved, the other PDy bits entered as input
 541:Drivers/STM32L4xx_HAL_Driver/Src/stm32l4xx_hal_pwr_ex.c ****   *        parameter at the same time are set.
 542:Drivers/STM32L4xx_HAL_Driver/Src/stm32l4xx_hal_pwr_ex.c ****   * @param  GPIO Specify the IO port. This parameter can be PWR_GPIO_A..PWR_GPIO_H
 543:Drivers/STM32L4xx_HAL_Driver/Src/stm32l4xx_hal_pwr_ex.c ****   *         (or PWR_GPIO_I depending on the devices) to select the GPIO peripheral.
 544:Drivers/STM32L4xx_HAL_Driver/Src/stm32l4xx_hal_pwr_ex.c ****   * @param  GPIONumber Specify the I/O pins numbers.
 545:Drivers/STM32L4xx_HAL_Driver/Src/stm32l4xx_hal_pwr_ex.c ****   *         This parameter can be one of the following values:
 546:Drivers/STM32L4xx_HAL_Driver/Src/stm32l4xx_hal_pwr_ex.c ****   *         PWR_GPIO_BIT_0, ..., PWR_GPIO_BIT_15 (except for the port where less
 547:Drivers/STM32L4xx_HAL_Driver/Src/stm32l4xx_hal_pwr_ex.c ****   *         I/O pins are available) or the logical OR of several of them to set
 548:Drivers/STM32L4xx_HAL_Driver/Src/stm32l4xx_hal_pwr_ex.c ****   *         several bits for a given port in a single API call.
 549:Drivers/STM32L4xx_HAL_Driver/Src/stm32l4xx_hal_pwr_ex.c ****   * @retval HAL Status
 550:Drivers/STM32L4xx_HAL_Driver/Src/stm32l4xx_hal_pwr_ex.c ****   */
 551:Drivers/STM32L4xx_HAL_Driver/Src/stm32l4xx_hal_pwr_ex.c **** HAL_StatusTypeDef HAL_PWREx_EnableGPIOPullDown(uint32_t GPIO, uint32_t GPIONumber)
 552:Drivers/STM32L4xx_HAL_Driver/Src/stm32l4xx_hal_pwr_ex.c **** {
 765              		.loc 1 552 1 is_stmt 1 view -0
 766              		.cfi_startproc
 767              		@ args = 0, pretend = 0, frame = 0
 768              		@ frame_needed = 0, uses_anonymous_args = 0
 769              		.loc 1 552 1 is_stmt 0 view .LVU160
 770 0000 38B5     		push	{r3, r4, r5, lr}
 771              		.cfi_def_cfa_offset 16
 772              		.cfi_offset 3, -16
 773              		.cfi_offset 4, -12
 774              		.cfi_offset 5, -8
 775              		.cfi_offset 14, -4
 776 0002 0446     		mov	r4, r0
 777 0004 0D46     		mov	r5, r1
ARM GAS  C:\Users\mathi\AppData\Local\Temp\cc6ocpEq.s 			page 25


 553:Drivers/STM32L4xx_HAL_Driver/Src/stm32l4xx_hal_pwr_ex.c ****   HAL_StatusTypeDef status = HAL_OK;
 778              		.loc 1 553 3 is_stmt 1 view .LVU161
 779              	.LVL52:
 554:Drivers/STM32L4xx_HAL_Driver/Src/stm32l4xx_hal_pwr_ex.c **** 
 555:Drivers/STM32L4xx_HAL_Driver/Src/stm32l4xx_hal_pwr_ex.c ****   assert_param(IS_PWR_GPIO(GPIO));
 780              		.loc 1 555 3 view .LVU162
 781 0006 0428     		cmp	r0, #4
 782 0008 01D9     		bls	.L76
 783              		.loc 1 555 3 is_stmt 0 discriminator 1 view .LVU163
 784 000a 0728     		cmp	r0, #7
 785 000c 09D1     		bne	.L88
 786              	.LVL53:
 787              	.L76:
 556:Drivers/STM32L4xx_HAL_Driver/Src/stm32l4xx_hal_pwr_ex.c ****   assert_param(IS_PWR_GPIO_BIT_NUMBER(GPIONumber));
 788              		.loc 1 556 3 is_stmt 1 view .LVU164
 789 000e ABB2     		uxth	r3, r5
 790 0010 6BB1     		cbz	r3, .L89
 791              	.L77:
 557:Drivers/STM32L4xx_HAL_Driver/Src/stm32l4xx_hal_pwr_ex.c **** 
 558:Drivers/STM32L4xx_HAL_Driver/Src/stm32l4xx_hal_pwr_ex.c ****   switch (GPIO)
 792              		.loc 1 558 3 view .LVU165
 793 0012 072C     		cmp	r4, #7
 794 0014 55D8     		bhi	.L86
 795 0016 DFE804F0 		tbb	[pc, r4]
 796              	.L80:
 797 001a 10       		.byte	(.L85-.L80)/2
 798 001b 1E       		.byte	(.L84-.L80)/2
 799 001c 2A       		.byte	(.L83-.L80)/2
 800 001d 34       		.byte	(.L82-.L80)/2
 801 001e 3E       		.byte	(.L81-.L80)/2
 802 001f 54       		.byte	(.L86-.L80)/2
 803 0020 54       		.byte	(.L86-.L80)/2
 804 0021 48       		.byte	(.L79-.L80)/2
 805              	.LVL54:
 806              		.p2align 1
 807              	.L88:
 555:Drivers/STM32L4xx_HAL_Driver/Src/stm32l4xx_hal_pwr_ex.c ****   assert_param(IS_PWR_GPIO_BIT_NUMBER(GPIONumber));
 808              		.loc 1 555 3 is_stmt 0 discriminator 2 view .LVU166
 809 0022 40F22B21 		movw	r1, #555
 810              	.LVL55:
 555:Drivers/STM32L4xx_HAL_Driver/Src/stm32l4xx_hal_pwr_ex.c ****   assert_param(IS_PWR_GPIO_BIT_NUMBER(GPIONumber));
 811              		.loc 1 555 3 discriminator 2 view .LVU167
 812 0026 2848     		ldr	r0, .L90
 813              	.LVL56:
 555:Drivers/STM32L4xx_HAL_Driver/Src/stm32l4xx_hal_pwr_ex.c ****   assert_param(IS_PWR_GPIO_BIT_NUMBER(GPIONumber));
 814              		.loc 1 555 3 discriminator 2 view .LVU168
 815 0028 FFF7FEFF 		bl	assert_failed
 816              	.LVL57:
 817 002c EFE7     		b	.L76
 818              	.L89:
 556:Drivers/STM32L4xx_HAL_Driver/Src/stm32l4xx_hal_pwr_ex.c ****   assert_param(IS_PWR_GPIO_BIT_NUMBER(GPIONumber));
 819              		.loc 1 556 3 discriminator 1 view .LVU169
 820 002e 4FF40B71 		mov	r1, #556
 821 0032 2548     		ldr	r0, .L90
 822 0034 FFF7FEFF 		bl	assert_failed
 823              	.LVL58:
 824 0038 EBE7     		b	.L77
ARM GAS  C:\Users\mathi\AppData\Local\Temp\cc6ocpEq.s 			page 26


 825              	.L85:
 559:Drivers/STM32L4xx_HAL_Driver/Src/stm32l4xx_hal_pwr_ex.c ****   {
 560:Drivers/STM32L4xx_HAL_Driver/Src/stm32l4xx_hal_pwr_ex.c ****     case PWR_GPIO_A:
 561:Drivers/STM32L4xx_HAL_Driver/Src/stm32l4xx_hal_pwr_ex.c ****        SET_BIT(PWR->PDCRA, (GPIONumber & (~(PWR_GPIO_BIT_13|PWR_GPIO_BIT_15))));
 826              		.loc 1 561 8 is_stmt 1 view .LVU170
 827 003a 244B     		ldr	r3, .L90+4
 828 003c 5A6A     		ldr	r2, [r3, #36]
 829 003e 25F42041 		bic	r1, r5, #40960
 830 0042 0A43     		orrs	r2, r2, r1
 831 0044 5A62     		str	r2, [r3, #36]
 562:Drivers/STM32L4xx_HAL_Driver/Src/stm32l4xx_hal_pwr_ex.c ****        CLEAR_BIT(PWR->PUCRA, (GPIONumber & (~(PWR_GPIO_BIT_14))));
 832              		.loc 1 562 8 view .LVU171
 833 0046 1A6A     		ldr	r2, [r3, #32]
 834 0048 25F48045 		bic	r5, r5, #16384
 835              	.LVL59:
 836              		.loc 1 562 8 is_stmt 0 view .LVU172
 837 004c 22EA0502 		bic	r2, r2, r5
 838 0050 1A62     		str	r2, [r3, #32]
 563:Drivers/STM32L4xx_HAL_Driver/Src/stm32l4xx_hal_pwr_ex.c ****        break;
 839              		.loc 1 563 8 is_stmt 1 view .LVU173
 553:Drivers/STM32L4xx_HAL_Driver/Src/stm32l4xx_hal_pwr_ex.c **** 
 840              		.loc 1 553 21 is_stmt 0 view .LVU174
 841 0052 0020     		movs	r0, #0
 842              		.loc 1 563 8 view .LVU175
 843 0054 36E0     		b	.L78
 844              	.LVL60:
 845              	.L84:
 564:Drivers/STM32L4xx_HAL_Driver/Src/stm32l4xx_hal_pwr_ex.c ****     case PWR_GPIO_B:
 565:Drivers/STM32L4xx_HAL_Driver/Src/stm32l4xx_hal_pwr_ex.c ****        SET_BIT(PWR->PDCRB, (GPIONumber & (~(PWR_GPIO_BIT_4))));
 846              		.loc 1 565 8 is_stmt 1 view .LVU176
 847 0056 1D4B     		ldr	r3, .L90+4
 848 0058 DA6A     		ldr	r2, [r3, #44]
 849 005a 25F01001 		bic	r1, r5, #16
 850 005e 0A43     		orrs	r2, r2, r1
 851 0060 DA62     		str	r2, [r3, #44]
 566:Drivers/STM32L4xx_HAL_Driver/Src/stm32l4xx_hal_pwr_ex.c ****        CLEAR_BIT(PWR->PUCRB, GPIONumber);
 852              		.loc 1 566 8 view .LVU177
 853 0062 9A6A     		ldr	r2, [r3, #40]
 854 0064 22EA0502 		bic	r2, r2, r5
 855 0068 9A62     		str	r2, [r3, #40]
 567:Drivers/STM32L4xx_HAL_Driver/Src/stm32l4xx_hal_pwr_ex.c ****        break;
 856              		.loc 1 567 8 view .LVU178
 553:Drivers/STM32L4xx_HAL_Driver/Src/stm32l4xx_hal_pwr_ex.c **** 
 857              		.loc 1 553 21 is_stmt 0 view .LVU179
 858 006a 0020     		movs	r0, #0
 859              		.loc 1 567 8 view .LVU180
 860 006c 2AE0     		b	.L78
 861              	.L83:
 568:Drivers/STM32L4xx_HAL_Driver/Src/stm32l4xx_hal_pwr_ex.c ****     case PWR_GPIO_C:
 569:Drivers/STM32L4xx_HAL_Driver/Src/stm32l4xx_hal_pwr_ex.c ****        SET_BIT(PWR->PDCRC, GPIONumber);
 862              		.loc 1 569 8 is_stmt 1 view .LVU181
 863 006e 174B     		ldr	r3, .L90+4
 864 0070 5A6B     		ldr	r2, [r3, #52]
 865 0072 2A43     		orrs	r2, r2, r5
 866 0074 5A63     		str	r2, [r3, #52]
 570:Drivers/STM32L4xx_HAL_Driver/Src/stm32l4xx_hal_pwr_ex.c ****        CLEAR_BIT(PWR->PUCRC, GPIONumber);
 867              		.loc 1 570 8 view .LVU182
ARM GAS  C:\Users\mathi\AppData\Local\Temp\cc6ocpEq.s 			page 27


 868 0076 1A6B     		ldr	r2, [r3, #48]
 869 0078 22EA0502 		bic	r2, r2, r5
 870 007c 1A63     		str	r2, [r3, #48]
 571:Drivers/STM32L4xx_HAL_Driver/Src/stm32l4xx_hal_pwr_ex.c ****        break;
 871              		.loc 1 571 8 view .LVU183
 553:Drivers/STM32L4xx_HAL_Driver/Src/stm32l4xx_hal_pwr_ex.c **** 
 872              		.loc 1 553 21 is_stmt 0 view .LVU184
 873 007e 0020     		movs	r0, #0
 874              		.loc 1 571 8 view .LVU185
 875 0080 20E0     		b	.L78
 876              	.L82:
 572:Drivers/STM32L4xx_HAL_Driver/Src/stm32l4xx_hal_pwr_ex.c **** #if defined(GPIOD)
 573:Drivers/STM32L4xx_HAL_Driver/Src/stm32l4xx_hal_pwr_ex.c ****     case PWR_GPIO_D:
 574:Drivers/STM32L4xx_HAL_Driver/Src/stm32l4xx_hal_pwr_ex.c ****        SET_BIT(PWR->PDCRD, GPIONumber);
 877              		.loc 1 574 8 is_stmt 1 view .LVU186
 878 0082 124B     		ldr	r3, .L90+4
 879 0084 DA6B     		ldr	r2, [r3, #60]
 880 0086 2A43     		orrs	r2, r2, r5
 881 0088 DA63     		str	r2, [r3, #60]
 575:Drivers/STM32L4xx_HAL_Driver/Src/stm32l4xx_hal_pwr_ex.c ****        CLEAR_BIT(PWR->PUCRD, GPIONumber);
 882              		.loc 1 575 8 view .LVU187
 883 008a 9A6B     		ldr	r2, [r3, #56]
 884 008c 22EA0502 		bic	r2, r2, r5
 885 0090 9A63     		str	r2, [r3, #56]
 576:Drivers/STM32L4xx_HAL_Driver/Src/stm32l4xx_hal_pwr_ex.c ****        break;
 886              		.loc 1 576 8 view .LVU188
 553:Drivers/STM32L4xx_HAL_Driver/Src/stm32l4xx_hal_pwr_ex.c **** 
 887              		.loc 1 553 21 is_stmt 0 view .LVU189
 888 0092 0020     		movs	r0, #0
 889              		.loc 1 576 8 view .LVU190
 890 0094 16E0     		b	.L78
 891              	.L81:
 577:Drivers/STM32L4xx_HAL_Driver/Src/stm32l4xx_hal_pwr_ex.c **** #endif
 578:Drivers/STM32L4xx_HAL_Driver/Src/stm32l4xx_hal_pwr_ex.c **** #if defined(GPIOE)
 579:Drivers/STM32L4xx_HAL_Driver/Src/stm32l4xx_hal_pwr_ex.c ****     case PWR_GPIO_E:
 580:Drivers/STM32L4xx_HAL_Driver/Src/stm32l4xx_hal_pwr_ex.c ****        SET_BIT(PWR->PDCRE, GPIONumber);
 892              		.loc 1 580 8 is_stmt 1 view .LVU191
 893 0096 0D4B     		ldr	r3, .L90+4
 894 0098 5A6C     		ldr	r2, [r3, #68]
 895 009a 2A43     		orrs	r2, r2, r5
 896 009c 5A64     		str	r2, [r3, #68]
 581:Drivers/STM32L4xx_HAL_Driver/Src/stm32l4xx_hal_pwr_ex.c ****        CLEAR_BIT(PWR->PUCRE, GPIONumber);
 897              		.loc 1 581 8 view .LVU192
 898 009e 1A6C     		ldr	r2, [r3, #64]
 899 00a0 22EA0502 		bic	r2, r2, r5
 900 00a4 1A64     		str	r2, [r3, #64]
 582:Drivers/STM32L4xx_HAL_Driver/Src/stm32l4xx_hal_pwr_ex.c ****        break;
 901              		.loc 1 582 8 view .LVU193
 553:Drivers/STM32L4xx_HAL_Driver/Src/stm32l4xx_hal_pwr_ex.c **** 
 902              		.loc 1 553 21 is_stmt 0 view .LVU194
 903 00a6 0020     		movs	r0, #0
 904              		.loc 1 582 8 view .LVU195
 905 00a8 0CE0     		b	.L78
 906              	.L79:
 583:Drivers/STM32L4xx_HAL_Driver/Src/stm32l4xx_hal_pwr_ex.c **** #endif
 584:Drivers/STM32L4xx_HAL_Driver/Src/stm32l4xx_hal_pwr_ex.c **** #if defined(GPIOF)
 585:Drivers/STM32L4xx_HAL_Driver/Src/stm32l4xx_hal_pwr_ex.c ****     case PWR_GPIO_F:
ARM GAS  C:\Users\mathi\AppData\Local\Temp\cc6ocpEq.s 			page 28


 586:Drivers/STM32L4xx_HAL_Driver/Src/stm32l4xx_hal_pwr_ex.c ****        SET_BIT(PWR->PDCRF, GPIONumber);
 587:Drivers/STM32L4xx_HAL_Driver/Src/stm32l4xx_hal_pwr_ex.c ****        CLEAR_BIT(PWR->PUCRF, GPIONumber);
 588:Drivers/STM32L4xx_HAL_Driver/Src/stm32l4xx_hal_pwr_ex.c ****        break;
 589:Drivers/STM32L4xx_HAL_Driver/Src/stm32l4xx_hal_pwr_ex.c **** #endif
 590:Drivers/STM32L4xx_HAL_Driver/Src/stm32l4xx_hal_pwr_ex.c **** #if defined(GPIOG)
 591:Drivers/STM32L4xx_HAL_Driver/Src/stm32l4xx_hal_pwr_ex.c ****     case PWR_GPIO_G:
 592:Drivers/STM32L4xx_HAL_Driver/Src/stm32l4xx_hal_pwr_ex.c ****        SET_BIT(PWR->PDCRG, GPIONumber);
 593:Drivers/STM32L4xx_HAL_Driver/Src/stm32l4xx_hal_pwr_ex.c ****        CLEAR_BIT(PWR->PUCRG, GPIONumber);
 594:Drivers/STM32L4xx_HAL_Driver/Src/stm32l4xx_hal_pwr_ex.c ****        break;
 595:Drivers/STM32L4xx_HAL_Driver/Src/stm32l4xx_hal_pwr_ex.c **** #endif
 596:Drivers/STM32L4xx_HAL_Driver/Src/stm32l4xx_hal_pwr_ex.c ****     case PWR_GPIO_H:
 597:Drivers/STM32L4xx_HAL_Driver/Src/stm32l4xx_hal_pwr_ex.c **** #if defined (STM32L496xx) || defined (STM32L4A6xx)
 598:Drivers/STM32L4xx_HAL_Driver/Src/stm32l4xx_hal_pwr_ex.c ****        SET_BIT(PWR->PDCRH, ((GPIONumber & PWR_PORTH_AVAILABLE_PINS) & (~(PWR_GPIO_BIT_3))));
 599:Drivers/STM32L4xx_HAL_Driver/Src/stm32l4xx_hal_pwr_ex.c **** #else
 600:Drivers/STM32L4xx_HAL_Driver/Src/stm32l4xx_hal_pwr_ex.c ****        SET_BIT(PWR->PDCRH, (GPIONumber & PWR_PORTH_AVAILABLE_PINS));
 907              		.loc 1 600 8 is_stmt 1 view .LVU196
 908 00aa 084B     		ldr	r3, .L90+4
 909 00ac DA6D     		ldr	r2, [r3, #92]
 910 00ae 05F00B05 		and	r5, r5, #11
 911              	.LVL61:
 912              		.loc 1 600 8 is_stmt 0 view .LVU197
 913 00b2 2A43     		orrs	r2, r2, r5
 914 00b4 DA65     		str	r2, [r3, #92]
 601:Drivers/STM32L4xx_HAL_Driver/Src/stm32l4xx_hal_pwr_ex.c **** #endif
 602:Drivers/STM32L4xx_HAL_Driver/Src/stm32l4xx_hal_pwr_ex.c ****        CLEAR_BIT(PWR->PUCRH, (GPIONumber & PWR_PORTH_AVAILABLE_PINS));
 915              		.loc 1 602 8 is_stmt 1 view .LVU198
 916 00b6 9A6D     		ldr	r2, [r3, #88]
 917 00b8 22EA0502 		bic	r2, r2, r5
 918 00bc 9A65     		str	r2, [r3, #88]
 603:Drivers/STM32L4xx_HAL_Driver/Src/stm32l4xx_hal_pwr_ex.c ****        break;
 919              		.loc 1 603 8 view .LVU199
 553:Drivers/STM32L4xx_HAL_Driver/Src/stm32l4xx_hal_pwr_ex.c **** 
 920              		.loc 1 553 21 is_stmt 0 view .LVU200
 921 00be 0020     		movs	r0, #0
 922              		.loc 1 603 8 view .LVU201
 923 00c0 00E0     		b	.L78
 924              	.LVL62:
 925              	.L86:
 558:Drivers/STM32L4xx_HAL_Driver/Src/stm32l4xx_hal_pwr_ex.c ****   {
 926              		.loc 1 558 3 view .LVU202
 927 00c2 0120     		movs	r0, #1
 928              	.LVL63:
 929              	.L78:
 604:Drivers/STM32L4xx_HAL_Driver/Src/stm32l4xx_hal_pwr_ex.c **** #if defined(GPIOI)
 605:Drivers/STM32L4xx_HAL_Driver/Src/stm32l4xx_hal_pwr_ex.c ****     case PWR_GPIO_I:
 606:Drivers/STM32L4xx_HAL_Driver/Src/stm32l4xx_hal_pwr_ex.c ****        SET_BIT(PWR->PDCRI, (GPIONumber & PWR_PORTI_AVAILABLE_PINS));
 607:Drivers/STM32L4xx_HAL_Driver/Src/stm32l4xx_hal_pwr_ex.c ****        CLEAR_BIT(PWR->PUCRI, (GPIONumber & PWR_PORTI_AVAILABLE_PINS));
 608:Drivers/STM32L4xx_HAL_Driver/Src/stm32l4xx_hal_pwr_ex.c ****        break;
 609:Drivers/STM32L4xx_HAL_Driver/Src/stm32l4xx_hal_pwr_ex.c **** #endif
 610:Drivers/STM32L4xx_HAL_Driver/Src/stm32l4xx_hal_pwr_ex.c ****     default:
 611:Drivers/STM32L4xx_HAL_Driver/Src/stm32l4xx_hal_pwr_ex.c ****       status = HAL_ERROR;
 612:Drivers/STM32L4xx_HAL_Driver/Src/stm32l4xx_hal_pwr_ex.c ****       break;
 613:Drivers/STM32L4xx_HAL_Driver/Src/stm32l4xx_hal_pwr_ex.c ****   }
 614:Drivers/STM32L4xx_HAL_Driver/Src/stm32l4xx_hal_pwr_ex.c **** 
 615:Drivers/STM32L4xx_HAL_Driver/Src/stm32l4xx_hal_pwr_ex.c ****   return status;
 930              		.loc 1 615 3 is_stmt 1 view .LVU203
 616:Drivers/STM32L4xx_HAL_Driver/Src/stm32l4xx_hal_pwr_ex.c **** }
ARM GAS  C:\Users\mathi\AppData\Local\Temp\cc6ocpEq.s 			page 29


 931              		.loc 1 616 1 is_stmt 0 view .LVU204
 932 00c4 38BD     		pop	{r3, r4, r5, pc}
 933              	.LVL64:
 934              	.L91:
 935              		.loc 1 616 1 view .LVU205
 936 00c6 00BF     		.align	2
 937              	.L90:
 938 00c8 00000000 		.word	.LC0
 939 00cc 00700040 		.word	1073770496
 940              		.cfi_endproc
 941              	.LFE302:
 943              		.section	.text.HAL_PWREx_DisableGPIOPullDown,"ax",%progbits
 944              		.align	1
 945              		.global	HAL_PWREx_DisableGPIOPullDown
 946              		.syntax unified
 947              		.thumb
 948              		.thumb_func
 950              	HAL_PWREx_DisableGPIOPullDown:
 951              	.LVL65:
 952              	.LFB303:
 617:Drivers/STM32L4xx_HAL_Driver/Src/stm32l4xx_hal_pwr_ex.c **** 
 618:Drivers/STM32L4xx_HAL_Driver/Src/stm32l4xx_hal_pwr_ex.c **** 
 619:Drivers/STM32L4xx_HAL_Driver/Src/stm32l4xx_hal_pwr_ex.c **** /**
 620:Drivers/STM32L4xx_HAL_Driver/Src/stm32l4xx_hal_pwr_ex.c ****   * @brief Disable GPIO pull-down state in Standby and Shutdown modes.
 621:Drivers/STM32L4xx_HAL_Driver/Src/stm32l4xx_hal_pwr_ex.c ****   * @note  Reset the relevant PDy bits of PWR_PDCRx register used to configure the I/O
 622:Drivers/STM32L4xx_HAL_Driver/Src/stm32l4xx_hal_pwr_ex.c ****   *        in pull-down state in Standby and Shutdown modes.
 623:Drivers/STM32L4xx_HAL_Driver/Src/stm32l4xx_hal_pwr_ex.c ****   * @note  Even if a PDy bit to reset is reserved, the other PDy bits entered as input
 624:Drivers/STM32L4xx_HAL_Driver/Src/stm32l4xx_hal_pwr_ex.c ****   *        parameter at the same time are reset.
 625:Drivers/STM32L4xx_HAL_Driver/Src/stm32l4xx_hal_pwr_ex.c ****   * @param  GPIO Specifies the IO port. This parameter can be PWR_GPIO_A..PWR_GPIO_H
 626:Drivers/STM32L4xx_HAL_Driver/Src/stm32l4xx_hal_pwr_ex.c ****   *         (or PWR_GPIO_I depending on the devices) to select the GPIO peripheral.
 627:Drivers/STM32L4xx_HAL_Driver/Src/stm32l4xx_hal_pwr_ex.c ****   * @param  GPIONumber Specify the I/O pins numbers.
 628:Drivers/STM32L4xx_HAL_Driver/Src/stm32l4xx_hal_pwr_ex.c ****   *         This parameter can be one of the following values:
 629:Drivers/STM32L4xx_HAL_Driver/Src/stm32l4xx_hal_pwr_ex.c ****   *         PWR_GPIO_BIT_0, ..., PWR_GPIO_BIT_15 (except for the port where less
 630:Drivers/STM32L4xx_HAL_Driver/Src/stm32l4xx_hal_pwr_ex.c ****   *         I/O pins are available) or the logical OR of several of them to reset
 631:Drivers/STM32L4xx_HAL_Driver/Src/stm32l4xx_hal_pwr_ex.c ****   *         several bits for a given port in a single API call.
 632:Drivers/STM32L4xx_HAL_Driver/Src/stm32l4xx_hal_pwr_ex.c ****   * @retval HAL Status
 633:Drivers/STM32L4xx_HAL_Driver/Src/stm32l4xx_hal_pwr_ex.c ****   */
 634:Drivers/STM32L4xx_HAL_Driver/Src/stm32l4xx_hal_pwr_ex.c **** HAL_StatusTypeDef HAL_PWREx_DisableGPIOPullDown(uint32_t GPIO, uint32_t GPIONumber)
 635:Drivers/STM32L4xx_HAL_Driver/Src/stm32l4xx_hal_pwr_ex.c **** {
 953              		.loc 1 635 1 is_stmt 1 view -0
 954              		.cfi_startproc
 955              		@ args = 0, pretend = 0, frame = 0
 956              		@ frame_needed = 0, uses_anonymous_args = 0
 957              		.loc 1 635 1 is_stmt 0 view .LVU207
 958 0000 38B5     		push	{r3, r4, r5, lr}
 959              		.cfi_def_cfa_offset 16
 960              		.cfi_offset 3, -16
 961              		.cfi_offset 4, -12
 962              		.cfi_offset 5, -8
 963              		.cfi_offset 14, -4
 964 0002 0446     		mov	r4, r0
 965 0004 0D46     		mov	r5, r1
 636:Drivers/STM32L4xx_HAL_Driver/Src/stm32l4xx_hal_pwr_ex.c ****   HAL_StatusTypeDef status = HAL_OK;
 966              		.loc 1 636 3 is_stmt 1 view .LVU208
 967              	.LVL66:
 637:Drivers/STM32L4xx_HAL_Driver/Src/stm32l4xx_hal_pwr_ex.c **** 
 638:Drivers/STM32L4xx_HAL_Driver/Src/stm32l4xx_hal_pwr_ex.c ****   assert_param(IS_PWR_GPIO(GPIO));
ARM GAS  C:\Users\mathi\AppData\Local\Temp\cc6ocpEq.s 			page 30


 968              		.loc 1 638 3 view .LVU209
 969 0006 0428     		cmp	r0, #4
 970 0008 01D9     		bls	.L93
 971              		.loc 1 638 3 is_stmt 0 discriminator 1 view .LVU210
 972 000a 0728     		cmp	r0, #7
 973 000c 09D1     		bne	.L105
 974              	.LVL67:
 975              	.L93:
 639:Drivers/STM32L4xx_HAL_Driver/Src/stm32l4xx_hal_pwr_ex.c ****   assert_param(IS_PWR_GPIO_BIT_NUMBER(GPIONumber));
 976              		.loc 1 639 3 is_stmt 1 view .LVU211
 977 000e ABB2     		uxth	r3, r5
 978 0010 6BB1     		cbz	r3, .L106
 979              	.L94:
 640:Drivers/STM32L4xx_HAL_Driver/Src/stm32l4xx_hal_pwr_ex.c **** 
 641:Drivers/STM32L4xx_HAL_Driver/Src/stm32l4xx_hal_pwr_ex.c ****   switch (GPIO)
 980              		.loc 1 641 3 view .LVU212
 981 0012 072C     		cmp	r4, #7
 982 0014 41D8     		bhi	.L103
 983 0016 DFE804F0 		tbb	[pc, r4]
 984              	.L97:
 985 001a 10       		.byte	(.L102-.L97)/2
 986 001b 19       		.byte	(.L101-.L97)/2
 987 001c 22       		.byte	(.L100-.L97)/2
 988 001d 29       		.byte	(.L99-.L97)/2
 989 001e 30       		.byte	(.L98-.L97)/2
 990 001f 40       		.byte	(.L103-.L97)/2
 991 0020 40       		.byte	(.L103-.L97)/2
 992 0021 37       		.byte	(.L96-.L97)/2
 993              	.LVL68:
 994              		.p2align 1
 995              	.L105:
 638:Drivers/STM32L4xx_HAL_Driver/Src/stm32l4xx_hal_pwr_ex.c ****   assert_param(IS_PWR_GPIO_BIT_NUMBER(GPIONumber));
 996              		.loc 1 638 3 is_stmt 0 discriminator 2 view .LVU213
 997 0022 40F27E21 		movw	r1, #638
 998              	.LVL69:
 638:Drivers/STM32L4xx_HAL_Driver/Src/stm32l4xx_hal_pwr_ex.c ****   assert_param(IS_PWR_GPIO_BIT_NUMBER(GPIONumber));
 999              		.loc 1 638 3 discriminator 2 view .LVU214
 1000 0026 1E48     		ldr	r0, .L107
 1001              	.LVL70:
 638:Drivers/STM32L4xx_HAL_Driver/Src/stm32l4xx_hal_pwr_ex.c ****   assert_param(IS_PWR_GPIO_BIT_NUMBER(GPIONumber));
 1002              		.loc 1 638 3 discriminator 2 view .LVU215
 1003 0028 FFF7FEFF 		bl	assert_failed
 1004              	.LVL71:
 1005 002c EFE7     		b	.L93
 1006              	.L106:
 639:Drivers/STM32L4xx_HAL_Driver/Src/stm32l4xx_hal_pwr_ex.c ****   assert_param(IS_PWR_GPIO_BIT_NUMBER(GPIONumber));
 1007              		.loc 1 639 3 discriminator 1 view .LVU216
 1008 002e 40F27F21 		movw	r1, #639
 1009 0032 1B48     		ldr	r0, .L107
 1010 0034 FFF7FEFF 		bl	assert_failed
 1011              	.LVL72:
 1012 0038 EBE7     		b	.L94
 1013              	.L102:
 642:Drivers/STM32L4xx_HAL_Driver/Src/stm32l4xx_hal_pwr_ex.c ****   {
 643:Drivers/STM32L4xx_HAL_Driver/Src/stm32l4xx_hal_pwr_ex.c ****     case PWR_GPIO_A:
 644:Drivers/STM32L4xx_HAL_Driver/Src/stm32l4xx_hal_pwr_ex.c ****        CLEAR_BIT(PWR->PDCRA, (GPIONumber & (~(PWR_GPIO_BIT_13|PWR_GPIO_BIT_15))));
 1014              		.loc 1 644 8 is_stmt 1 view .LVU217
ARM GAS  C:\Users\mathi\AppData\Local\Temp\cc6ocpEq.s 			page 31


 1015 003a 1A4A     		ldr	r2, .L107+4
 1016 003c 536A     		ldr	r3, [r2, #36]
 1017 003e 25F42045 		bic	r5, r5, #40960
 1018              	.LVL73:
 1019              		.loc 1 644 8 is_stmt 0 view .LVU218
 1020 0042 23EA0503 		bic	r3, r3, r5
 1021 0046 5362     		str	r3, [r2, #36]
 645:Drivers/STM32L4xx_HAL_Driver/Src/stm32l4xx_hal_pwr_ex.c ****        break;
 1022              		.loc 1 645 8 is_stmt 1 view .LVU219
 636:Drivers/STM32L4xx_HAL_Driver/Src/stm32l4xx_hal_pwr_ex.c **** 
 1023              		.loc 1 636 21 is_stmt 0 view .LVU220
 1024 0048 0020     		movs	r0, #0
 1025              		.loc 1 645 8 view .LVU221
 1026 004a 27E0     		b	.L95
 1027              	.LVL74:
 1028              	.L101:
 646:Drivers/STM32L4xx_HAL_Driver/Src/stm32l4xx_hal_pwr_ex.c ****     case PWR_GPIO_B:
 647:Drivers/STM32L4xx_HAL_Driver/Src/stm32l4xx_hal_pwr_ex.c ****        CLEAR_BIT(PWR->PDCRB, (GPIONumber & (~(PWR_GPIO_BIT_4))));
 1029              		.loc 1 647 8 is_stmt 1 view .LVU222
 1030 004c 154A     		ldr	r2, .L107+4
 1031 004e D36A     		ldr	r3, [r2, #44]
 1032 0050 25F01005 		bic	r5, r5, #16
 1033              	.LVL75:
 1034              		.loc 1 647 8 is_stmt 0 view .LVU223
 1035 0054 23EA0503 		bic	r3, r3, r5
 1036 0058 D362     		str	r3, [r2, #44]
 648:Drivers/STM32L4xx_HAL_Driver/Src/stm32l4xx_hal_pwr_ex.c ****        break;
 1037              		.loc 1 648 8 is_stmt 1 view .LVU224
 636:Drivers/STM32L4xx_HAL_Driver/Src/stm32l4xx_hal_pwr_ex.c **** 
 1038              		.loc 1 636 21 is_stmt 0 view .LVU225
 1039 005a 0020     		movs	r0, #0
 1040              		.loc 1 648 8 view .LVU226
 1041 005c 1EE0     		b	.L95
 1042              	.LVL76:
 1043              	.L100:
 649:Drivers/STM32L4xx_HAL_Driver/Src/stm32l4xx_hal_pwr_ex.c ****     case PWR_GPIO_C:
 650:Drivers/STM32L4xx_HAL_Driver/Src/stm32l4xx_hal_pwr_ex.c ****        CLEAR_BIT(PWR->PDCRC, GPIONumber);
 1044              		.loc 1 650 8 is_stmt 1 view .LVU227
 1045 005e 114A     		ldr	r2, .L107+4
 1046 0060 536B     		ldr	r3, [r2, #52]
 1047 0062 23EA0503 		bic	r3, r3, r5
 1048 0066 5363     		str	r3, [r2, #52]
 651:Drivers/STM32L4xx_HAL_Driver/Src/stm32l4xx_hal_pwr_ex.c ****        break;
 1049              		.loc 1 651 8 view .LVU228
 636:Drivers/STM32L4xx_HAL_Driver/Src/stm32l4xx_hal_pwr_ex.c **** 
 1050              		.loc 1 636 21 is_stmt 0 view .LVU229
 1051 0068 0020     		movs	r0, #0
 1052              		.loc 1 651 8 view .LVU230
 1053 006a 17E0     		b	.L95
 1054              	.L99:
 652:Drivers/STM32L4xx_HAL_Driver/Src/stm32l4xx_hal_pwr_ex.c **** #if defined(GPIOD)
 653:Drivers/STM32L4xx_HAL_Driver/Src/stm32l4xx_hal_pwr_ex.c ****     case PWR_GPIO_D:
 654:Drivers/STM32L4xx_HAL_Driver/Src/stm32l4xx_hal_pwr_ex.c ****        CLEAR_BIT(PWR->PDCRD, GPIONumber);
 1055              		.loc 1 654 8 is_stmt 1 view .LVU231
 1056 006c 0D4A     		ldr	r2, .L107+4
 1057 006e D36B     		ldr	r3, [r2, #60]
 1058 0070 23EA0503 		bic	r3, r3, r5
ARM GAS  C:\Users\mathi\AppData\Local\Temp\cc6ocpEq.s 			page 32


 1059 0074 D363     		str	r3, [r2, #60]
 655:Drivers/STM32L4xx_HAL_Driver/Src/stm32l4xx_hal_pwr_ex.c ****        break;
 1060              		.loc 1 655 8 view .LVU232
 636:Drivers/STM32L4xx_HAL_Driver/Src/stm32l4xx_hal_pwr_ex.c **** 
 1061              		.loc 1 636 21 is_stmt 0 view .LVU233
 1062 0076 0020     		movs	r0, #0
 1063              		.loc 1 655 8 view .LVU234
 1064 0078 10E0     		b	.L95
 1065              	.L98:
 656:Drivers/STM32L4xx_HAL_Driver/Src/stm32l4xx_hal_pwr_ex.c **** #endif
 657:Drivers/STM32L4xx_HAL_Driver/Src/stm32l4xx_hal_pwr_ex.c **** #if defined(GPIOE)
 658:Drivers/STM32L4xx_HAL_Driver/Src/stm32l4xx_hal_pwr_ex.c ****     case PWR_GPIO_E:
 659:Drivers/STM32L4xx_HAL_Driver/Src/stm32l4xx_hal_pwr_ex.c ****        CLEAR_BIT(PWR->PDCRE, GPIONumber);
 1066              		.loc 1 659 8 is_stmt 1 view .LVU235
 1067 007a 0A4A     		ldr	r2, .L107+4
 1068 007c 536C     		ldr	r3, [r2, #68]
 1069 007e 23EA0503 		bic	r3, r3, r5
 1070 0082 5364     		str	r3, [r2, #68]
 660:Drivers/STM32L4xx_HAL_Driver/Src/stm32l4xx_hal_pwr_ex.c ****        break;
 1071              		.loc 1 660 8 view .LVU236
 636:Drivers/STM32L4xx_HAL_Driver/Src/stm32l4xx_hal_pwr_ex.c **** 
 1072              		.loc 1 636 21 is_stmt 0 view .LVU237
 1073 0084 0020     		movs	r0, #0
 1074              		.loc 1 660 8 view .LVU238
 1075 0086 09E0     		b	.L95
 1076              	.L96:
 661:Drivers/STM32L4xx_HAL_Driver/Src/stm32l4xx_hal_pwr_ex.c **** #endif
 662:Drivers/STM32L4xx_HAL_Driver/Src/stm32l4xx_hal_pwr_ex.c **** #if defined(GPIOF)
 663:Drivers/STM32L4xx_HAL_Driver/Src/stm32l4xx_hal_pwr_ex.c ****     case PWR_GPIO_F:
 664:Drivers/STM32L4xx_HAL_Driver/Src/stm32l4xx_hal_pwr_ex.c ****        CLEAR_BIT(PWR->PDCRF, GPIONumber);
 665:Drivers/STM32L4xx_HAL_Driver/Src/stm32l4xx_hal_pwr_ex.c ****        break;
 666:Drivers/STM32L4xx_HAL_Driver/Src/stm32l4xx_hal_pwr_ex.c **** #endif
 667:Drivers/STM32L4xx_HAL_Driver/Src/stm32l4xx_hal_pwr_ex.c **** #if defined(GPIOG)
 668:Drivers/STM32L4xx_HAL_Driver/Src/stm32l4xx_hal_pwr_ex.c ****     case PWR_GPIO_G:
 669:Drivers/STM32L4xx_HAL_Driver/Src/stm32l4xx_hal_pwr_ex.c ****        CLEAR_BIT(PWR->PDCRG, GPIONumber);
 670:Drivers/STM32L4xx_HAL_Driver/Src/stm32l4xx_hal_pwr_ex.c ****        break;
 671:Drivers/STM32L4xx_HAL_Driver/Src/stm32l4xx_hal_pwr_ex.c **** #endif
 672:Drivers/STM32L4xx_HAL_Driver/Src/stm32l4xx_hal_pwr_ex.c ****     case PWR_GPIO_H:
 673:Drivers/STM32L4xx_HAL_Driver/Src/stm32l4xx_hal_pwr_ex.c **** #if defined (STM32L496xx) || defined (STM32L4A6xx)
 674:Drivers/STM32L4xx_HAL_Driver/Src/stm32l4xx_hal_pwr_ex.c ****        CLEAR_BIT(PWR->PDCRH, ((GPIONumber & PWR_PORTH_AVAILABLE_PINS) & (~(PWR_GPIO_BIT_3))));
 675:Drivers/STM32L4xx_HAL_Driver/Src/stm32l4xx_hal_pwr_ex.c **** #else
 676:Drivers/STM32L4xx_HAL_Driver/Src/stm32l4xx_hal_pwr_ex.c ****        CLEAR_BIT(PWR->PDCRH, (GPIONumber & PWR_PORTH_AVAILABLE_PINS));
 1077              		.loc 1 676 8 is_stmt 1 view .LVU239
 1078 0088 064A     		ldr	r2, .L107+4
 1079 008a D36D     		ldr	r3, [r2, #92]
 1080 008c 05F00B05 		and	r5, r5, #11
 1081              	.LVL77:
 1082              		.loc 1 676 8 is_stmt 0 view .LVU240
 1083 0090 23EA0503 		bic	r3, r3, r5
 1084 0094 D365     		str	r3, [r2, #92]
 677:Drivers/STM32L4xx_HAL_Driver/Src/stm32l4xx_hal_pwr_ex.c **** #endif
 678:Drivers/STM32L4xx_HAL_Driver/Src/stm32l4xx_hal_pwr_ex.c ****        break;
 1085              		.loc 1 678 8 is_stmt 1 view .LVU241
 636:Drivers/STM32L4xx_HAL_Driver/Src/stm32l4xx_hal_pwr_ex.c **** 
 1086              		.loc 1 636 21 is_stmt 0 view .LVU242
 1087 0096 0020     		movs	r0, #0
 1088              		.loc 1 678 8 view .LVU243
ARM GAS  C:\Users\mathi\AppData\Local\Temp\cc6ocpEq.s 			page 33


 1089 0098 00E0     		b	.L95
 1090              	.LVL78:
 1091              	.L103:
 641:Drivers/STM32L4xx_HAL_Driver/Src/stm32l4xx_hal_pwr_ex.c ****   {
 1092              		.loc 1 641 3 view .LVU244
 1093 009a 0120     		movs	r0, #1
 1094              	.LVL79:
 1095              	.L95:
 679:Drivers/STM32L4xx_HAL_Driver/Src/stm32l4xx_hal_pwr_ex.c **** #if defined(GPIOI)
 680:Drivers/STM32L4xx_HAL_Driver/Src/stm32l4xx_hal_pwr_ex.c ****     case PWR_GPIO_I:
 681:Drivers/STM32L4xx_HAL_Driver/Src/stm32l4xx_hal_pwr_ex.c ****        CLEAR_BIT(PWR->PDCRI, (GPIONumber & PWR_PORTI_AVAILABLE_PINS));
 682:Drivers/STM32L4xx_HAL_Driver/Src/stm32l4xx_hal_pwr_ex.c ****        break;
 683:Drivers/STM32L4xx_HAL_Driver/Src/stm32l4xx_hal_pwr_ex.c **** #endif
 684:Drivers/STM32L4xx_HAL_Driver/Src/stm32l4xx_hal_pwr_ex.c ****     default:
 685:Drivers/STM32L4xx_HAL_Driver/Src/stm32l4xx_hal_pwr_ex.c ****       status = HAL_ERROR;
 686:Drivers/STM32L4xx_HAL_Driver/Src/stm32l4xx_hal_pwr_ex.c ****       break;
 687:Drivers/STM32L4xx_HAL_Driver/Src/stm32l4xx_hal_pwr_ex.c ****   }
 688:Drivers/STM32L4xx_HAL_Driver/Src/stm32l4xx_hal_pwr_ex.c **** 
 689:Drivers/STM32L4xx_HAL_Driver/Src/stm32l4xx_hal_pwr_ex.c ****   return status;
 1096              		.loc 1 689 3 is_stmt 1 view .LVU245
 690:Drivers/STM32L4xx_HAL_Driver/Src/stm32l4xx_hal_pwr_ex.c **** }
 1097              		.loc 1 690 1 is_stmt 0 view .LVU246
 1098 009c 38BD     		pop	{r3, r4, r5, pc}
 1099              	.LVL80:
 1100              	.L108:
 1101              		.loc 1 690 1 view .LVU247
 1102 009e 00BF     		.align	2
 1103              	.L107:
 1104 00a0 00000000 		.word	.LC0
 1105 00a4 00700040 		.word	1073770496
 1106              		.cfi_endproc
 1107              	.LFE303:
 1109              		.section	.text.HAL_PWREx_EnablePullUpPullDownConfig,"ax",%progbits
 1110              		.align	1
 1111              		.global	HAL_PWREx_EnablePullUpPullDownConfig
 1112              		.syntax unified
 1113              		.thumb
 1114              		.thumb_func
 1116              	HAL_PWREx_EnablePullUpPullDownConfig:
 1117              	.LFB304:
 691:Drivers/STM32L4xx_HAL_Driver/Src/stm32l4xx_hal_pwr_ex.c **** 
 692:Drivers/STM32L4xx_HAL_Driver/Src/stm32l4xx_hal_pwr_ex.c **** 
 693:Drivers/STM32L4xx_HAL_Driver/Src/stm32l4xx_hal_pwr_ex.c **** 
 694:Drivers/STM32L4xx_HAL_Driver/Src/stm32l4xx_hal_pwr_ex.c **** /**
 695:Drivers/STM32L4xx_HAL_Driver/Src/stm32l4xx_hal_pwr_ex.c ****   * @brief Enable pull-up and pull-down configuration.
 696:Drivers/STM32L4xx_HAL_Driver/Src/stm32l4xx_hal_pwr_ex.c ****   * @note  When APC bit is set, the I/O pull-up and pull-down configurations defined in
 697:Drivers/STM32L4xx_HAL_Driver/Src/stm32l4xx_hal_pwr_ex.c ****   *        PWR_PUCRx and PWR_PDCRx registers are applied in Standby and Shutdown modes.
 698:Drivers/STM32L4xx_HAL_Driver/Src/stm32l4xx_hal_pwr_ex.c ****   * @note  Pull-up set by PUy bit of PWR_PUCRx register is not activated if the corresponding
 699:Drivers/STM32L4xx_HAL_Driver/Src/stm32l4xx_hal_pwr_ex.c ****   *        PDy bit of PWR_PDCRx register is also set (pull-down configuration priority is higher).
 700:Drivers/STM32L4xx_HAL_Driver/Src/stm32l4xx_hal_pwr_ex.c ****   *        HAL_PWREx_EnableGPIOPullUp() and HAL_PWREx_EnableGPIOPullDown() API's ensure there
 701:Drivers/STM32L4xx_HAL_Driver/Src/stm32l4xx_hal_pwr_ex.c ****   *        is no conflict when setting PUy or PDy bit.
 702:Drivers/STM32L4xx_HAL_Driver/Src/stm32l4xx_hal_pwr_ex.c ****   * @retval None
 703:Drivers/STM32L4xx_HAL_Driver/Src/stm32l4xx_hal_pwr_ex.c ****   */
 704:Drivers/STM32L4xx_HAL_Driver/Src/stm32l4xx_hal_pwr_ex.c **** void HAL_PWREx_EnablePullUpPullDownConfig(void)
 705:Drivers/STM32L4xx_HAL_Driver/Src/stm32l4xx_hal_pwr_ex.c **** {
 1118              		.loc 1 705 1 is_stmt 1 view -0
 1119              		.cfi_startproc
ARM GAS  C:\Users\mathi\AppData\Local\Temp\cc6ocpEq.s 			page 34


 1120              		@ args = 0, pretend = 0, frame = 0
 1121              		@ frame_needed = 0, uses_anonymous_args = 0
 1122              		@ link register save eliminated.
 706:Drivers/STM32L4xx_HAL_Driver/Src/stm32l4xx_hal_pwr_ex.c ****   SET_BIT(PWR->CR3, PWR_CR3_APC);
 1123              		.loc 1 706 3 view .LVU249
 1124 0000 024A     		ldr	r2, .L110
 1125 0002 9368     		ldr	r3, [r2, #8]
 1126 0004 43F48063 		orr	r3, r3, #1024
 1127 0008 9360     		str	r3, [r2, #8]
 707:Drivers/STM32L4xx_HAL_Driver/Src/stm32l4xx_hal_pwr_ex.c **** }
 1128              		.loc 1 707 1 is_stmt 0 view .LVU250
 1129 000a 7047     		bx	lr
 1130              	.L111:
 1131              		.align	2
 1132              	.L110:
 1133 000c 00700040 		.word	1073770496
 1134              		.cfi_endproc
 1135              	.LFE304:
 1137              		.section	.text.HAL_PWREx_DisablePullUpPullDownConfig,"ax",%progbits
 1138              		.align	1
 1139              		.global	HAL_PWREx_DisablePullUpPullDownConfig
 1140              		.syntax unified
 1141              		.thumb
 1142              		.thumb_func
 1144              	HAL_PWREx_DisablePullUpPullDownConfig:
 1145              	.LFB305:
 708:Drivers/STM32L4xx_HAL_Driver/Src/stm32l4xx_hal_pwr_ex.c **** 
 709:Drivers/STM32L4xx_HAL_Driver/Src/stm32l4xx_hal_pwr_ex.c **** 
 710:Drivers/STM32L4xx_HAL_Driver/Src/stm32l4xx_hal_pwr_ex.c **** /**
 711:Drivers/STM32L4xx_HAL_Driver/Src/stm32l4xx_hal_pwr_ex.c ****   * @brief Disable pull-up and pull-down configuration.
 712:Drivers/STM32L4xx_HAL_Driver/Src/stm32l4xx_hal_pwr_ex.c ****   * @note  When APC bit is cleared, the I/O pull-up and pull-down configurations defined in
 713:Drivers/STM32L4xx_HAL_Driver/Src/stm32l4xx_hal_pwr_ex.c ****   *        PWR_PUCRx and PWR_PDCRx registers are not applied in Standby and Shutdown modes.
 714:Drivers/STM32L4xx_HAL_Driver/Src/stm32l4xx_hal_pwr_ex.c ****   * @retval None
 715:Drivers/STM32L4xx_HAL_Driver/Src/stm32l4xx_hal_pwr_ex.c ****   */
 716:Drivers/STM32L4xx_HAL_Driver/Src/stm32l4xx_hal_pwr_ex.c **** void HAL_PWREx_DisablePullUpPullDownConfig(void)
 717:Drivers/STM32L4xx_HAL_Driver/Src/stm32l4xx_hal_pwr_ex.c **** {
 1146              		.loc 1 717 1 is_stmt 1 view -0
 1147              		.cfi_startproc
 1148              		@ args = 0, pretend = 0, frame = 0
 1149              		@ frame_needed = 0, uses_anonymous_args = 0
 1150              		@ link register save eliminated.
 718:Drivers/STM32L4xx_HAL_Driver/Src/stm32l4xx_hal_pwr_ex.c ****   CLEAR_BIT(PWR->CR3, PWR_CR3_APC);
 1151              		.loc 1 718 3 view .LVU252
 1152 0000 024A     		ldr	r2, .L113
 1153 0002 9368     		ldr	r3, [r2, #8]
 1154 0004 23F48063 		bic	r3, r3, #1024
 1155 0008 9360     		str	r3, [r2, #8]
 719:Drivers/STM32L4xx_HAL_Driver/Src/stm32l4xx_hal_pwr_ex.c **** }
 1156              		.loc 1 719 1 is_stmt 0 view .LVU253
 1157 000a 7047     		bx	lr
 1158              	.L114:
 1159              		.align	2
 1160              	.L113:
 1161 000c 00700040 		.word	1073770496
 1162              		.cfi_endproc
 1163              	.LFE305:
 1165              		.section	.text.HAL_PWREx_SetSRAM2ContentRetention,"ax",%progbits
ARM GAS  C:\Users\mathi\AppData\Local\Temp\cc6ocpEq.s 			page 35


 1166              		.align	1
 1167              		.global	HAL_PWREx_SetSRAM2ContentRetention
 1168              		.syntax unified
 1169              		.thumb
 1170              		.thumb_func
 1172              	HAL_PWREx_SetSRAM2ContentRetention:
 1173              	.LVL81:
 1174              	.LFB308:
 720:Drivers/STM32L4xx_HAL_Driver/Src/stm32l4xx_hal_pwr_ex.c **** 
 721:Drivers/STM32L4xx_HAL_Driver/Src/stm32l4xx_hal_pwr_ex.c **** 
 722:Drivers/STM32L4xx_HAL_Driver/Src/stm32l4xx_hal_pwr_ex.c **** 
 723:Drivers/STM32L4xx_HAL_Driver/Src/stm32l4xx_hal_pwr_ex.c **** /**
 724:Drivers/STM32L4xx_HAL_Driver/Src/stm32l4xx_hal_pwr_ex.c ****   * @brief Enable Full SRAM2 content retention in Standby mode.
 725:Drivers/STM32L4xx_HAL_Driver/Src/stm32l4xx_hal_pwr_ex.c ****   * @retval None
 726:Drivers/STM32L4xx_HAL_Driver/Src/stm32l4xx_hal_pwr_ex.c ****   */
 727:Drivers/STM32L4xx_HAL_Driver/Src/stm32l4xx_hal_pwr_ex.c **** void HAL_PWREx_EnableSRAM2ContentRetention(void)
 728:Drivers/STM32L4xx_HAL_Driver/Src/stm32l4xx_hal_pwr_ex.c **** {
 729:Drivers/STM32L4xx_HAL_Driver/Src/stm32l4xx_hal_pwr_ex.c ****   (void) HAL_PWREx_SetSRAM2ContentRetention(PWR_FULL_SRAM2_RETENTION);
 730:Drivers/STM32L4xx_HAL_Driver/Src/stm32l4xx_hal_pwr_ex.c **** }
 731:Drivers/STM32L4xx_HAL_Driver/Src/stm32l4xx_hal_pwr_ex.c **** 
 732:Drivers/STM32L4xx_HAL_Driver/Src/stm32l4xx_hal_pwr_ex.c **** /**
 733:Drivers/STM32L4xx_HAL_Driver/Src/stm32l4xx_hal_pwr_ex.c ****   * @brief Disable SRAM2 content retention in Standby mode.
 734:Drivers/STM32L4xx_HAL_Driver/Src/stm32l4xx_hal_pwr_ex.c ****   * @retval None
 735:Drivers/STM32L4xx_HAL_Driver/Src/stm32l4xx_hal_pwr_ex.c ****   */
 736:Drivers/STM32L4xx_HAL_Driver/Src/stm32l4xx_hal_pwr_ex.c **** void HAL_PWREx_DisableSRAM2ContentRetention(void)
 737:Drivers/STM32L4xx_HAL_Driver/Src/stm32l4xx_hal_pwr_ex.c **** {
 738:Drivers/STM32L4xx_HAL_Driver/Src/stm32l4xx_hal_pwr_ex.c ****   (void) HAL_PWREx_SetSRAM2ContentRetention(PWR_NO_SRAM2_RETENTION);
 739:Drivers/STM32L4xx_HAL_Driver/Src/stm32l4xx_hal_pwr_ex.c **** }
 740:Drivers/STM32L4xx_HAL_Driver/Src/stm32l4xx_hal_pwr_ex.c **** 
 741:Drivers/STM32L4xx_HAL_Driver/Src/stm32l4xx_hal_pwr_ex.c **** /**
 742:Drivers/STM32L4xx_HAL_Driver/Src/stm32l4xx_hal_pwr_ex.c ****   * @brief Enable SRAM2 content retention in Standby mode.
 743:Drivers/STM32L4xx_HAL_Driver/Src/stm32l4xx_hal_pwr_ex.c ****   * @param  SRAM2Size: specifies the SRAM2 size kept in Standby mode
 744:Drivers/STM32L4xx_HAL_Driver/Src/stm32l4xx_hal_pwr_ex.c ****   *          This parameter can be one of the following values:
 745:Drivers/STM32L4xx_HAL_Driver/Src/stm32l4xx_hal_pwr_ex.c ****   *            @arg @ref PWR_NO_SRAM2_RETENTION        SRAM2 is powered off in Standby mode (SRAM2 
 746:Drivers/STM32L4xx_HAL_Driver/Src/stm32l4xx_hal_pwr_ex.c ****   *            @arg @ref PWR_FULL_SRAM2_RETENTION      Full SRAM2 is powered by the low-power regul
 747:Drivers/STM32L4xx_HAL_Driver/Src/stm32l4xx_hal_pwr_ex.c ****   *            @arg @ref PWR_4KBYTES_SRAM2_RETENTION   Only 4 Kbytes of SRAM2 is powered by the low
 748:Drivers/STM32L4xx_HAL_Driver/Src/stm32l4xx_hal_pwr_ex.c ****   * @note  PWR_4KBYTES_SRAM2_RETENTION parameter is not available on all devices
 749:Drivers/STM32L4xx_HAL_Driver/Src/stm32l4xx_hal_pwr_ex.c ****   * @retval HAL Status
 750:Drivers/STM32L4xx_HAL_Driver/Src/stm32l4xx_hal_pwr_ex.c ****   */
 751:Drivers/STM32L4xx_HAL_Driver/Src/stm32l4xx_hal_pwr_ex.c **** HAL_StatusTypeDef HAL_PWREx_SetSRAM2ContentRetention(uint32_t SRAM2Size)
 752:Drivers/STM32L4xx_HAL_Driver/Src/stm32l4xx_hal_pwr_ex.c **** {
 1175              		.loc 1 752 1 is_stmt 1 view -0
 1176              		.cfi_startproc
 1177              		@ args = 0, pretend = 0, frame = 0
 1178              		@ frame_needed = 0, uses_anonymous_args = 0
 753:Drivers/STM32L4xx_HAL_Driver/Src/stm32l4xx_hal_pwr_ex.c ****   assert_param(IS_PWR_SRAM2_RETENTION(SRAM2Size));
 1179              		.loc 1 753 3 view .LVU255
 1180 0000 28B9     		cbnz	r0, .L116
 754:Drivers/STM32L4xx_HAL_Driver/Src/stm32l4xx_hal_pwr_ex.c **** 
 755:Drivers/STM32L4xx_HAL_Driver/Src/stm32l4xx_hal_pwr_ex.c ****   if (SRAM2Size == PWR_NO_SRAM2_RETENTION)
 1181              		.loc 1 755 3 view .LVU256
 756:Drivers/STM32L4xx_HAL_Driver/Src/stm32l4xx_hal_pwr_ex.c ****   {
 757:Drivers/STM32L4xx_HAL_Driver/Src/stm32l4xx_hal_pwr_ex.c ****     CLEAR_BIT(PWR->CR3, PWR_CR3_RRS);
 1182              		.loc 1 757 5 view .LVU257
 1183 0002 0E4A     		ldr	r2, .L124
 1184 0004 9368     		ldr	r3, [r2, #8]
 1185 0006 23F48073 		bic	r3, r3, #256
ARM GAS  C:\Users\mathi\AppData\Local\Temp\cc6ocpEq.s 			page 36


 1186 000a 9360     		str	r3, [r2, #8]
 758:Drivers/STM32L4xx_HAL_Driver/Src/stm32l4xx_hal_pwr_ex.c ****   }
 759:Drivers/STM32L4xx_HAL_Driver/Src/stm32l4xx_hal_pwr_ex.c ****   else if (SRAM2Size == PWR_FULL_SRAM2_RETENTION)
 760:Drivers/STM32L4xx_HAL_Driver/Src/stm32l4xx_hal_pwr_ex.c ****   {
 761:Drivers/STM32L4xx_HAL_Driver/Src/stm32l4xx_hal_pwr_ex.c ****     MODIFY_REG(PWR->CR3, PWR_CR3_RRS, PWR_FULL_SRAM2_RETENTION);
 762:Drivers/STM32L4xx_HAL_Driver/Src/stm32l4xx_hal_pwr_ex.c ****   }
 763:Drivers/STM32L4xx_HAL_Driver/Src/stm32l4xx_hal_pwr_ex.c **** #if defined(PWR_CR3_RRS_1)
 764:Drivers/STM32L4xx_HAL_Driver/Src/stm32l4xx_hal_pwr_ex.c ****   else if (SRAM2Size == PWR_4KBYTES_SRAM2_RETENTION)
 765:Drivers/STM32L4xx_HAL_Driver/Src/stm32l4xx_hal_pwr_ex.c ****   {
 766:Drivers/STM32L4xx_HAL_Driver/Src/stm32l4xx_hal_pwr_ex.c ****     MODIFY_REG(PWR->CR3, PWR_CR3_RRS, PWR_4KBYTES_SRAM2_RETENTION);
 767:Drivers/STM32L4xx_HAL_Driver/Src/stm32l4xx_hal_pwr_ex.c ****   }
 768:Drivers/STM32L4xx_HAL_Driver/Src/stm32l4xx_hal_pwr_ex.c **** #endif /* PWR_CR3_RRS_1 */
 769:Drivers/STM32L4xx_HAL_Driver/Src/stm32l4xx_hal_pwr_ex.c ****   else {
 770:Drivers/STM32L4xx_HAL_Driver/Src/stm32l4xx_hal_pwr_ex.c ****     return HAL_ERROR;
 771:Drivers/STM32L4xx_HAL_Driver/Src/stm32l4xx_hal_pwr_ex.c ****   }
 772:Drivers/STM32L4xx_HAL_Driver/Src/stm32l4xx_hal_pwr_ex.c **** 
 773:Drivers/STM32L4xx_HAL_Driver/Src/stm32l4xx_hal_pwr_ex.c ****   return HAL_OK;
 774:Drivers/STM32L4xx_HAL_Driver/Src/stm32l4xx_hal_pwr_ex.c **** }
 1187              		.loc 1 774 1 is_stmt 0 view .LVU258
 1188 000c 7047     		bx	lr
 1189              	.L116:
 752:Drivers/STM32L4xx_HAL_Driver/Src/stm32l4xx_hal_pwr_ex.c ****   assert_param(IS_PWR_SRAM2_RETENTION(SRAM2Size));
 1190              		.loc 1 752 1 view .LVU259
 1191 000e 10B5     		push	{r4, lr}
 1192              		.cfi_def_cfa_offset 8
 1193              		.cfi_offset 4, -8
 1194              		.cfi_offset 14, -4
 1195 0010 0446     		mov	r4, r0
 753:Drivers/STM32L4xx_HAL_Driver/Src/stm32l4xx_hal_pwr_ex.c **** 
 1196              		.loc 1 753 3 discriminator 1 view .LVU260
 1197 0012 B0F5807F 		cmp	r0, #256
 1198 0016 09D1     		bne	.L123
 1199              	.LVL82:
 1200              	.L118:
 759:Drivers/STM32L4xx_HAL_Driver/Src/stm32l4xx_hal_pwr_ex.c ****   {
 1201              		.loc 1 759 8 is_stmt 1 view .LVU261
 759:Drivers/STM32L4xx_HAL_Driver/Src/stm32l4xx_hal_pwr_ex.c ****   {
 1202              		.loc 1 759 11 is_stmt 0 view .LVU262
 1203 0018 B4F5807F 		cmp	r4, #256
 1204 001c 0CD1     		bne	.L119
 761:Drivers/STM32L4xx_HAL_Driver/Src/stm32l4xx_hal_pwr_ex.c ****   }
 1205              		.loc 1 761 5 is_stmt 1 view .LVU263
 1206 001e 074A     		ldr	r2, .L124
 1207 0020 9368     		ldr	r3, [r2, #8]
 1208 0022 43F48073 		orr	r3, r3, #256
 1209 0026 9360     		str	r3, [r2, #8]
 773:Drivers/STM32L4xx_HAL_Driver/Src/stm32l4xx_hal_pwr_ex.c **** }
 1210              		.loc 1 773 10 is_stmt 0 view .LVU264
 1211 0028 0020     		movs	r0, #0
 1212              	.L117:
 1213              		.loc 1 774 1 view .LVU265
 1214 002a 10BD     		pop	{r4, pc}
 1215              	.LVL83:
 1216              	.L123:
 753:Drivers/STM32L4xx_HAL_Driver/Src/stm32l4xx_hal_pwr_ex.c **** 
 1217              		.loc 1 753 3 discriminator 2 view .LVU266
 1218 002c 40F2F121 		movw	r1, #753
ARM GAS  C:\Users\mathi\AppData\Local\Temp\cc6ocpEq.s 			page 37


 1219 0030 0348     		ldr	r0, .L124+4
 1220              	.LVL84:
 753:Drivers/STM32L4xx_HAL_Driver/Src/stm32l4xx_hal_pwr_ex.c **** 
 1221              		.loc 1 753 3 discriminator 2 view .LVU267
 1222 0032 FFF7FEFF 		bl	assert_failed
 1223              	.LVL85:
 755:Drivers/STM32L4xx_HAL_Driver/Src/stm32l4xx_hal_pwr_ex.c ****   {
 1224              		.loc 1 755 3 is_stmt 1 view .LVU268
 1225 0036 EFE7     		b	.L118
 1226              	.L119:
 770:Drivers/STM32L4xx_HAL_Driver/Src/stm32l4xx_hal_pwr_ex.c ****   }
 1227              		.loc 1 770 12 is_stmt 0 view .LVU269
 1228 0038 0120     		movs	r0, #1
 1229 003a F6E7     		b	.L117
 1230              	.L125:
 1231              		.align	2
 1232              	.L124:
 1233 003c 00700040 		.word	1073770496
 1234 0040 00000000 		.word	.LC0
 1235              		.cfi_endproc
 1236              	.LFE308:
 1238              		.section	.text.HAL_PWREx_EnableSRAM2ContentRetention,"ax",%progbits
 1239              		.align	1
 1240              		.global	HAL_PWREx_EnableSRAM2ContentRetention
 1241              		.syntax unified
 1242              		.thumb
 1243              		.thumb_func
 1245              	HAL_PWREx_EnableSRAM2ContentRetention:
 1246              	.LFB306:
 728:Drivers/STM32L4xx_HAL_Driver/Src/stm32l4xx_hal_pwr_ex.c ****   (void) HAL_PWREx_SetSRAM2ContentRetention(PWR_FULL_SRAM2_RETENTION);
 1247              		.loc 1 728 1 is_stmt 1 view -0
 1248              		.cfi_startproc
 1249              		@ args = 0, pretend = 0, frame = 0
 1250              		@ frame_needed = 0, uses_anonymous_args = 0
 1251 0000 08B5     		push	{r3, lr}
 1252              		.cfi_def_cfa_offset 8
 1253              		.cfi_offset 3, -8
 1254              		.cfi_offset 14, -4
 729:Drivers/STM32L4xx_HAL_Driver/Src/stm32l4xx_hal_pwr_ex.c **** }
 1255              		.loc 1 729 3 view .LVU271
 729:Drivers/STM32L4xx_HAL_Driver/Src/stm32l4xx_hal_pwr_ex.c **** }
 1256              		.loc 1 729 10 is_stmt 0 view .LVU272
 1257 0002 4FF48070 		mov	r0, #256
 1258 0006 FFF7FEFF 		bl	HAL_PWREx_SetSRAM2ContentRetention
 1259              	.LVL86:
 730:Drivers/STM32L4xx_HAL_Driver/Src/stm32l4xx_hal_pwr_ex.c **** 
 1260              		.loc 1 730 1 view .LVU273
 1261 000a 08BD     		pop	{r3, pc}
 1262              		.cfi_endproc
 1263              	.LFE306:
 1265              		.section	.text.HAL_PWREx_DisableSRAM2ContentRetention,"ax",%progbits
 1266              		.align	1
 1267              		.global	HAL_PWREx_DisableSRAM2ContentRetention
 1268              		.syntax unified
 1269              		.thumb
 1270              		.thumb_func
 1272              	HAL_PWREx_DisableSRAM2ContentRetention:
ARM GAS  C:\Users\mathi\AppData\Local\Temp\cc6ocpEq.s 			page 38


 1273              	.LFB307:
 737:Drivers/STM32L4xx_HAL_Driver/Src/stm32l4xx_hal_pwr_ex.c ****   (void) HAL_PWREx_SetSRAM2ContentRetention(PWR_NO_SRAM2_RETENTION);
 1274              		.loc 1 737 1 is_stmt 1 view -0
 1275              		.cfi_startproc
 1276              		@ args = 0, pretend = 0, frame = 0
 1277              		@ frame_needed = 0, uses_anonymous_args = 0
 1278 0000 08B5     		push	{r3, lr}
 1279              		.cfi_def_cfa_offset 8
 1280              		.cfi_offset 3, -8
 1281              		.cfi_offset 14, -4
 738:Drivers/STM32L4xx_HAL_Driver/Src/stm32l4xx_hal_pwr_ex.c **** }
 1282              		.loc 1 738 3 view .LVU275
 738:Drivers/STM32L4xx_HAL_Driver/Src/stm32l4xx_hal_pwr_ex.c **** }
 1283              		.loc 1 738 10 is_stmt 0 view .LVU276
 1284 0002 0020     		movs	r0, #0
 1285 0004 FFF7FEFF 		bl	HAL_PWREx_SetSRAM2ContentRetention
 1286              	.LVL87:
 739:Drivers/STM32L4xx_HAL_Driver/Src/stm32l4xx_hal_pwr_ex.c **** 
 1287              		.loc 1 739 1 view .LVU277
 1288 0008 08BD     		pop	{r3, pc}
 1289              		.cfi_endproc
 1290              	.LFE307:
 1292              		.section	.text.HAL_PWREx_EnablePVM1,"ax",%progbits
 1293              		.align	1
 1294              		.global	HAL_PWREx_EnablePVM1
 1295              		.syntax unified
 1296              		.thumb
 1297              		.thumb_func
 1299              	HAL_PWREx_EnablePVM1:
 1300              	.LFB309:
 775:Drivers/STM32L4xx_HAL_Driver/Src/stm32l4xx_hal_pwr_ex.c **** 
 776:Drivers/STM32L4xx_HAL_Driver/Src/stm32l4xx_hal_pwr_ex.c **** 
 777:Drivers/STM32L4xx_HAL_Driver/Src/stm32l4xx_hal_pwr_ex.c **** #if defined(PWR_CR3_ENULP)
 778:Drivers/STM32L4xx_HAL_Driver/Src/stm32l4xx_hal_pwr_ex.c **** /**
 779:Drivers/STM32L4xx_HAL_Driver/Src/stm32l4xx_hal_pwr_ex.c ****   * @brief Enable Ultra Low Power BORL, BORH and PVD for STOP2 and Standby modes.
 780:Drivers/STM32L4xx_HAL_Driver/Src/stm32l4xx_hal_pwr_ex.c ****   * @note  All the other modes are not affected by this bit.
 781:Drivers/STM32L4xx_HAL_Driver/Src/stm32l4xx_hal_pwr_ex.c ****   * @retval None
 782:Drivers/STM32L4xx_HAL_Driver/Src/stm32l4xx_hal_pwr_ex.c ****   */
 783:Drivers/STM32L4xx_HAL_Driver/Src/stm32l4xx_hal_pwr_ex.c **** void HAL_PWREx_EnableBORPVD_ULP(void)
 784:Drivers/STM32L4xx_HAL_Driver/Src/stm32l4xx_hal_pwr_ex.c **** {
 785:Drivers/STM32L4xx_HAL_Driver/Src/stm32l4xx_hal_pwr_ex.c ****   SET_BIT(PWR->CR3, PWR_CR3_ENULP);
 786:Drivers/STM32L4xx_HAL_Driver/Src/stm32l4xx_hal_pwr_ex.c **** }
 787:Drivers/STM32L4xx_HAL_Driver/Src/stm32l4xx_hal_pwr_ex.c **** 
 788:Drivers/STM32L4xx_HAL_Driver/Src/stm32l4xx_hal_pwr_ex.c **** 
 789:Drivers/STM32L4xx_HAL_Driver/Src/stm32l4xx_hal_pwr_ex.c **** /**
 790:Drivers/STM32L4xx_HAL_Driver/Src/stm32l4xx_hal_pwr_ex.c ****   * @brief Disable Ultra Low Power BORL, BORH and PVD for STOP2 and Standby modes.
 791:Drivers/STM32L4xx_HAL_Driver/Src/stm32l4xx_hal_pwr_ex.c ****   * @note  All the other modes are not affected by this bit
 792:Drivers/STM32L4xx_HAL_Driver/Src/stm32l4xx_hal_pwr_ex.c ****   * @retval None
 793:Drivers/STM32L4xx_HAL_Driver/Src/stm32l4xx_hal_pwr_ex.c ****   */
 794:Drivers/STM32L4xx_HAL_Driver/Src/stm32l4xx_hal_pwr_ex.c **** void HAL_PWREx_DisableBORPVD_ULP(void)
 795:Drivers/STM32L4xx_HAL_Driver/Src/stm32l4xx_hal_pwr_ex.c **** {
 796:Drivers/STM32L4xx_HAL_Driver/Src/stm32l4xx_hal_pwr_ex.c ****   CLEAR_BIT(PWR->CR3, PWR_CR3_ENULP);
 797:Drivers/STM32L4xx_HAL_Driver/Src/stm32l4xx_hal_pwr_ex.c **** }
 798:Drivers/STM32L4xx_HAL_Driver/Src/stm32l4xx_hal_pwr_ex.c **** #endif /* PWR_CR3_ENULP */
 799:Drivers/STM32L4xx_HAL_Driver/Src/stm32l4xx_hal_pwr_ex.c **** 
 800:Drivers/STM32L4xx_HAL_Driver/Src/stm32l4xx_hal_pwr_ex.c **** 
 801:Drivers/STM32L4xx_HAL_Driver/Src/stm32l4xx_hal_pwr_ex.c **** #if defined(PWR_CR4_EXT_SMPS_ON)
ARM GAS  C:\Users\mathi\AppData\Local\Temp\cc6ocpEq.s 			page 39


 802:Drivers/STM32L4xx_HAL_Driver/Src/stm32l4xx_hal_pwr_ex.c **** /**
 803:Drivers/STM32L4xx_HAL_Driver/Src/stm32l4xx_hal_pwr_ex.c ****   * @brief Enable the CFLDO working @ 0.95V.
 804:Drivers/STM32L4xx_HAL_Driver/Src/stm32l4xx_hal_pwr_ex.c ****   * @note  When external SMPS is used & CFLDO operating in Range 2, the regulated voltage of the
 805:Drivers/STM32L4xx_HAL_Driver/Src/stm32l4xx_hal_pwr_ex.c ****   *        internal CFLDO can be reduced to 0.95V.
 806:Drivers/STM32L4xx_HAL_Driver/Src/stm32l4xx_hal_pwr_ex.c ****   * @retval None
 807:Drivers/STM32L4xx_HAL_Driver/Src/stm32l4xx_hal_pwr_ex.c ****   */
 808:Drivers/STM32L4xx_HAL_Driver/Src/stm32l4xx_hal_pwr_ex.c **** void HAL_PWREx_EnableExtSMPS_0V95(void)
 809:Drivers/STM32L4xx_HAL_Driver/Src/stm32l4xx_hal_pwr_ex.c **** {
 810:Drivers/STM32L4xx_HAL_Driver/Src/stm32l4xx_hal_pwr_ex.c ****   SET_BIT(PWR->CR4, PWR_CR4_EXT_SMPS_ON);
 811:Drivers/STM32L4xx_HAL_Driver/Src/stm32l4xx_hal_pwr_ex.c **** }
 812:Drivers/STM32L4xx_HAL_Driver/Src/stm32l4xx_hal_pwr_ex.c **** 
 813:Drivers/STM32L4xx_HAL_Driver/Src/stm32l4xx_hal_pwr_ex.c **** /**
 814:Drivers/STM32L4xx_HAL_Driver/Src/stm32l4xx_hal_pwr_ex.c ****   * @brief Disable the CFLDO working @ 0.95V
 815:Drivers/STM32L4xx_HAL_Driver/Src/stm32l4xx_hal_pwr_ex.c ****   * @note  Before SMPS is switched off, the regulated voltage of the
 816:Drivers/STM32L4xx_HAL_Driver/Src/stm32l4xx_hal_pwr_ex.c ****   *        internal CFLDO shall be set to 1.00V.
 817:Drivers/STM32L4xx_HAL_Driver/Src/stm32l4xx_hal_pwr_ex.c ****   *        1.00V. is also default operating Range 2 voltage.
 818:Drivers/STM32L4xx_HAL_Driver/Src/stm32l4xx_hal_pwr_ex.c ****   * @retval None
 819:Drivers/STM32L4xx_HAL_Driver/Src/stm32l4xx_hal_pwr_ex.c ****   */
 820:Drivers/STM32L4xx_HAL_Driver/Src/stm32l4xx_hal_pwr_ex.c **** void HAL_PWREx_DisableExtSMPS_0V95(void)
 821:Drivers/STM32L4xx_HAL_Driver/Src/stm32l4xx_hal_pwr_ex.c **** {
 822:Drivers/STM32L4xx_HAL_Driver/Src/stm32l4xx_hal_pwr_ex.c ****   CLEAR_BIT(PWR->CR4, PWR_CR4_EXT_SMPS_ON);
 823:Drivers/STM32L4xx_HAL_Driver/Src/stm32l4xx_hal_pwr_ex.c **** }
 824:Drivers/STM32L4xx_HAL_Driver/Src/stm32l4xx_hal_pwr_ex.c **** #endif /* PWR_CR4_EXT_SMPS_ON */
 825:Drivers/STM32L4xx_HAL_Driver/Src/stm32l4xx_hal_pwr_ex.c **** 
 826:Drivers/STM32L4xx_HAL_Driver/Src/stm32l4xx_hal_pwr_ex.c **** 
 827:Drivers/STM32L4xx_HAL_Driver/Src/stm32l4xx_hal_pwr_ex.c **** #if defined(PWR_CR1_RRSTP)
 828:Drivers/STM32L4xx_HAL_Driver/Src/stm32l4xx_hal_pwr_ex.c **** /**
 829:Drivers/STM32L4xx_HAL_Driver/Src/stm32l4xx_hal_pwr_ex.c ****   * @brief Enable SRAM3 content retention in Stop 2 mode.
 830:Drivers/STM32L4xx_HAL_Driver/Src/stm32l4xx_hal_pwr_ex.c ****   * @note  When RRSTP bit is set, SRAM3 is powered by the low-power regulator in
 831:Drivers/STM32L4xx_HAL_Driver/Src/stm32l4xx_hal_pwr_ex.c ****   *        Stop 2 mode and its content is kept.
 832:Drivers/STM32L4xx_HAL_Driver/Src/stm32l4xx_hal_pwr_ex.c ****   * @retval None
 833:Drivers/STM32L4xx_HAL_Driver/Src/stm32l4xx_hal_pwr_ex.c ****   */
 834:Drivers/STM32L4xx_HAL_Driver/Src/stm32l4xx_hal_pwr_ex.c **** void HAL_PWREx_EnableSRAM3ContentRetention(void)
 835:Drivers/STM32L4xx_HAL_Driver/Src/stm32l4xx_hal_pwr_ex.c **** {
 836:Drivers/STM32L4xx_HAL_Driver/Src/stm32l4xx_hal_pwr_ex.c ****   SET_BIT(PWR->CR1, PWR_CR1_RRSTP);
 837:Drivers/STM32L4xx_HAL_Driver/Src/stm32l4xx_hal_pwr_ex.c **** }
 838:Drivers/STM32L4xx_HAL_Driver/Src/stm32l4xx_hal_pwr_ex.c **** 
 839:Drivers/STM32L4xx_HAL_Driver/Src/stm32l4xx_hal_pwr_ex.c **** 
 840:Drivers/STM32L4xx_HAL_Driver/Src/stm32l4xx_hal_pwr_ex.c **** /**
 841:Drivers/STM32L4xx_HAL_Driver/Src/stm32l4xx_hal_pwr_ex.c ****   * @brief Disable SRAM3 content retention in Stop 2 mode.
 842:Drivers/STM32L4xx_HAL_Driver/Src/stm32l4xx_hal_pwr_ex.c ****   * @note  When RRSTP bit is reset, SRAM3 is powered off in Stop 2 mode
 843:Drivers/STM32L4xx_HAL_Driver/Src/stm32l4xx_hal_pwr_ex.c ****   *        and its content is lost.
 844:Drivers/STM32L4xx_HAL_Driver/Src/stm32l4xx_hal_pwr_ex.c ****   * @retval None
 845:Drivers/STM32L4xx_HAL_Driver/Src/stm32l4xx_hal_pwr_ex.c ****   */
 846:Drivers/STM32L4xx_HAL_Driver/Src/stm32l4xx_hal_pwr_ex.c **** void HAL_PWREx_DisableSRAM3ContentRetention(void)
 847:Drivers/STM32L4xx_HAL_Driver/Src/stm32l4xx_hal_pwr_ex.c **** {
 848:Drivers/STM32L4xx_HAL_Driver/Src/stm32l4xx_hal_pwr_ex.c ****   CLEAR_BIT(PWR->CR1, PWR_CR1_RRSTP);
 849:Drivers/STM32L4xx_HAL_Driver/Src/stm32l4xx_hal_pwr_ex.c **** }
 850:Drivers/STM32L4xx_HAL_Driver/Src/stm32l4xx_hal_pwr_ex.c **** #endif /* PWR_CR1_RRSTP */
 851:Drivers/STM32L4xx_HAL_Driver/Src/stm32l4xx_hal_pwr_ex.c **** 
 852:Drivers/STM32L4xx_HAL_Driver/Src/stm32l4xx_hal_pwr_ex.c **** #if defined(PWR_CR3_DSIPDEN)
 853:Drivers/STM32L4xx_HAL_Driver/Src/stm32l4xx_hal_pwr_ex.c **** /**
 854:Drivers/STM32L4xx_HAL_Driver/Src/stm32l4xx_hal_pwr_ex.c ****   * @brief Enable pull-down activation on DSI pins.
 855:Drivers/STM32L4xx_HAL_Driver/Src/stm32l4xx_hal_pwr_ex.c ****   * @retval None
 856:Drivers/STM32L4xx_HAL_Driver/Src/stm32l4xx_hal_pwr_ex.c ****   */
 857:Drivers/STM32L4xx_HAL_Driver/Src/stm32l4xx_hal_pwr_ex.c **** void HAL_PWREx_EnableDSIPinsPDActivation(void)
 858:Drivers/STM32L4xx_HAL_Driver/Src/stm32l4xx_hal_pwr_ex.c **** {
ARM GAS  C:\Users\mathi\AppData\Local\Temp\cc6ocpEq.s 			page 40


 859:Drivers/STM32L4xx_HAL_Driver/Src/stm32l4xx_hal_pwr_ex.c ****   SET_BIT(PWR->CR3, PWR_CR3_DSIPDEN);
 860:Drivers/STM32L4xx_HAL_Driver/Src/stm32l4xx_hal_pwr_ex.c **** }
 861:Drivers/STM32L4xx_HAL_Driver/Src/stm32l4xx_hal_pwr_ex.c **** 
 862:Drivers/STM32L4xx_HAL_Driver/Src/stm32l4xx_hal_pwr_ex.c **** 
 863:Drivers/STM32L4xx_HAL_Driver/Src/stm32l4xx_hal_pwr_ex.c **** /**
 864:Drivers/STM32L4xx_HAL_Driver/Src/stm32l4xx_hal_pwr_ex.c ****   * @brief Disable pull-down activation on DSI pins.
 865:Drivers/STM32L4xx_HAL_Driver/Src/stm32l4xx_hal_pwr_ex.c ****   * @retval None
 866:Drivers/STM32L4xx_HAL_Driver/Src/stm32l4xx_hal_pwr_ex.c ****   */
 867:Drivers/STM32L4xx_HAL_Driver/Src/stm32l4xx_hal_pwr_ex.c **** void HAL_PWREx_DisableDSIPinsPDActivation(void)
 868:Drivers/STM32L4xx_HAL_Driver/Src/stm32l4xx_hal_pwr_ex.c **** {
 869:Drivers/STM32L4xx_HAL_Driver/Src/stm32l4xx_hal_pwr_ex.c ****   CLEAR_BIT(PWR->CR3, PWR_CR3_DSIPDEN);
 870:Drivers/STM32L4xx_HAL_Driver/Src/stm32l4xx_hal_pwr_ex.c **** }
 871:Drivers/STM32L4xx_HAL_Driver/Src/stm32l4xx_hal_pwr_ex.c **** #endif /* PWR_CR3_DSIPDEN */
 872:Drivers/STM32L4xx_HAL_Driver/Src/stm32l4xx_hal_pwr_ex.c **** 
 873:Drivers/STM32L4xx_HAL_Driver/Src/stm32l4xx_hal_pwr_ex.c **** #if defined(PWR_CR2_PVME1)
 874:Drivers/STM32L4xx_HAL_Driver/Src/stm32l4xx_hal_pwr_ex.c **** /**
 875:Drivers/STM32L4xx_HAL_Driver/Src/stm32l4xx_hal_pwr_ex.c ****   * @brief Enable the Power Voltage Monitoring 1: VDDUSB versus 1.2V.
 876:Drivers/STM32L4xx_HAL_Driver/Src/stm32l4xx_hal_pwr_ex.c ****   * @retval None
 877:Drivers/STM32L4xx_HAL_Driver/Src/stm32l4xx_hal_pwr_ex.c ****   */
 878:Drivers/STM32L4xx_HAL_Driver/Src/stm32l4xx_hal_pwr_ex.c **** void HAL_PWREx_EnablePVM1(void)
 879:Drivers/STM32L4xx_HAL_Driver/Src/stm32l4xx_hal_pwr_ex.c **** {
 1301              		.loc 1 879 1 is_stmt 1 view -0
 1302              		.cfi_startproc
 1303              		@ args = 0, pretend = 0, frame = 0
 1304              		@ frame_needed = 0, uses_anonymous_args = 0
 1305              		@ link register save eliminated.
 880:Drivers/STM32L4xx_HAL_Driver/Src/stm32l4xx_hal_pwr_ex.c ****   SET_BIT(PWR->CR2, PWR_PVM_1);
 1306              		.loc 1 880 3 view .LVU279
 1307 0000 024A     		ldr	r2, .L131
 1308 0002 5368     		ldr	r3, [r2, #4]
 1309 0004 43F01003 		orr	r3, r3, #16
 1310 0008 5360     		str	r3, [r2, #4]
 881:Drivers/STM32L4xx_HAL_Driver/Src/stm32l4xx_hal_pwr_ex.c **** }
 1311              		.loc 1 881 1 is_stmt 0 view .LVU280
 1312 000a 7047     		bx	lr
 1313              	.L132:
 1314              		.align	2
 1315              	.L131:
 1316 000c 00700040 		.word	1073770496
 1317              		.cfi_endproc
 1318              	.LFE309:
 1320              		.section	.text.HAL_PWREx_DisablePVM1,"ax",%progbits
 1321              		.align	1
 1322              		.global	HAL_PWREx_DisablePVM1
 1323              		.syntax unified
 1324              		.thumb
 1325              		.thumb_func
 1327              	HAL_PWREx_DisablePVM1:
 1328              	.LFB310:
 882:Drivers/STM32L4xx_HAL_Driver/Src/stm32l4xx_hal_pwr_ex.c **** 
 883:Drivers/STM32L4xx_HAL_Driver/Src/stm32l4xx_hal_pwr_ex.c **** /**
 884:Drivers/STM32L4xx_HAL_Driver/Src/stm32l4xx_hal_pwr_ex.c ****   * @brief Disable the Power Voltage Monitoring 1: VDDUSB versus 1.2V.
 885:Drivers/STM32L4xx_HAL_Driver/Src/stm32l4xx_hal_pwr_ex.c ****   * @retval None
 886:Drivers/STM32L4xx_HAL_Driver/Src/stm32l4xx_hal_pwr_ex.c ****   */
 887:Drivers/STM32L4xx_HAL_Driver/Src/stm32l4xx_hal_pwr_ex.c **** void HAL_PWREx_DisablePVM1(void)
 888:Drivers/STM32L4xx_HAL_Driver/Src/stm32l4xx_hal_pwr_ex.c **** {
 1329              		.loc 1 888 1 is_stmt 1 view -0
ARM GAS  C:\Users\mathi\AppData\Local\Temp\cc6ocpEq.s 			page 41


 1330              		.cfi_startproc
 1331              		@ args = 0, pretend = 0, frame = 0
 1332              		@ frame_needed = 0, uses_anonymous_args = 0
 1333              		@ link register save eliminated.
 889:Drivers/STM32L4xx_HAL_Driver/Src/stm32l4xx_hal_pwr_ex.c ****   CLEAR_BIT(PWR->CR2, PWR_PVM_1);
 1334              		.loc 1 889 3 view .LVU282
 1335 0000 024A     		ldr	r2, .L134
 1336 0002 5368     		ldr	r3, [r2, #4]
 1337 0004 23F01003 		bic	r3, r3, #16
 1338 0008 5360     		str	r3, [r2, #4]
 890:Drivers/STM32L4xx_HAL_Driver/Src/stm32l4xx_hal_pwr_ex.c **** }
 1339              		.loc 1 890 1 is_stmt 0 view .LVU283
 1340 000a 7047     		bx	lr
 1341              	.L135:
 1342              		.align	2
 1343              	.L134:
 1344 000c 00700040 		.word	1073770496
 1345              		.cfi_endproc
 1346              	.LFE310:
 1348              		.section	.text.HAL_PWREx_EnablePVM3,"ax",%progbits
 1349              		.align	1
 1350              		.global	HAL_PWREx_EnablePVM3
 1351              		.syntax unified
 1352              		.thumb
 1353              		.thumb_func
 1355              	HAL_PWREx_EnablePVM3:
 1356              	.LFB311:
 891:Drivers/STM32L4xx_HAL_Driver/Src/stm32l4xx_hal_pwr_ex.c **** #endif /* PWR_CR2_PVME1 */
 892:Drivers/STM32L4xx_HAL_Driver/Src/stm32l4xx_hal_pwr_ex.c **** 
 893:Drivers/STM32L4xx_HAL_Driver/Src/stm32l4xx_hal_pwr_ex.c **** 
 894:Drivers/STM32L4xx_HAL_Driver/Src/stm32l4xx_hal_pwr_ex.c **** #if defined(PWR_CR2_PVME2)
 895:Drivers/STM32L4xx_HAL_Driver/Src/stm32l4xx_hal_pwr_ex.c **** /**
 896:Drivers/STM32L4xx_HAL_Driver/Src/stm32l4xx_hal_pwr_ex.c ****   * @brief Enable the Power Voltage Monitoring 2: VDDIO2 versus 0.9V.
 897:Drivers/STM32L4xx_HAL_Driver/Src/stm32l4xx_hal_pwr_ex.c ****   * @retval None
 898:Drivers/STM32L4xx_HAL_Driver/Src/stm32l4xx_hal_pwr_ex.c ****   */
 899:Drivers/STM32L4xx_HAL_Driver/Src/stm32l4xx_hal_pwr_ex.c **** void HAL_PWREx_EnablePVM2(void)
 900:Drivers/STM32L4xx_HAL_Driver/Src/stm32l4xx_hal_pwr_ex.c **** {
 901:Drivers/STM32L4xx_HAL_Driver/Src/stm32l4xx_hal_pwr_ex.c ****   SET_BIT(PWR->CR2, PWR_PVM_2);
 902:Drivers/STM32L4xx_HAL_Driver/Src/stm32l4xx_hal_pwr_ex.c **** }
 903:Drivers/STM32L4xx_HAL_Driver/Src/stm32l4xx_hal_pwr_ex.c **** 
 904:Drivers/STM32L4xx_HAL_Driver/Src/stm32l4xx_hal_pwr_ex.c **** /**
 905:Drivers/STM32L4xx_HAL_Driver/Src/stm32l4xx_hal_pwr_ex.c ****   * @brief Disable the Power Voltage Monitoring 2: VDDIO2 versus 0.9V.
 906:Drivers/STM32L4xx_HAL_Driver/Src/stm32l4xx_hal_pwr_ex.c ****   * @retval None
 907:Drivers/STM32L4xx_HAL_Driver/Src/stm32l4xx_hal_pwr_ex.c ****   */
 908:Drivers/STM32L4xx_HAL_Driver/Src/stm32l4xx_hal_pwr_ex.c **** void HAL_PWREx_DisablePVM2(void)
 909:Drivers/STM32L4xx_HAL_Driver/Src/stm32l4xx_hal_pwr_ex.c **** {
 910:Drivers/STM32L4xx_HAL_Driver/Src/stm32l4xx_hal_pwr_ex.c ****   CLEAR_BIT(PWR->CR2, PWR_PVM_2);
 911:Drivers/STM32L4xx_HAL_Driver/Src/stm32l4xx_hal_pwr_ex.c **** }
 912:Drivers/STM32L4xx_HAL_Driver/Src/stm32l4xx_hal_pwr_ex.c **** #endif /* PWR_CR2_PVME2 */
 913:Drivers/STM32L4xx_HAL_Driver/Src/stm32l4xx_hal_pwr_ex.c **** 
 914:Drivers/STM32L4xx_HAL_Driver/Src/stm32l4xx_hal_pwr_ex.c **** 
 915:Drivers/STM32L4xx_HAL_Driver/Src/stm32l4xx_hal_pwr_ex.c **** /**
 916:Drivers/STM32L4xx_HAL_Driver/Src/stm32l4xx_hal_pwr_ex.c ****   * @brief Enable the Power Voltage Monitoring 3: VDDA versus 1.62V.
 917:Drivers/STM32L4xx_HAL_Driver/Src/stm32l4xx_hal_pwr_ex.c ****   * @retval None
 918:Drivers/STM32L4xx_HAL_Driver/Src/stm32l4xx_hal_pwr_ex.c ****   */
 919:Drivers/STM32L4xx_HAL_Driver/Src/stm32l4xx_hal_pwr_ex.c **** void HAL_PWREx_EnablePVM3(void)
 920:Drivers/STM32L4xx_HAL_Driver/Src/stm32l4xx_hal_pwr_ex.c **** {
ARM GAS  C:\Users\mathi\AppData\Local\Temp\cc6ocpEq.s 			page 42


 1357              		.loc 1 920 1 is_stmt 1 view -0
 1358              		.cfi_startproc
 1359              		@ args = 0, pretend = 0, frame = 0
 1360              		@ frame_needed = 0, uses_anonymous_args = 0
 1361              		@ link register save eliminated.
 921:Drivers/STM32L4xx_HAL_Driver/Src/stm32l4xx_hal_pwr_ex.c ****   SET_BIT(PWR->CR2, PWR_PVM_3);
 1362              		.loc 1 921 3 view .LVU285
 1363 0000 024A     		ldr	r2, .L137
 1364 0002 5368     		ldr	r3, [r2, #4]
 1365 0004 43F04003 		orr	r3, r3, #64
 1366 0008 5360     		str	r3, [r2, #4]
 922:Drivers/STM32L4xx_HAL_Driver/Src/stm32l4xx_hal_pwr_ex.c **** }
 1367              		.loc 1 922 1 is_stmt 0 view .LVU286
 1368 000a 7047     		bx	lr
 1369              	.L138:
 1370              		.align	2
 1371              	.L137:
 1372 000c 00700040 		.word	1073770496
 1373              		.cfi_endproc
 1374              	.LFE311:
 1376              		.section	.text.HAL_PWREx_DisablePVM3,"ax",%progbits
 1377              		.align	1
 1378              		.global	HAL_PWREx_DisablePVM3
 1379              		.syntax unified
 1380              		.thumb
 1381              		.thumb_func
 1383              	HAL_PWREx_DisablePVM3:
 1384              	.LFB312:
 923:Drivers/STM32L4xx_HAL_Driver/Src/stm32l4xx_hal_pwr_ex.c **** 
 924:Drivers/STM32L4xx_HAL_Driver/Src/stm32l4xx_hal_pwr_ex.c **** /**
 925:Drivers/STM32L4xx_HAL_Driver/Src/stm32l4xx_hal_pwr_ex.c ****   * @brief Disable the Power Voltage Monitoring 3: VDDA versus 1.62V.
 926:Drivers/STM32L4xx_HAL_Driver/Src/stm32l4xx_hal_pwr_ex.c ****   * @retval None
 927:Drivers/STM32L4xx_HAL_Driver/Src/stm32l4xx_hal_pwr_ex.c ****   */
 928:Drivers/STM32L4xx_HAL_Driver/Src/stm32l4xx_hal_pwr_ex.c **** void HAL_PWREx_DisablePVM3(void)
 929:Drivers/STM32L4xx_HAL_Driver/Src/stm32l4xx_hal_pwr_ex.c **** {
 1385              		.loc 1 929 1 is_stmt 1 view -0
 1386              		.cfi_startproc
 1387              		@ args = 0, pretend = 0, frame = 0
 1388              		@ frame_needed = 0, uses_anonymous_args = 0
 1389              		@ link register save eliminated.
 930:Drivers/STM32L4xx_HAL_Driver/Src/stm32l4xx_hal_pwr_ex.c ****   CLEAR_BIT(PWR->CR2, PWR_PVM_3);
 1390              		.loc 1 930 3 view .LVU288
 1391 0000 024A     		ldr	r2, .L140
 1392 0002 5368     		ldr	r3, [r2, #4]
 1393 0004 23F04003 		bic	r3, r3, #64
 1394 0008 5360     		str	r3, [r2, #4]
 931:Drivers/STM32L4xx_HAL_Driver/Src/stm32l4xx_hal_pwr_ex.c **** }
 1395              		.loc 1 931 1 is_stmt 0 view .LVU289
 1396 000a 7047     		bx	lr
 1397              	.L141:
 1398              		.align	2
 1399              	.L140:
 1400 000c 00700040 		.word	1073770496
 1401              		.cfi_endproc
 1402              	.LFE312:
 1404              		.section	.text.HAL_PWREx_EnablePVM4,"ax",%progbits
 1405              		.align	1
ARM GAS  C:\Users\mathi\AppData\Local\Temp\cc6ocpEq.s 			page 43


 1406              		.global	HAL_PWREx_EnablePVM4
 1407              		.syntax unified
 1408              		.thumb
 1409              		.thumb_func
 1411              	HAL_PWREx_EnablePVM4:
 1412              	.LFB313:
 932:Drivers/STM32L4xx_HAL_Driver/Src/stm32l4xx_hal_pwr_ex.c **** 
 933:Drivers/STM32L4xx_HAL_Driver/Src/stm32l4xx_hal_pwr_ex.c **** 
 934:Drivers/STM32L4xx_HAL_Driver/Src/stm32l4xx_hal_pwr_ex.c **** /**
 935:Drivers/STM32L4xx_HAL_Driver/Src/stm32l4xx_hal_pwr_ex.c ****   * @brief Enable the Power Voltage Monitoring 4:  VDDA versus 2.2V.
 936:Drivers/STM32L4xx_HAL_Driver/Src/stm32l4xx_hal_pwr_ex.c ****   * @retval None
 937:Drivers/STM32L4xx_HAL_Driver/Src/stm32l4xx_hal_pwr_ex.c ****   */
 938:Drivers/STM32L4xx_HAL_Driver/Src/stm32l4xx_hal_pwr_ex.c **** void HAL_PWREx_EnablePVM4(void)
 939:Drivers/STM32L4xx_HAL_Driver/Src/stm32l4xx_hal_pwr_ex.c **** {
 1413              		.loc 1 939 1 is_stmt 1 view -0
 1414              		.cfi_startproc
 1415              		@ args = 0, pretend = 0, frame = 0
 1416              		@ frame_needed = 0, uses_anonymous_args = 0
 1417              		@ link register save eliminated.
 940:Drivers/STM32L4xx_HAL_Driver/Src/stm32l4xx_hal_pwr_ex.c ****   SET_BIT(PWR->CR2, PWR_PVM_4);
 1418              		.loc 1 940 3 view .LVU291
 1419 0000 024A     		ldr	r2, .L143
 1420 0002 5368     		ldr	r3, [r2, #4]
 1421 0004 43F08003 		orr	r3, r3, #128
 1422 0008 5360     		str	r3, [r2, #4]
 941:Drivers/STM32L4xx_HAL_Driver/Src/stm32l4xx_hal_pwr_ex.c **** }
 1423              		.loc 1 941 1 is_stmt 0 view .LVU292
 1424 000a 7047     		bx	lr
 1425              	.L144:
 1426              		.align	2
 1427              	.L143:
 1428 000c 00700040 		.word	1073770496
 1429              		.cfi_endproc
 1430              	.LFE313:
 1432              		.section	.text.HAL_PWREx_DisablePVM4,"ax",%progbits
 1433              		.align	1
 1434              		.global	HAL_PWREx_DisablePVM4
 1435              		.syntax unified
 1436              		.thumb
 1437              		.thumb_func
 1439              	HAL_PWREx_DisablePVM4:
 1440              	.LFB314:
 942:Drivers/STM32L4xx_HAL_Driver/Src/stm32l4xx_hal_pwr_ex.c **** 
 943:Drivers/STM32L4xx_HAL_Driver/Src/stm32l4xx_hal_pwr_ex.c **** /**
 944:Drivers/STM32L4xx_HAL_Driver/Src/stm32l4xx_hal_pwr_ex.c ****   * @brief Disable the Power Voltage Monitoring 4:  VDDA versus 2.2V.
 945:Drivers/STM32L4xx_HAL_Driver/Src/stm32l4xx_hal_pwr_ex.c ****   * @retval None
 946:Drivers/STM32L4xx_HAL_Driver/Src/stm32l4xx_hal_pwr_ex.c ****   */
 947:Drivers/STM32L4xx_HAL_Driver/Src/stm32l4xx_hal_pwr_ex.c **** void HAL_PWREx_DisablePVM4(void)
 948:Drivers/STM32L4xx_HAL_Driver/Src/stm32l4xx_hal_pwr_ex.c **** {
 1441              		.loc 1 948 1 is_stmt 1 view -0
 1442              		.cfi_startproc
 1443              		@ args = 0, pretend = 0, frame = 0
 1444              		@ frame_needed = 0, uses_anonymous_args = 0
 1445              		@ link register save eliminated.
 949:Drivers/STM32L4xx_HAL_Driver/Src/stm32l4xx_hal_pwr_ex.c ****   CLEAR_BIT(PWR->CR2, PWR_PVM_4);
 1446              		.loc 1 949 3 view .LVU294
 1447 0000 024A     		ldr	r2, .L146
ARM GAS  C:\Users\mathi\AppData\Local\Temp\cc6ocpEq.s 			page 44


 1448 0002 5368     		ldr	r3, [r2, #4]
 1449 0004 23F08003 		bic	r3, r3, #128
 1450 0008 5360     		str	r3, [r2, #4]
 950:Drivers/STM32L4xx_HAL_Driver/Src/stm32l4xx_hal_pwr_ex.c **** }
 1451              		.loc 1 950 1 is_stmt 0 view .LVU295
 1452 000a 7047     		bx	lr
 1453              	.L147:
 1454              		.align	2
 1455              	.L146:
 1456 000c 00700040 		.word	1073770496
 1457              		.cfi_endproc
 1458              	.LFE314:
 1460              		.section	.text.HAL_PWREx_ConfigPVM,"ax",%progbits
 1461              		.align	1
 1462              		.global	HAL_PWREx_ConfigPVM
 1463              		.syntax unified
 1464              		.thumb
 1465              		.thumb_func
 1467              	HAL_PWREx_ConfigPVM:
 1468              	.LVL88:
 1469              	.LFB315:
 951:Drivers/STM32L4xx_HAL_Driver/Src/stm32l4xx_hal_pwr_ex.c **** 
 952:Drivers/STM32L4xx_HAL_Driver/Src/stm32l4xx_hal_pwr_ex.c **** 
 953:Drivers/STM32L4xx_HAL_Driver/Src/stm32l4xx_hal_pwr_ex.c **** 
 954:Drivers/STM32L4xx_HAL_Driver/Src/stm32l4xx_hal_pwr_ex.c **** 
 955:Drivers/STM32L4xx_HAL_Driver/Src/stm32l4xx_hal_pwr_ex.c **** /**
 956:Drivers/STM32L4xx_HAL_Driver/Src/stm32l4xx_hal_pwr_ex.c ****   * @brief Configure the Peripheral Voltage Monitoring (PVM).
 957:Drivers/STM32L4xx_HAL_Driver/Src/stm32l4xx_hal_pwr_ex.c ****   * @param sConfigPVM: pointer to a PWR_PVMTypeDef structure that contains the
 958:Drivers/STM32L4xx_HAL_Driver/Src/stm32l4xx_hal_pwr_ex.c ****   *        PVM configuration information.
 959:Drivers/STM32L4xx_HAL_Driver/Src/stm32l4xx_hal_pwr_ex.c ****   * @note The API configures a single PVM according to the information contained
 960:Drivers/STM32L4xx_HAL_Driver/Src/stm32l4xx_hal_pwr_ex.c ****   *       in the input structure. To configure several PVMs, the API must be singly
 961:Drivers/STM32L4xx_HAL_Driver/Src/stm32l4xx_hal_pwr_ex.c ****   *       called for each PVM used.
 962:Drivers/STM32L4xx_HAL_Driver/Src/stm32l4xx_hal_pwr_ex.c ****   * @note Refer to the electrical characteristics of your device datasheet for
 963:Drivers/STM32L4xx_HAL_Driver/Src/stm32l4xx_hal_pwr_ex.c ****   *         more details about the voltage thresholds corresponding to each
 964:Drivers/STM32L4xx_HAL_Driver/Src/stm32l4xx_hal_pwr_ex.c ****   *         detection level and to each monitored supply.
 965:Drivers/STM32L4xx_HAL_Driver/Src/stm32l4xx_hal_pwr_ex.c ****   * @retval HAL status
 966:Drivers/STM32L4xx_HAL_Driver/Src/stm32l4xx_hal_pwr_ex.c ****   */
 967:Drivers/STM32L4xx_HAL_Driver/Src/stm32l4xx_hal_pwr_ex.c **** HAL_StatusTypeDef HAL_PWREx_ConfigPVM(PWR_PVMTypeDef *sConfigPVM)
 968:Drivers/STM32L4xx_HAL_Driver/Src/stm32l4xx_hal_pwr_ex.c **** {
 1470              		.loc 1 968 1 is_stmt 1 view -0
 1471              		.cfi_startproc
 1472              		@ args = 0, pretend = 0, frame = 0
 1473              		@ frame_needed = 0, uses_anonymous_args = 0
 1474              		.loc 1 968 1 is_stmt 0 view .LVU297
 1475 0000 10B5     		push	{r4, lr}
 1476              		.cfi_def_cfa_offset 8
 1477              		.cfi_offset 4, -8
 1478              		.cfi_offset 14, -4
 1479 0002 0446     		mov	r4, r0
 969:Drivers/STM32L4xx_HAL_Driver/Src/stm32l4xx_hal_pwr_ex.c ****   HAL_StatusTypeDef status = HAL_OK;
 1480              		.loc 1 969 3 is_stmt 1 view .LVU298
 1481              	.LVL89:
 970:Drivers/STM32L4xx_HAL_Driver/Src/stm32l4xx_hal_pwr_ex.c **** 
 971:Drivers/STM32L4xx_HAL_Driver/Src/stm32l4xx_hal_pwr_ex.c ****   /* Check the parameters */
 972:Drivers/STM32L4xx_HAL_Driver/Src/stm32l4xx_hal_pwr_ex.c ****   assert_param(IS_PWR_PVM_TYPE(sConfigPVM->PVMType));
 1482              		.loc 1 972 3 view .LVU299
 1483 0004 0368     		ldr	r3, [r0]
ARM GAS  C:\Users\mathi\AppData\Local\Temp\cc6ocpEq.s 			page 45


 1484 0006 102B     		cmp	r3, #16
 1485 0008 03D0     		beq	.L149
 1486              		.loc 1 972 3 is_stmt 0 discriminator 1 view .LVU300
 1487 000a 402B     		cmp	r3, #64
 1488 000c 01D0     		beq	.L149
 1489              		.loc 1 972 3 discriminator 2 view .LVU301
 1490 000e 802B     		cmp	r3, #128
 1491 0010 48D1     		bne	.L170
 1492              	.LVL90:
 1493              	.L149:
 973:Drivers/STM32L4xx_HAL_Driver/Src/stm32l4xx_hal_pwr_ex.c ****   assert_param(IS_PWR_PVM_MODE(sConfigPVM->Mode));
 1494              		.loc 1 973 3 is_stmt 1 view .LVU302
 1495 0012 6368     		ldr	r3, [r4, #4]
 1496 0014 2BB1     		cbz	r3, .L150
 1497 0016 674A     		ldr	r2, .L171
 1498 0018 9342     		cmp	r3, r2
 1499 001a 49D8     		bhi	.L151
 1500 001c B3F1011F 		cmp	r3, #65537
 1501 0020 4BD3     		bcc	.L152
 1502              	.L150:
 974:Drivers/STM32L4xx_HAL_Driver/Src/stm32l4xx_hal_pwr_ex.c **** 
 975:Drivers/STM32L4xx_HAL_Driver/Src/stm32l4xx_hal_pwr_ex.c **** 
 976:Drivers/STM32L4xx_HAL_Driver/Src/stm32l4xx_hal_pwr_ex.c ****   /* Configure EXTI 35 to 38 interrupts if so required:
 977:Drivers/STM32L4xx_HAL_Driver/Src/stm32l4xx_hal_pwr_ex.c ****      scan through PVMType to detect which PVMx is set and
 978:Drivers/STM32L4xx_HAL_Driver/Src/stm32l4xx_hal_pwr_ex.c ****      configure the corresponding EXTI line accordingly. */
 979:Drivers/STM32L4xx_HAL_Driver/Src/stm32l4xx_hal_pwr_ex.c ****   switch (sConfigPVM->PVMType)
 1503              		.loc 1 979 3 view .LVU303
 1504              		.loc 1 979 21 is_stmt 0 view .LVU304
 1505 0022 2368     		ldr	r3, [r4]
 1506              		.loc 1 979 3 view .LVU305
 1507 0024 402B     		cmp	r3, #64
 1508 0026 4ED0     		beq	.L153
 1509 0028 802B     		cmp	r3, #128
 1510 002a 00F08380 		beq	.L154
 1511 002e 102B     		cmp	r3, #16
 1512 0030 40F0B780 		bne	.L165
 980:Drivers/STM32L4xx_HAL_Driver/Src/stm32l4xx_hal_pwr_ex.c ****   {
 981:Drivers/STM32L4xx_HAL_Driver/Src/stm32l4xx_hal_pwr_ex.c **** #if defined(PWR_CR2_PVME1)
 982:Drivers/STM32L4xx_HAL_Driver/Src/stm32l4xx_hal_pwr_ex.c ****     case PWR_PVM_1:
 983:Drivers/STM32L4xx_HAL_Driver/Src/stm32l4xx_hal_pwr_ex.c ****       /* Clear any previous config. Keep it clear if no event or IT mode is selected */
 984:Drivers/STM32L4xx_HAL_Driver/Src/stm32l4xx_hal_pwr_ex.c ****       __HAL_PWR_PVM1_EXTI_DISABLE_EVENT();
 1513              		.loc 1 984 7 is_stmt 1 view .LVU306
 1514 0034 604B     		ldr	r3, .L171+4
 1515 0036 5A6A     		ldr	r2, [r3, #36]
 1516 0038 22F00802 		bic	r2, r2, #8
 1517 003c 5A62     		str	r2, [r3, #36]
 985:Drivers/STM32L4xx_HAL_Driver/Src/stm32l4xx_hal_pwr_ex.c ****       __HAL_PWR_PVM1_EXTI_DISABLE_IT();
 1518              		.loc 1 985 7 view .LVU307
 1519 003e 1A6A     		ldr	r2, [r3, #32]
 1520 0040 22F00802 		bic	r2, r2, #8
 1521 0044 1A62     		str	r2, [r3, #32]
 986:Drivers/STM32L4xx_HAL_Driver/Src/stm32l4xx_hal_pwr_ex.c ****       __HAL_PWR_PVM1_EXTI_DISABLE_FALLING_EDGE();
 1522              		.loc 1 986 7 view .LVU308
 1523 0046 DA6A     		ldr	r2, [r3, #44]
 1524 0048 22F00802 		bic	r2, r2, #8
 1525 004c DA62     		str	r2, [r3, #44]
 987:Drivers/STM32L4xx_HAL_Driver/Src/stm32l4xx_hal_pwr_ex.c ****       __HAL_PWR_PVM1_EXTI_DISABLE_RISING_EDGE();
ARM GAS  C:\Users\mathi\AppData\Local\Temp\cc6ocpEq.s 			page 46


 1526              		.loc 1 987 7 view .LVU309
 1527 004e 9A6A     		ldr	r2, [r3, #40]
 1528 0050 22F00802 		bic	r2, r2, #8
 1529 0054 9A62     		str	r2, [r3, #40]
 988:Drivers/STM32L4xx_HAL_Driver/Src/stm32l4xx_hal_pwr_ex.c **** 
 989:Drivers/STM32L4xx_HAL_Driver/Src/stm32l4xx_hal_pwr_ex.c ****       /* Configure interrupt mode */
 990:Drivers/STM32L4xx_HAL_Driver/Src/stm32l4xx_hal_pwr_ex.c ****       if((sConfigPVM->Mode & PVM_MODE_IT) == PVM_MODE_IT)
 1530              		.loc 1 990 7 view .LVU310
 1531              		.loc 1 990 21 is_stmt 0 view .LVU311
 1532 0056 6368     		ldr	r3, [r4, #4]
 1533              		.loc 1 990 9 view .LVU312
 1534 0058 13F4803F 		tst	r3, #65536
 1535 005c 04D0     		beq	.L156
 991:Drivers/STM32L4xx_HAL_Driver/Src/stm32l4xx_hal_pwr_ex.c ****       {
 992:Drivers/STM32L4xx_HAL_Driver/Src/stm32l4xx_hal_pwr_ex.c ****         __HAL_PWR_PVM1_EXTI_ENABLE_IT();
 1536              		.loc 1 992 9 is_stmt 1 view .LVU313
 1537 005e 564A     		ldr	r2, .L171+4
 1538 0060 136A     		ldr	r3, [r2, #32]
 1539 0062 43F00803 		orr	r3, r3, #8
 1540 0066 1362     		str	r3, [r2, #32]
 1541              	.L156:
 993:Drivers/STM32L4xx_HAL_Driver/Src/stm32l4xx_hal_pwr_ex.c ****       }
 994:Drivers/STM32L4xx_HAL_Driver/Src/stm32l4xx_hal_pwr_ex.c **** 
 995:Drivers/STM32L4xx_HAL_Driver/Src/stm32l4xx_hal_pwr_ex.c ****       /* Configure event mode */
 996:Drivers/STM32L4xx_HAL_Driver/Src/stm32l4xx_hal_pwr_ex.c ****       if((sConfigPVM->Mode & PVM_MODE_EVT) == PVM_MODE_EVT)
 1542              		.loc 1 996 7 view .LVU314
 1543              		.loc 1 996 21 is_stmt 0 view .LVU315
 1544 0068 6368     		ldr	r3, [r4, #4]
 1545              		.loc 1 996 9 view .LVU316
 1546 006a 13F4003F 		tst	r3, #131072
 1547 006e 04D0     		beq	.L157
 997:Drivers/STM32L4xx_HAL_Driver/Src/stm32l4xx_hal_pwr_ex.c ****       {
 998:Drivers/STM32L4xx_HAL_Driver/Src/stm32l4xx_hal_pwr_ex.c ****         __HAL_PWR_PVM1_EXTI_ENABLE_EVENT();
 1548              		.loc 1 998 9 is_stmt 1 view .LVU317
 1549 0070 514A     		ldr	r2, .L171+4
 1550 0072 536A     		ldr	r3, [r2, #36]
 1551 0074 43F00803 		orr	r3, r3, #8
 1552 0078 5362     		str	r3, [r2, #36]
 1553              	.L157:
 999:Drivers/STM32L4xx_HAL_Driver/Src/stm32l4xx_hal_pwr_ex.c ****       }
1000:Drivers/STM32L4xx_HAL_Driver/Src/stm32l4xx_hal_pwr_ex.c **** 
1001:Drivers/STM32L4xx_HAL_Driver/Src/stm32l4xx_hal_pwr_ex.c ****       /* Configure the edge */
1002:Drivers/STM32L4xx_HAL_Driver/Src/stm32l4xx_hal_pwr_ex.c ****       if((sConfigPVM->Mode & PVM_RISING_EDGE) == PVM_RISING_EDGE)
 1554              		.loc 1 1002 7 view .LVU318
 1555              		.loc 1 1002 21 is_stmt 0 view .LVU319
 1556 007a 6368     		ldr	r3, [r4, #4]
 1557              		.loc 1 1002 9 view .LVU320
 1558 007c 13F0010F 		tst	r3, #1
 1559 0080 04D0     		beq	.L158
1003:Drivers/STM32L4xx_HAL_Driver/Src/stm32l4xx_hal_pwr_ex.c ****       {
1004:Drivers/STM32L4xx_HAL_Driver/Src/stm32l4xx_hal_pwr_ex.c ****         __HAL_PWR_PVM1_EXTI_ENABLE_RISING_EDGE();
 1560              		.loc 1 1004 9 is_stmt 1 view .LVU321
 1561 0082 4D4A     		ldr	r2, .L171+4
 1562 0084 936A     		ldr	r3, [r2, #40]
 1563 0086 43F00803 		orr	r3, r3, #8
 1564 008a 9362     		str	r3, [r2, #40]
 1565              	.L158:
ARM GAS  C:\Users\mathi\AppData\Local\Temp\cc6ocpEq.s 			page 47


1005:Drivers/STM32L4xx_HAL_Driver/Src/stm32l4xx_hal_pwr_ex.c ****       }
1006:Drivers/STM32L4xx_HAL_Driver/Src/stm32l4xx_hal_pwr_ex.c **** 
1007:Drivers/STM32L4xx_HAL_Driver/Src/stm32l4xx_hal_pwr_ex.c ****       if((sConfigPVM->Mode & PVM_FALLING_EDGE) == PVM_FALLING_EDGE)
 1566              		.loc 1 1007 7 view .LVU322
 1567              		.loc 1 1007 21 is_stmt 0 view .LVU323
 1568 008c 6368     		ldr	r3, [r4, #4]
 1569              		.loc 1 1007 9 view .LVU324
 1570 008e 13F0020F 		tst	r3, #2
 1571 0092 00F08880 		beq	.L166
1008:Drivers/STM32L4xx_HAL_Driver/Src/stm32l4xx_hal_pwr_ex.c ****       {
1009:Drivers/STM32L4xx_HAL_Driver/Src/stm32l4xx_hal_pwr_ex.c ****         __HAL_PWR_PVM1_EXTI_ENABLE_FALLING_EDGE();
 1572              		.loc 1 1009 9 is_stmt 1 view .LVU325
 1573 0096 484A     		ldr	r2, .L171+4
 1574 0098 D36A     		ldr	r3, [r2, #44]
 1575 009a 43F00803 		orr	r3, r3, #8
 1576 009e D362     		str	r3, [r2, #44]
 969:Drivers/STM32L4xx_HAL_Driver/Src/stm32l4xx_hal_pwr_ex.c **** 
 1577              		.loc 1 969 21 is_stmt 0 view .LVU326
 1578 00a0 0020     		movs	r0, #0
 1579 00a2 7FE0     		b	.L155
 1580              	.LVL91:
 1581              	.L170:
 972:Drivers/STM32L4xx_HAL_Driver/Src/stm32l4xx_hal_pwr_ex.c ****   assert_param(IS_PWR_PVM_MODE(sConfigPVM->Mode));
 1582              		.loc 1 972 3 discriminator 3 view .LVU327
 1583 00a4 4FF47371 		mov	r1, #972
 1584 00a8 4448     		ldr	r0, .L171+8
 1585              	.LVL92:
 972:Drivers/STM32L4xx_HAL_Driver/Src/stm32l4xx_hal_pwr_ex.c ****   assert_param(IS_PWR_PVM_MODE(sConfigPVM->Mode));
 1586              		.loc 1 972 3 discriminator 3 view .LVU328
 1587 00aa FFF7FEFF 		bl	assert_failed
 1588              	.LVL93:
 1589 00ae B0E7     		b	.L149
 1590              	.L151:
 972:Drivers/STM32L4xx_HAL_Driver/Src/stm32l4xx_hal_pwr_ex.c ****   assert_param(IS_PWR_PVM_MODE(sConfigPVM->Mode));
 1591              		.loc 1 972 3 discriminator 3 view .LVU329
 1592 00b0 A3F50033 		sub	r3, r3, #131072
 1593 00b4 013B     		subs	r3, r3, #1
 1594 00b6 022B     		cmp	r3, #2
 1595 00b8 B3D9     		bls	.L150
 1596              	.L152:
 973:Drivers/STM32L4xx_HAL_Driver/Src/stm32l4xx_hal_pwr_ex.c **** 
 1597              		.loc 1 973 3 discriminator 7 view .LVU330
 1598 00ba 40F2CD31 		movw	r1, #973
 1599 00be 3F48     		ldr	r0, .L171+8
 1600 00c0 FFF7FEFF 		bl	assert_failed
 1601              	.LVL94:
 1602 00c4 ADE7     		b	.L150
 1603              	.L153:
1010:Drivers/STM32L4xx_HAL_Driver/Src/stm32l4xx_hal_pwr_ex.c ****       }
1011:Drivers/STM32L4xx_HAL_Driver/Src/stm32l4xx_hal_pwr_ex.c ****       break;
1012:Drivers/STM32L4xx_HAL_Driver/Src/stm32l4xx_hal_pwr_ex.c **** #endif /* PWR_CR2_PVME1 */
1013:Drivers/STM32L4xx_HAL_Driver/Src/stm32l4xx_hal_pwr_ex.c **** 
1014:Drivers/STM32L4xx_HAL_Driver/Src/stm32l4xx_hal_pwr_ex.c **** #if defined(PWR_CR2_PVME2)
1015:Drivers/STM32L4xx_HAL_Driver/Src/stm32l4xx_hal_pwr_ex.c ****     case PWR_PVM_2:
1016:Drivers/STM32L4xx_HAL_Driver/Src/stm32l4xx_hal_pwr_ex.c ****       /* Clear any previous config. Keep it clear if no event or IT mode is selected */
1017:Drivers/STM32L4xx_HAL_Driver/Src/stm32l4xx_hal_pwr_ex.c ****       __HAL_PWR_PVM2_EXTI_DISABLE_EVENT();
1018:Drivers/STM32L4xx_HAL_Driver/Src/stm32l4xx_hal_pwr_ex.c ****       __HAL_PWR_PVM2_EXTI_DISABLE_IT();
ARM GAS  C:\Users\mathi\AppData\Local\Temp\cc6ocpEq.s 			page 48


1019:Drivers/STM32L4xx_HAL_Driver/Src/stm32l4xx_hal_pwr_ex.c ****       __HAL_PWR_PVM2_EXTI_DISABLE_FALLING_EDGE();
1020:Drivers/STM32L4xx_HAL_Driver/Src/stm32l4xx_hal_pwr_ex.c ****       __HAL_PWR_PVM2_EXTI_DISABLE_RISING_EDGE();
1021:Drivers/STM32L4xx_HAL_Driver/Src/stm32l4xx_hal_pwr_ex.c **** 
1022:Drivers/STM32L4xx_HAL_Driver/Src/stm32l4xx_hal_pwr_ex.c ****       /* Configure interrupt mode */
1023:Drivers/STM32L4xx_HAL_Driver/Src/stm32l4xx_hal_pwr_ex.c ****       if((sConfigPVM->Mode & PVM_MODE_IT) == PVM_MODE_IT)
1024:Drivers/STM32L4xx_HAL_Driver/Src/stm32l4xx_hal_pwr_ex.c ****       {
1025:Drivers/STM32L4xx_HAL_Driver/Src/stm32l4xx_hal_pwr_ex.c ****         __HAL_PWR_PVM2_EXTI_ENABLE_IT();
1026:Drivers/STM32L4xx_HAL_Driver/Src/stm32l4xx_hal_pwr_ex.c ****       }
1027:Drivers/STM32L4xx_HAL_Driver/Src/stm32l4xx_hal_pwr_ex.c **** 
1028:Drivers/STM32L4xx_HAL_Driver/Src/stm32l4xx_hal_pwr_ex.c ****       /* Configure event mode */
1029:Drivers/STM32L4xx_HAL_Driver/Src/stm32l4xx_hal_pwr_ex.c ****       if((sConfigPVM->Mode & PVM_MODE_EVT) == PVM_MODE_EVT)
1030:Drivers/STM32L4xx_HAL_Driver/Src/stm32l4xx_hal_pwr_ex.c ****       {
1031:Drivers/STM32L4xx_HAL_Driver/Src/stm32l4xx_hal_pwr_ex.c ****         __HAL_PWR_PVM2_EXTI_ENABLE_EVENT();
1032:Drivers/STM32L4xx_HAL_Driver/Src/stm32l4xx_hal_pwr_ex.c ****       }
1033:Drivers/STM32L4xx_HAL_Driver/Src/stm32l4xx_hal_pwr_ex.c **** 
1034:Drivers/STM32L4xx_HAL_Driver/Src/stm32l4xx_hal_pwr_ex.c ****       /* Configure the edge */
1035:Drivers/STM32L4xx_HAL_Driver/Src/stm32l4xx_hal_pwr_ex.c ****       if((sConfigPVM->Mode & PVM_RISING_EDGE) == PVM_RISING_EDGE)
1036:Drivers/STM32L4xx_HAL_Driver/Src/stm32l4xx_hal_pwr_ex.c ****       {
1037:Drivers/STM32L4xx_HAL_Driver/Src/stm32l4xx_hal_pwr_ex.c ****         __HAL_PWR_PVM2_EXTI_ENABLE_RISING_EDGE();
1038:Drivers/STM32L4xx_HAL_Driver/Src/stm32l4xx_hal_pwr_ex.c ****       }
1039:Drivers/STM32L4xx_HAL_Driver/Src/stm32l4xx_hal_pwr_ex.c **** 
1040:Drivers/STM32L4xx_HAL_Driver/Src/stm32l4xx_hal_pwr_ex.c ****       if((sConfigPVM->Mode & PVM_FALLING_EDGE) == PVM_FALLING_EDGE)
1041:Drivers/STM32L4xx_HAL_Driver/Src/stm32l4xx_hal_pwr_ex.c ****       {
1042:Drivers/STM32L4xx_HAL_Driver/Src/stm32l4xx_hal_pwr_ex.c ****         __HAL_PWR_PVM2_EXTI_ENABLE_FALLING_EDGE();
1043:Drivers/STM32L4xx_HAL_Driver/Src/stm32l4xx_hal_pwr_ex.c ****       }
1044:Drivers/STM32L4xx_HAL_Driver/Src/stm32l4xx_hal_pwr_ex.c ****       break;
1045:Drivers/STM32L4xx_HAL_Driver/Src/stm32l4xx_hal_pwr_ex.c **** #endif /* PWR_CR2_PVME2 */
1046:Drivers/STM32L4xx_HAL_Driver/Src/stm32l4xx_hal_pwr_ex.c **** 
1047:Drivers/STM32L4xx_HAL_Driver/Src/stm32l4xx_hal_pwr_ex.c ****     case PWR_PVM_3:
1048:Drivers/STM32L4xx_HAL_Driver/Src/stm32l4xx_hal_pwr_ex.c ****       /* Clear any previous config. Keep it clear if no event or IT mode is selected */
1049:Drivers/STM32L4xx_HAL_Driver/Src/stm32l4xx_hal_pwr_ex.c ****       __HAL_PWR_PVM3_EXTI_DISABLE_EVENT();
 1604              		.loc 1 1049 7 is_stmt 1 view .LVU331
 1605 00c6 3C4B     		ldr	r3, .L171+4
 1606 00c8 5A6A     		ldr	r2, [r3, #36]
 1607 00ca 22F02002 		bic	r2, r2, #32
 1608 00ce 5A62     		str	r2, [r3, #36]
1050:Drivers/STM32L4xx_HAL_Driver/Src/stm32l4xx_hal_pwr_ex.c ****       __HAL_PWR_PVM3_EXTI_DISABLE_IT();
 1609              		.loc 1 1050 7 view .LVU332
 1610 00d0 1A6A     		ldr	r2, [r3, #32]
 1611 00d2 22F02002 		bic	r2, r2, #32
 1612 00d6 1A62     		str	r2, [r3, #32]
1051:Drivers/STM32L4xx_HAL_Driver/Src/stm32l4xx_hal_pwr_ex.c ****       __HAL_PWR_PVM3_EXTI_DISABLE_FALLING_EDGE();
 1613              		.loc 1 1051 7 view .LVU333
 1614 00d8 DA6A     		ldr	r2, [r3, #44]
 1615 00da 22F02002 		bic	r2, r2, #32
 1616 00de DA62     		str	r2, [r3, #44]
1052:Drivers/STM32L4xx_HAL_Driver/Src/stm32l4xx_hal_pwr_ex.c ****       __HAL_PWR_PVM3_EXTI_DISABLE_RISING_EDGE();
 1617              		.loc 1 1052 7 view .LVU334
 1618 00e0 9A6A     		ldr	r2, [r3, #40]
 1619 00e2 22F02002 		bic	r2, r2, #32
 1620 00e6 9A62     		str	r2, [r3, #40]
1053:Drivers/STM32L4xx_HAL_Driver/Src/stm32l4xx_hal_pwr_ex.c **** 
1054:Drivers/STM32L4xx_HAL_Driver/Src/stm32l4xx_hal_pwr_ex.c ****       /* Configure interrupt mode */
1055:Drivers/STM32L4xx_HAL_Driver/Src/stm32l4xx_hal_pwr_ex.c ****       if((sConfigPVM->Mode & PVM_MODE_IT) == PVM_MODE_IT)
 1621              		.loc 1 1055 7 view .LVU335
 1622              		.loc 1 1055 21 is_stmt 0 view .LVU336
 1623 00e8 6368     		ldr	r3, [r4, #4]
ARM GAS  C:\Users\mathi\AppData\Local\Temp\cc6ocpEq.s 			page 49


 1624              		.loc 1 1055 9 view .LVU337
 1625 00ea 13F4803F 		tst	r3, #65536
 1626 00ee 04D0     		beq	.L159
1056:Drivers/STM32L4xx_HAL_Driver/Src/stm32l4xx_hal_pwr_ex.c ****       {
1057:Drivers/STM32L4xx_HAL_Driver/Src/stm32l4xx_hal_pwr_ex.c ****         __HAL_PWR_PVM3_EXTI_ENABLE_IT();
 1627              		.loc 1 1057 9 is_stmt 1 view .LVU338
 1628 00f0 314A     		ldr	r2, .L171+4
 1629 00f2 136A     		ldr	r3, [r2, #32]
 1630 00f4 43F02003 		orr	r3, r3, #32
 1631 00f8 1362     		str	r3, [r2, #32]
 1632              	.L159:
1058:Drivers/STM32L4xx_HAL_Driver/Src/stm32l4xx_hal_pwr_ex.c ****       }
1059:Drivers/STM32L4xx_HAL_Driver/Src/stm32l4xx_hal_pwr_ex.c **** 
1060:Drivers/STM32L4xx_HAL_Driver/Src/stm32l4xx_hal_pwr_ex.c ****       /* Configure event mode */
1061:Drivers/STM32L4xx_HAL_Driver/Src/stm32l4xx_hal_pwr_ex.c ****       if((sConfigPVM->Mode & PVM_MODE_EVT) == PVM_MODE_EVT)
 1633              		.loc 1 1061 7 view .LVU339
 1634              		.loc 1 1061 21 is_stmt 0 view .LVU340
 1635 00fa 6368     		ldr	r3, [r4, #4]
 1636              		.loc 1 1061 9 view .LVU341
 1637 00fc 13F4003F 		tst	r3, #131072
 1638 0100 04D0     		beq	.L160
1062:Drivers/STM32L4xx_HAL_Driver/Src/stm32l4xx_hal_pwr_ex.c ****       {
1063:Drivers/STM32L4xx_HAL_Driver/Src/stm32l4xx_hal_pwr_ex.c ****         __HAL_PWR_PVM3_EXTI_ENABLE_EVENT();
 1639              		.loc 1 1063 9 is_stmt 1 view .LVU342
 1640 0102 2D4A     		ldr	r2, .L171+4
 1641 0104 536A     		ldr	r3, [r2, #36]
 1642 0106 43F02003 		orr	r3, r3, #32
 1643 010a 5362     		str	r3, [r2, #36]
 1644              	.L160:
1064:Drivers/STM32L4xx_HAL_Driver/Src/stm32l4xx_hal_pwr_ex.c ****       }
1065:Drivers/STM32L4xx_HAL_Driver/Src/stm32l4xx_hal_pwr_ex.c **** 
1066:Drivers/STM32L4xx_HAL_Driver/Src/stm32l4xx_hal_pwr_ex.c ****       /* Configure the edge */
1067:Drivers/STM32L4xx_HAL_Driver/Src/stm32l4xx_hal_pwr_ex.c ****       if((sConfigPVM->Mode & PVM_RISING_EDGE) == PVM_RISING_EDGE)
 1645              		.loc 1 1067 7 view .LVU343
 1646              		.loc 1 1067 21 is_stmt 0 view .LVU344
 1647 010c 6368     		ldr	r3, [r4, #4]
 1648              		.loc 1 1067 9 view .LVU345
 1649 010e 13F0010F 		tst	r3, #1
 1650 0112 04D0     		beq	.L161
1068:Drivers/STM32L4xx_HAL_Driver/Src/stm32l4xx_hal_pwr_ex.c ****       {
1069:Drivers/STM32L4xx_HAL_Driver/Src/stm32l4xx_hal_pwr_ex.c ****         __HAL_PWR_PVM3_EXTI_ENABLE_RISING_EDGE();
 1651              		.loc 1 1069 9 is_stmt 1 view .LVU346
 1652 0114 284A     		ldr	r2, .L171+4
 1653 0116 936A     		ldr	r3, [r2, #40]
 1654 0118 43F02003 		orr	r3, r3, #32
 1655 011c 9362     		str	r3, [r2, #40]
 1656              	.L161:
1070:Drivers/STM32L4xx_HAL_Driver/Src/stm32l4xx_hal_pwr_ex.c ****       }
1071:Drivers/STM32L4xx_HAL_Driver/Src/stm32l4xx_hal_pwr_ex.c **** 
1072:Drivers/STM32L4xx_HAL_Driver/Src/stm32l4xx_hal_pwr_ex.c ****       if((sConfigPVM->Mode & PVM_FALLING_EDGE) == PVM_FALLING_EDGE)
 1657              		.loc 1 1072 7 view .LVU347
 1658              		.loc 1 1072 21 is_stmt 0 view .LVU348
 1659 011e 6368     		ldr	r3, [r4, #4]
 1660              		.loc 1 1072 9 view .LVU349
 1661 0120 13F0020F 		tst	r3, #2
 1662 0124 41D0     		beq	.L167
1073:Drivers/STM32L4xx_HAL_Driver/Src/stm32l4xx_hal_pwr_ex.c ****       {
ARM GAS  C:\Users\mathi\AppData\Local\Temp\cc6ocpEq.s 			page 50


1074:Drivers/STM32L4xx_HAL_Driver/Src/stm32l4xx_hal_pwr_ex.c ****         __HAL_PWR_PVM3_EXTI_ENABLE_FALLING_EDGE();
 1663              		.loc 1 1074 9 is_stmt 1 view .LVU350
 1664 0126 244A     		ldr	r2, .L171+4
 1665 0128 D36A     		ldr	r3, [r2, #44]
 1666 012a 43F02003 		orr	r3, r3, #32
 1667 012e D362     		str	r3, [r2, #44]
 969:Drivers/STM32L4xx_HAL_Driver/Src/stm32l4xx_hal_pwr_ex.c **** 
 1668              		.loc 1 969 21 is_stmt 0 view .LVU351
 1669 0130 0020     		movs	r0, #0
 1670 0132 37E0     		b	.L155
 1671              	.L154:
1075:Drivers/STM32L4xx_HAL_Driver/Src/stm32l4xx_hal_pwr_ex.c ****       }
1076:Drivers/STM32L4xx_HAL_Driver/Src/stm32l4xx_hal_pwr_ex.c ****       break;
1077:Drivers/STM32L4xx_HAL_Driver/Src/stm32l4xx_hal_pwr_ex.c **** 
1078:Drivers/STM32L4xx_HAL_Driver/Src/stm32l4xx_hal_pwr_ex.c ****     case PWR_PVM_4:
1079:Drivers/STM32L4xx_HAL_Driver/Src/stm32l4xx_hal_pwr_ex.c ****       /* Clear any previous config. Keep it clear if no event or IT mode is selected */
1080:Drivers/STM32L4xx_HAL_Driver/Src/stm32l4xx_hal_pwr_ex.c ****       __HAL_PWR_PVM4_EXTI_DISABLE_EVENT();
 1672              		.loc 1 1080 7 is_stmt 1 view .LVU352
 1673 0134 204B     		ldr	r3, .L171+4
 1674 0136 5A6A     		ldr	r2, [r3, #36]
 1675 0138 22F04002 		bic	r2, r2, #64
 1676 013c 5A62     		str	r2, [r3, #36]
1081:Drivers/STM32L4xx_HAL_Driver/Src/stm32l4xx_hal_pwr_ex.c ****       __HAL_PWR_PVM4_EXTI_DISABLE_IT();
 1677              		.loc 1 1081 7 view .LVU353
 1678 013e 1A6A     		ldr	r2, [r3, #32]
 1679 0140 22F04002 		bic	r2, r2, #64
 1680 0144 1A62     		str	r2, [r3, #32]
1082:Drivers/STM32L4xx_HAL_Driver/Src/stm32l4xx_hal_pwr_ex.c ****       __HAL_PWR_PVM4_EXTI_DISABLE_FALLING_EDGE();
 1681              		.loc 1 1082 7 view .LVU354
 1682 0146 DA6A     		ldr	r2, [r3, #44]
 1683 0148 22F04002 		bic	r2, r2, #64
 1684 014c DA62     		str	r2, [r3, #44]
1083:Drivers/STM32L4xx_HAL_Driver/Src/stm32l4xx_hal_pwr_ex.c ****       __HAL_PWR_PVM4_EXTI_DISABLE_RISING_EDGE();
 1685              		.loc 1 1083 7 view .LVU355
 1686 014e 9A6A     		ldr	r2, [r3, #40]
 1687 0150 22F04002 		bic	r2, r2, #64
 1688 0154 9A62     		str	r2, [r3, #40]
1084:Drivers/STM32L4xx_HAL_Driver/Src/stm32l4xx_hal_pwr_ex.c **** 
1085:Drivers/STM32L4xx_HAL_Driver/Src/stm32l4xx_hal_pwr_ex.c ****       /* Configure interrupt mode */
1086:Drivers/STM32L4xx_HAL_Driver/Src/stm32l4xx_hal_pwr_ex.c ****       if((sConfigPVM->Mode & PVM_MODE_IT) == PVM_MODE_IT)
 1689              		.loc 1 1086 7 view .LVU356
 1690              		.loc 1 1086 21 is_stmt 0 view .LVU357
 1691 0156 6368     		ldr	r3, [r4, #4]
 1692              		.loc 1 1086 9 view .LVU358
 1693 0158 13F4803F 		tst	r3, #65536
 1694 015c 04D0     		beq	.L162
1087:Drivers/STM32L4xx_HAL_Driver/Src/stm32l4xx_hal_pwr_ex.c ****       {
1088:Drivers/STM32L4xx_HAL_Driver/Src/stm32l4xx_hal_pwr_ex.c ****         __HAL_PWR_PVM4_EXTI_ENABLE_IT();
 1695              		.loc 1 1088 9 is_stmt 1 view .LVU359
 1696 015e 164A     		ldr	r2, .L171+4
 1697 0160 136A     		ldr	r3, [r2, #32]
 1698 0162 43F04003 		orr	r3, r3, #64
 1699 0166 1362     		str	r3, [r2, #32]
 1700              	.L162:
1089:Drivers/STM32L4xx_HAL_Driver/Src/stm32l4xx_hal_pwr_ex.c ****       }
1090:Drivers/STM32L4xx_HAL_Driver/Src/stm32l4xx_hal_pwr_ex.c **** 
1091:Drivers/STM32L4xx_HAL_Driver/Src/stm32l4xx_hal_pwr_ex.c ****       /* Configure event mode */
ARM GAS  C:\Users\mathi\AppData\Local\Temp\cc6ocpEq.s 			page 51


1092:Drivers/STM32L4xx_HAL_Driver/Src/stm32l4xx_hal_pwr_ex.c ****       if((sConfigPVM->Mode & PVM_MODE_EVT) == PVM_MODE_EVT)
 1701              		.loc 1 1092 7 view .LVU360
 1702              		.loc 1 1092 21 is_stmt 0 view .LVU361
 1703 0168 6368     		ldr	r3, [r4, #4]
 1704              		.loc 1 1092 9 view .LVU362
 1705 016a 13F4003F 		tst	r3, #131072
 1706 016e 04D0     		beq	.L163
1093:Drivers/STM32L4xx_HAL_Driver/Src/stm32l4xx_hal_pwr_ex.c ****       {
1094:Drivers/STM32L4xx_HAL_Driver/Src/stm32l4xx_hal_pwr_ex.c ****         __HAL_PWR_PVM4_EXTI_ENABLE_EVENT();
 1707              		.loc 1 1094 9 is_stmt 1 view .LVU363
 1708 0170 114A     		ldr	r2, .L171+4
 1709 0172 536A     		ldr	r3, [r2, #36]
 1710 0174 43F04003 		orr	r3, r3, #64
 1711 0178 5362     		str	r3, [r2, #36]
 1712              	.L163:
1095:Drivers/STM32L4xx_HAL_Driver/Src/stm32l4xx_hal_pwr_ex.c ****       }
1096:Drivers/STM32L4xx_HAL_Driver/Src/stm32l4xx_hal_pwr_ex.c **** 
1097:Drivers/STM32L4xx_HAL_Driver/Src/stm32l4xx_hal_pwr_ex.c ****       /* Configure the edge */
1098:Drivers/STM32L4xx_HAL_Driver/Src/stm32l4xx_hal_pwr_ex.c ****       if((sConfigPVM->Mode & PVM_RISING_EDGE) == PVM_RISING_EDGE)
 1713              		.loc 1 1098 7 view .LVU364
 1714              		.loc 1 1098 21 is_stmt 0 view .LVU365
 1715 017a 6368     		ldr	r3, [r4, #4]
 1716              		.loc 1 1098 9 view .LVU366
 1717 017c 13F0010F 		tst	r3, #1
 1718 0180 04D0     		beq	.L164
1099:Drivers/STM32L4xx_HAL_Driver/Src/stm32l4xx_hal_pwr_ex.c ****       {
1100:Drivers/STM32L4xx_HAL_Driver/Src/stm32l4xx_hal_pwr_ex.c ****         __HAL_PWR_PVM4_EXTI_ENABLE_RISING_EDGE();
 1719              		.loc 1 1100 9 is_stmt 1 view .LVU367
 1720 0182 0D4A     		ldr	r2, .L171+4
 1721 0184 936A     		ldr	r3, [r2, #40]
 1722 0186 43F04003 		orr	r3, r3, #64
 1723 018a 9362     		str	r3, [r2, #40]
 1724              	.L164:
1101:Drivers/STM32L4xx_HAL_Driver/Src/stm32l4xx_hal_pwr_ex.c ****       }
1102:Drivers/STM32L4xx_HAL_Driver/Src/stm32l4xx_hal_pwr_ex.c **** 
1103:Drivers/STM32L4xx_HAL_Driver/Src/stm32l4xx_hal_pwr_ex.c ****       if((sConfigPVM->Mode & PVM_FALLING_EDGE) == PVM_FALLING_EDGE)
 1725              		.loc 1 1103 7 view .LVU368
 1726              		.loc 1 1103 21 is_stmt 0 view .LVU369
 1727 018c 6368     		ldr	r3, [r4, #4]
 1728              		.loc 1 1103 9 view .LVU370
 1729 018e 13F0020F 		tst	r3, #2
 1730 0192 0CD0     		beq	.L168
1104:Drivers/STM32L4xx_HAL_Driver/Src/stm32l4xx_hal_pwr_ex.c ****       {
1105:Drivers/STM32L4xx_HAL_Driver/Src/stm32l4xx_hal_pwr_ex.c ****         __HAL_PWR_PVM4_EXTI_ENABLE_FALLING_EDGE();
 1731              		.loc 1 1105 9 is_stmt 1 view .LVU371
 1732 0194 084A     		ldr	r2, .L171+4
 1733 0196 D36A     		ldr	r3, [r2, #44]
 1734 0198 43F04003 		orr	r3, r3, #64
 1735 019c D362     		str	r3, [r2, #44]
 969:Drivers/STM32L4xx_HAL_Driver/Src/stm32l4xx_hal_pwr_ex.c **** 
 1736              		.loc 1 969 21 is_stmt 0 view .LVU372
 1737 019e 0020     		movs	r0, #0
 1738 01a0 00E0     		b	.L155
 1739              	.L165:
 979:Drivers/STM32L4xx_HAL_Driver/Src/stm32l4xx_hal_pwr_ex.c ****   {
 1740              		.loc 1 979 3 view .LVU373
 1741 01a2 0120     		movs	r0, #1
ARM GAS  C:\Users\mathi\AppData\Local\Temp\cc6ocpEq.s 			page 52


 1742              	.L155:
 1743              	.LVL95:
1106:Drivers/STM32L4xx_HAL_Driver/Src/stm32l4xx_hal_pwr_ex.c ****       }
1107:Drivers/STM32L4xx_HAL_Driver/Src/stm32l4xx_hal_pwr_ex.c ****       break;
1108:Drivers/STM32L4xx_HAL_Driver/Src/stm32l4xx_hal_pwr_ex.c **** 
1109:Drivers/STM32L4xx_HAL_Driver/Src/stm32l4xx_hal_pwr_ex.c ****     default:
1110:Drivers/STM32L4xx_HAL_Driver/Src/stm32l4xx_hal_pwr_ex.c ****       status = HAL_ERROR;
1111:Drivers/STM32L4xx_HAL_Driver/Src/stm32l4xx_hal_pwr_ex.c ****       break;
1112:Drivers/STM32L4xx_HAL_Driver/Src/stm32l4xx_hal_pwr_ex.c ****   }
1113:Drivers/STM32L4xx_HAL_Driver/Src/stm32l4xx_hal_pwr_ex.c **** 
1114:Drivers/STM32L4xx_HAL_Driver/Src/stm32l4xx_hal_pwr_ex.c ****   return status;
 1744              		.loc 1 1114 3 is_stmt 1 view .LVU374
1115:Drivers/STM32L4xx_HAL_Driver/Src/stm32l4xx_hal_pwr_ex.c **** }
 1745              		.loc 1 1115 1 is_stmt 0 view .LVU375
 1746 01a4 10BD     		pop	{r4, pc}
 1747              	.LVL96:
 1748              	.L166:
 969:Drivers/STM32L4xx_HAL_Driver/Src/stm32l4xx_hal_pwr_ex.c **** 
 1749              		.loc 1 969 21 view .LVU376
 1750 01a6 0020     		movs	r0, #0
 1751 01a8 FCE7     		b	.L155
 1752              	.L167:
 969:Drivers/STM32L4xx_HAL_Driver/Src/stm32l4xx_hal_pwr_ex.c **** 
 1753              		.loc 1 969 21 view .LVU377
 1754 01aa 0020     		movs	r0, #0
 1755 01ac FAE7     		b	.L155
 1756              	.L168:
 969:Drivers/STM32L4xx_HAL_Driver/Src/stm32l4xx_hal_pwr_ex.c **** 
 1757              		.loc 1 969 21 view .LVU378
 1758 01ae 0020     		movs	r0, #0
 1759 01b0 F8E7     		b	.L155
 1760              	.L172:
 1761 01b2 00BF     		.align	2
 1762              	.L171:
 1763 01b4 03000100 		.word	65539
 1764 01b8 00040140 		.word	1073808384
 1765 01bc 00000000 		.word	.LC0
 1766              		.cfi_endproc
 1767              	.LFE315:
 1769              		.section	.text.HAL_PWREx_EnableLowPowerRunMode,"ax",%progbits
 1770              		.align	1
 1771              		.global	HAL_PWREx_EnableLowPowerRunMode
 1772              		.syntax unified
 1773              		.thumb
 1774              		.thumb_func
 1776              	HAL_PWREx_EnableLowPowerRunMode:
 1777              	.LFB316:
1116:Drivers/STM32L4xx_HAL_Driver/Src/stm32l4xx_hal_pwr_ex.c **** 
1117:Drivers/STM32L4xx_HAL_Driver/Src/stm32l4xx_hal_pwr_ex.c **** 
1118:Drivers/STM32L4xx_HAL_Driver/Src/stm32l4xx_hal_pwr_ex.c **** 
1119:Drivers/STM32L4xx_HAL_Driver/Src/stm32l4xx_hal_pwr_ex.c **** /**
1120:Drivers/STM32L4xx_HAL_Driver/Src/stm32l4xx_hal_pwr_ex.c ****   * @brief Enter Low-power Run mode
1121:Drivers/STM32L4xx_HAL_Driver/Src/stm32l4xx_hal_pwr_ex.c ****   * @note  In Low-power Run mode, all I/O pins keep the same state as in Run mode.
1122:Drivers/STM32L4xx_HAL_Driver/Src/stm32l4xx_hal_pwr_ex.c ****   * @note  When Regulator is set to PWR_LOWPOWERREGULATOR_ON, the user can optionally configure the
1123:Drivers/STM32L4xx_HAL_Driver/Src/stm32l4xx_hal_pwr_ex.c ****   *        Flash in power-down monde in setting the RUN_PD bit in FLASH_ACR register.
1124:Drivers/STM32L4xx_HAL_Driver/Src/stm32l4xx_hal_pwr_ex.c ****   *        Additionally, the clock frequency must be reduced below 2 MHz.
1125:Drivers/STM32L4xx_HAL_Driver/Src/stm32l4xx_hal_pwr_ex.c ****   *        Setting RUN_PD in FLASH_ACR then appropriately reducing the clock frequency must
ARM GAS  C:\Users\mathi\AppData\Local\Temp\cc6ocpEq.s 			page 53


1126:Drivers/STM32L4xx_HAL_Driver/Src/stm32l4xx_hal_pwr_ex.c ****   *        be done before calling HAL_PWREx_EnableLowPowerRunMode() API.
1127:Drivers/STM32L4xx_HAL_Driver/Src/stm32l4xx_hal_pwr_ex.c ****   * @retval None
1128:Drivers/STM32L4xx_HAL_Driver/Src/stm32l4xx_hal_pwr_ex.c ****   */
1129:Drivers/STM32L4xx_HAL_Driver/Src/stm32l4xx_hal_pwr_ex.c **** void HAL_PWREx_EnableLowPowerRunMode(void)
1130:Drivers/STM32L4xx_HAL_Driver/Src/stm32l4xx_hal_pwr_ex.c **** {
 1778              		.loc 1 1130 1 is_stmt 1 view -0
 1779              		.cfi_startproc
 1780              		@ args = 0, pretend = 0, frame = 0
 1781              		@ frame_needed = 0, uses_anonymous_args = 0
 1782              		@ link register save eliminated.
1131:Drivers/STM32L4xx_HAL_Driver/Src/stm32l4xx_hal_pwr_ex.c ****   /* Set Regulator parameter */
1132:Drivers/STM32L4xx_HAL_Driver/Src/stm32l4xx_hal_pwr_ex.c ****   SET_BIT(PWR->CR1, PWR_CR1_LPR);
 1783              		.loc 1 1132 3 view .LVU380
 1784 0000 024A     		ldr	r2, .L174
 1785 0002 1368     		ldr	r3, [r2]
 1786 0004 43F48043 		orr	r3, r3, #16384
 1787 0008 1360     		str	r3, [r2]
1133:Drivers/STM32L4xx_HAL_Driver/Src/stm32l4xx_hal_pwr_ex.c **** }
 1788              		.loc 1 1133 1 is_stmt 0 view .LVU381
 1789 000a 7047     		bx	lr
 1790              	.L175:
 1791              		.align	2
 1792              	.L174:
 1793 000c 00700040 		.word	1073770496
 1794              		.cfi_endproc
 1795              	.LFE316:
 1797              		.section	.text.HAL_PWREx_DisableLowPowerRunMode,"ax",%progbits
 1798              		.align	1
 1799              		.global	HAL_PWREx_DisableLowPowerRunMode
 1800              		.syntax unified
 1801              		.thumb
 1802              		.thumb_func
 1804              	HAL_PWREx_DisableLowPowerRunMode:
 1805              	.LFB317:
1134:Drivers/STM32L4xx_HAL_Driver/Src/stm32l4xx_hal_pwr_ex.c **** 
1135:Drivers/STM32L4xx_HAL_Driver/Src/stm32l4xx_hal_pwr_ex.c **** 
1136:Drivers/STM32L4xx_HAL_Driver/Src/stm32l4xx_hal_pwr_ex.c **** /**
1137:Drivers/STM32L4xx_HAL_Driver/Src/stm32l4xx_hal_pwr_ex.c ****   * @brief Exit Low-power Run mode.
1138:Drivers/STM32L4xx_HAL_Driver/Src/stm32l4xx_hal_pwr_ex.c ****   * @note  Before HAL_PWREx_DisableLowPowerRunMode() completion, the function checks that
1139:Drivers/STM32L4xx_HAL_Driver/Src/stm32l4xx_hal_pwr_ex.c ****   *        REGLPF has been properly reset (otherwise, HAL_PWREx_DisableLowPowerRunMode
1140:Drivers/STM32L4xx_HAL_Driver/Src/stm32l4xx_hal_pwr_ex.c ****   *        returns HAL_TIMEOUT status). The system clock frequency can then be
1141:Drivers/STM32L4xx_HAL_Driver/Src/stm32l4xx_hal_pwr_ex.c ****   *        increased above 2 MHz.
1142:Drivers/STM32L4xx_HAL_Driver/Src/stm32l4xx_hal_pwr_ex.c ****   * @retval HAL Status
1143:Drivers/STM32L4xx_HAL_Driver/Src/stm32l4xx_hal_pwr_ex.c ****   */
1144:Drivers/STM32L4xx_HAL_Driver/Src/stm32l4xx_hal_pwr_ex.c **** HAL_StatusTypeDef HAL_PWREx_DisableLowPowerRunMode(void)
1145:Drivers/STM32L4xx_HAL_Driver/Src/stm32l4xx_hal_pwr_ex.c **** {
 1806              		.loc 1 1145 1 is_stmt 1 view -0
 1807              		.cfi_startproc
 1808              		@ args = 0, pretend = 0, frame = 0
 1809              		@ frame_needed = 0, uses_anonymous_args = 0
 1810              		@ link register save eliminated.
1146:Drivers/STM32L4xx_HAL_Driver/Src/stm32l4xx_hal_pwr_ex.c ****   uint32_t wait_loop_index;
 1811              		.loc 1 1146 3 view .LVU383
1147:Drivers/STM32L4xx_HAL_Driver/Src/stm32l4xx_hal_pwr_ex.c **** 
1148:Drivers/STM32L4xx_HAL_Driver/Src/stm32l4xx_hal_pwr_ex.c ****   /* Clear LPR bit */
1149:Drivers/STM32L4xx_HAL_Driver/Src/stm32l4xx_hal_pwr_ex.c ****   CLEAR_BIT(PWR->CR1, PWR_CR1_LPR);
 1812              		.loc 1 1149 3 view .LVU384
ARM GAS  C:\Users\mathi\AppData\Local\Temp\cc6ocpEq.s 			page 54


 1813 0000 104A     		ldr	r2, .L182
 1814 0002 1368     		ldr	r3, [r2]
 1815 0004 23F48043 		bic	r3, r3, #16384
 1816 0008 1360     		str	r3, [r2]
1150:Drivers/STM32L4xx_HAL_Driver/Src/stm32l4xx_hal_pwr_ex.c **** 
1151:Drivers/STM32L4xx_HAL_Driver/Src/stm32l4xx_hal_pwr_ex.c ****   /* Wait until REGLPF is reset */
1152:Drivers/STM32L4xx_HAL_Driver/Src/stm32l4xx_hal_pwr_ex.c ****   wait_loop_index = ((PWR_FLAG_SETTING_DELAY_US * SystemCoreClock) / 1000000U) + 1U;
 1817              		.loc 1 1152 3 view .LVU385
 1818              		.loc 1 1152 49 is_stmt 0 view .LVU386
 1819 000a 0F4B     		ldr	r3, .L182+4
 1820 000c 1B68     		ldr	r3, [r3]
 1821 000e 3222     		movs	r2, #50
 1822 0010 02FB03F3 		mul	r3, r2, r3
 1823              		.loc 1 1152 68 view .LVU387
 1824 0014 0D4A     		ldr	r2, .L182+8
 1825 0016 A2FB0323 		umull	r2, r3, r2, r3
 1826 001a 9B0C     		lsrs	r3, r3, #18
 1827              		.loc 1 1152 19 view .LVU388
 1828 001c 0133     		adds	r3, r3, #1
 1829              	.LVL97:
1153:Drivers/STM32L4xx_HAL_Driver/Src/stm32l4xx_hal_pwr_ex.c ****   while ((HAL_IS_BIT_SET(PWR->SR2, PWR_SR2_REGLPF)) && (wait_loop_index != 0U))
 1830              		.loc 1 1153 3 is_stmt 1 view .LVU389
 1831              		.loc 1 1153 9 is_stmt 0 view .LVU390
 1832 001e 00E0     		b	.L177
 1833              	.L179:
1154:Drivers/STM32L4xx_HAL_Driver/Src/stm32l4xx_hal_pwr_ex.c ****   {
1155:Drivers/STM32L4xx_HAL_Driver/Src/stm32l4xx_hal_pwr_ex.c ****     wait_loop_index--;
 1834              		.loc 1 1155 5 is_stmt 1 view .LVU391
 1835              		.loc 1 1155 20 is_stmt 0 view .LVU392
 1836 0020 013B     		subs	r3, r3, #1
 1837              	.LVL98:
 1838              	.L177:
1153:Drivers/STM32L4xx_HAL_Driver/Src/stm32l4xx_hal_pwr_ex.c ****   while ((HAL_IS_BIT_SET(PWR->SR2, PWR_SR2_REGLPF)) && (wait_loop_index != 0U))
 1839              		.loc 1 1153 53 is_stmt 1 view .LVU393
1153:Drivers/STM32L4xx_HAL_Driver/Src/stm32l4xx_hal_pwr_ex.c ****   while ((HAL_IS_BIT_SET(PWR->SR2, PWR_SR2_REGLPF)) && (wait_loop_index != 0U))
 1840              		.loc 1 1153 11 is_stmt 0 view .LVU394
 1841 0022 084A     		ldr	r2, .L182
 1842 0024 5269     		ldr	r2, [r2, #20]
1153:Drivers/STM32L4xx_HAL_Driver/Src/stm32l4xx_hal_pwr_ex.c ****   while ((HAL_IS_BIT_SET(PWR->SR2, PWR_SR2_REGLPF)) && (wait_loop_index != 0U))
 1843              		.loc 1 1153 53 view .LVU395
 1844 0026 12F4007F 		tst	r2, #512
 1845 002a 01D0     		beq	.L178
1153:Drivers/STM32L4xx_HAL_Driver/Src/stm32l4xx_hal_pwr_ex.c ****   while ((HAL_IS_BIT_SET(PWR->SR2, PWR_SR2_REGLPF)) && (wait_loop_index != 0U))
 1846              		.loc 1 1153 53 discriminator 1 view .LVU396
 1847 002c 002B     		cmp	r3, #0
 1848 002e F7D1     		bne	.L179
 1849              	.L178:
1156:Drivers/STM32L4xx_HAL_Driver/Src/stm32l4xx_hal_pwr_ex.c ****   }
1157:Drivers/STM32L4xx_HAL_Driver/Src/stm32l4xx_hal_pwr_ex.c ****   if (HAL_IS_BIT_SET(PWR->SR2, PWR_SR2_REGLPF))
 1850              		.loc 1 1157 3 is_stmt 1 view .LVU397
 1851              		.loc 1 1157 7 is_stmt 0 view .LVU398
 1852 0030 044B     		ldr	r3, .L182
 1853              	.LVL99:
 1854              		.loc 1 1157 7 view .LVU399
 1855 0032 5B69     		ldr	r3, [r3, #20]
 1856              		.loc 1 1157 6 view .LVU400
 1857 0034 13F4007F 		tst	r3, #512
ARM GAS  C:\Users\mathi\AppData\Local\Temp\cc6ocpEq.s 			page 55


 1858 0038 01D1     		bne	.L181
1158:Drivers/STM32L4xx_HAL_Driver/Src/stm32l4xx_hal_pwr_ex.c ****   {
1159:Drivers/STM32L4xx_HAL_Driver/Src/stm32l4xx_hal_pwr_ex.c ****     return HAL_TIMEOUT;
1160:Drivers/STM32L4xx_HAL_Driver/Src/stm32l4xx_hal_pwr_ex.c ****   }
1161:Drivers/STM32L4xx_HAL_Driver/Src/stm32l4xx_hal_pwr_ex.c **** 
1162:Drivers/STM32L4xx_HAL_Driver/Src/stm32l4xx_hal_pwr_ex.c ****   return HAL_OK;
 1859              		.loc 1 1162 10 view .LVU401
 1860 003a 0020     		movs	r0, #0
 1861 003c 7047     		bx	lr
 1862              	.L181:
1159:Drivers/STM32L4xx_HAL_Driver/Src/stm32l4xx_hal_pwr_ex.c ****   }
 1863              		.loc 1 1159 12 view .LVU402
 1864 003e 0320     		movs	r0, #3
1163:Drivers/STM32L4xx_HAL_Driver/Src/stm32l4xx_hal_pwr_ex.c **** }
 1865              		.loc 1 1163 1 view .LVU403
 1866 0040 7047     		bx	lr
 1867              	.L183:
 1868 0042 00BF     		.align	2
 1869              	.L182:
 1870 0044 00700040 		.word	1073770496
 1871 0048 00000000 		.word	SystemCoreClock
 1872 004c 83DE1B43 		.word	1125899907
 1873              		.cfi_endproc
 1874              	.LFE317:
 1876              		.section	.text.HAL_PWREx_EnterSTOP0Mode,"ax",%progbits
 1877              		.align	1
 1878              		.global	HAL_PWREx_EnterSTOP0Mode
 1879              		.syntax unified
 1880              		.thumb
 1881              		.thumb_func
 1883              	HAL_PWREx_EnterSTOP0Mode:
 1884              	.LVL100:
 1885              	.LFB318:
1164:Drivers/STM32L4xx_HAL_Driver/Src/stm32l4xx_hal_pwr_ex.c **** 
1165:Drivers/STM32L4xx_HAL_Driver/Src/stm32l4xx_hal_pwr_ex.c **** 
1166:Drivers/STM32L4xx_HAL_Driver/Src/stm32l4xx_hal_pwr_ex.c **** /**
1167:Drivers/STM32L4xx_HAL_Driver/Src/stm32l4xx_hal_pwr_ex.c ****   * @brief Enter Stop 0 mode.
1168:Drivers/STM32L4xx_HAL_Driver/Src/stm32l4xx_hal_pwr_ex.c ****   * @note  In Stop 0 mode, main and low voltage regulators are ON.
1169:Drivers/STM32L4xx_HAL_Driver/Src/stm32l4xx_hal_pwr_ex.c ****   * @note  In Stop 0 mode, all I/O pins keep the same state as in Run mode.
1170:Drivers/STM32L4xx_HAL_Driver/Src/stm32l4xx_hal_pwr_ex.c ****   * @note  All clocks in the VCORE domain are stopped; the PLL, the MSI,
1171:Drivers/STM32L4xx_HAL_Driver/Src/stm32l4xx_hal_pwr_ex.c ****   *        the HSI and the HSE oscillators are disabled. Some peripherals with the wakeup capabilit
1172:Drivers/STM32L4xx_HAL_Driver/Src/stm32l4xx_hal_pwr_ex.c ****   *        (I2Cx, USARTx and LPUART) can switch on the HSI to receive a frame, and switch off the H
1173:Drivers/STM32L4xx_HAL_Driver/Src/stm32l4xx_hal_pwr_ex.c ****   *        after receiving the frame if it is not a wakeup frame. In this case, the HSI clock is pr
1174:Drivers/STM32L4xx_HAL_Driver/Src/stm32l4xx_hal_pwr_ex.c ****   *        only to the peripheral requesting it.
1175:Drivers/STM32L4xx_HAL_Driver/Src/stm32l4xx_hal_pwr_ex.c ****   *        SRAM1, SRAM2 and register contents are preserved.
1176:Drivers/STM32L4xx_HAL_Driver/Src/stm32l4xx_hal_pwr_ex.c ****   *        The BOR is available.
1177:Drivers/STM32L4xx_HAL_Driver/Src/stm32l4xx_hal_pwr_ex.c ****   * @note  When exiting Stop 0 mode by issuing an interrupt or a wakeup event,
1178:Drivers/STM32L4xx_HAL_Driver/Src/stm32l4xx_hal_pwr_ex.c ****   *         the HSI RC oscillator is selected as system clock if STOPWUCK bit in RCC_CFGR register
1179:Drivers/STM32L4xx_HAL_Driver/Src/stm32l4xx_hal_pwr_ex.c ****   *         is set; the MSI oscillator is selected if STOPWUCK is cleared.
1180:Drivers/STM32L4xx_HAL_Driver/Src/stm32l4xx_hal_pwr_ex.c ****   * @note  By keeping the internal regulator ON during Stop 0 mode, the consumption
1181:Drivers/STM32L4xx_HAL_Driver/Src/stm32l4xx_hal_pwr_ex.c ****   *         is higher although the startup time is reduced.
1182:Drivers/STM32L4xx_HAL_Driver/Src/stm32l4xx_hal_pwr_ex.c ****   * @param STOPEntry  specifies if Stop mode in entered with WFI or WFE instruction.
1183:Drivers/STM32L4xx_HAL_Driver/Src/stm32l4xx_hal_pwr_ex.c ****   *          This parameter can be one of the following values:
1184:Drivers/STM32L4xx_HAL_Driver/Src/stm32l4xx_hal_pwr_ex.c ****   *            @arg @ref PWR_STOPENTRY_WFI  Enter Stop mode with WFI instruction
1185:Drivers/STM32L4xx_HAL_Driver/Src/stm32l4xx_hal_pwr_ex.c ****   *            @arg @ref PWR_STOPENTRY_WFE  Enter Stop mode with WFE instruction
1186:Drivers/STM32L4xx_HAL_Driver/Src/stm32l4xx_hal_pwr_ex.c ****   * @retval None
1187:Drivers/STM32L4xx_HAL_Driver/Src/stm32l4xx_hal_pwr_ex.c ****   */
ARM GAS  C:\Users\mathi\AppData\Local\Temp\cc6ocpEq.s 			page 56


1188:Drivers/STM32L4xx_HAL_Driver/Src/stm32l4xx_hal_pwr_ex.c **** void HAL_PWREx_EnterSTOP0Mode(uint8_t STOPEntry)
1189:Drivers/STM32L4xx_HAL_Driver/Src/stm32l4xx_hal_pwr_ex.c **** {
 1886              		.loc 1 1189 1 is_stmt 1 view -0
 1887              		.cfi_startproc
 1888              		@ args = 0, pretend = 0, frame = 0
 1889              		@ frame_needed = 0, uses_anonymous_args = 0
 1890              		.loc 1 1189 1 is_stmt 0 view .LVU405
 1891 0000 10B5     		push	{r4, lr}
 1892              		.cfi_def_cfa_offset 8
 1893              		.cfi_offset 4, -8
 1894              		.cfi_offset 14, -4
 1895 0002 0446     		mov	r4, r0
1190:Drivers/STM32L4xx_HAL_Driver/Src/stm32l4xx_hal_pwr_ex.c ****   /* Check the parameters */
1191:Drivers/STM32L4xx_HAL_Driver/Src/stm32l4xx_hal_pwr_ex.c ****   assert_param(IS_PWR_STOP_ENTRY(STOPEntry));
 1896              		.loc 1 1191 3 is_stmt 1 view .LVU406
 1897 0004 431E     		subs	r3, r0, #1
 1898 0006 DBB2     		uxtb	r3, r3
 1899 0008 012B     		cmp	r3, #1
 1900 000a 14D8     		bhi	.L189
 1901              	.LVL101:
 1902              	.L185:
1192:Drivers/STM32L4xx_HAL_Driver/Src/stm32l4xx_hal_pwr_ex.c **** 
1193:Drivers/STM32L4xx_HAL_Driver/Src/stm32l4xx_hal_pwr_ex.c ****   /* Stop 0 mode with Main Regulator */
1194:Drivers/STM32L4xx_HAL_Driver/Src/stm32l4xx_hal_pwr_ex.c ****   MODIFY_REG(PWR->CR1, PWR_CR1_LPMS, PWR_CR1_LPMS_STOP0);
 1903              		.loc 1 1194 3 view .LVU407
 1904 000c 0E4A     		ldr	r2, .L191
 1905 000e 1368     		ldr	r3, [r2]
 1906 0010 23F00703 		bic	r3, r3, #7
 1907 0014 1360     		str	r3, [r2]
1195:Drivers/STM32L4xx_HAL_Driver/Src/stm32l4xx_hal_pwr_ex.c **** 
1196:Drivers/STM32L4xx_HAL_Driver/Src/stm32l4xx_hal_pwr_ex.c ****   /* Set SLEEPDEEP bit of Cortex System Control Register */
1197:Drivers/STM32L4xx_HAL_Driver/Src/stm32l4xx_hal_pwr_ex.c ****   SET_BIT(SCB->SCR, ((uint32_t)SCB_SCR_SLEEPDEEP_Msk));
 1908              		.loc 1 1197 3 view .LVU408
 1909 0016 0D4A     		ldr	r2, .L191+4
 1910 0018 1369     		ldr	r3, [r2, #16]
 1911 001a 43F00403 		orr	r3, r3, #4
 1912 001e 1361     		str	r3, [r2, #16]
1198:Drivers/STM32L4xx_HAL_Driver/Src/stm32l4xx_hal_pwr_ex.c **** 
1199:Drivers/STM32L4xx_HAL_Driver/Src/stm32l4xx_hal_pwr_ex.c ****   /* Select Stop mode entry --------------------------------------------------*/
1200:Drivers/STM32L4xx_HAL_Driver/Src/stm32l4xx_hal_pwr_ex.c ****   if(STOPEntry == PWR_STOPENTRY_WFI)
 1913              		.loc 1 1200 3 view .LVU409
 1914              		.loc 1 1200 5 is_stmt 0 view .LVU410
 1915 0020 012C     		cmp	r4, #1
 1916 0022 0ED0     		beq	.L190
1201:Drivers/STM32L4xx_HAL_Driver/Src/stm32l4xx_hal_pwr_ex.c ****   {
1202:Drivers/STM32L4xx_HAL_Driver/Src/stm32l4xx_hal_pwr_ex.c ****     /* Request Wait For Interrupt */
1203:Drivers/STM32L4xx_HAL_Driver/Src/stm32l4xx_hal_pwr_ex.c ****     __WFI();
1204:Drivers/STM32L4xx_HAL_Driver/Src/stm32l4xx_hal_pwr_ex.c ****   }
1205:Drivers/STM32L4xx_HAL_Driver/Src/stm32l4xx_hal_pwr_ex.c ****   else
1206:Drivers/STM32L4xx_HAL_Driver/Src/stm32l4xx_hal_pwr_ex.c ****   {
1207:Drivers/STM32L4xx_HAL_Driver/Src/stm32l4xx_hal_pwr_ex.c ****     /* Request Wait For Event */
1208:Drivers/STM32L4xx_HAL_Driver/Src/stm32l4xx_hal_pwr_ex.c ****     __SEV();
 1917              		.loc 1 1208 5 is_stmt 1 view .LVU411
 1918              		.syntax unified
 1919              	@ 1208 "Drivers/STM32L4xx_HAL_Driver/Src/stm32l4xx_hal_pwr_ex.c" 1
 1920 0024 40BF     		sev
 1921              	@ 0 "" 2
ARM GAS  C:\Users\mathi\AppData\Local\Temp\cc6ocpEq.s 			page 57


1209:Drivers/STM32L4xx_HAL_Driver/Src/stm32l4xx_hal_pwr_ex.c ****     __WFE();
 1922              		.loc 1 1209 5 view .LVU412
 1923              	@ 1209 "Drivers/STM32L4xx_HAL_Driver/Src/stm32l4xx_hal_pwr_ex.c" 1
 1924 0026 20BF     		wfe
 1925              	@ 0 "" 2
1210:Drivers/STM32L4xx_HAL_Driver/Src/stm32l4xx_hal_pwr_ex.c ****     __WFE();
 1926              		.loc 1 1210 5 view .LVU413
 1927              	@ 1210 "Drivers/STM32L4xx_HAL_Driver/Src/stm32l4xx_hal_pwr_ex.c" 1
 1928 0028 20BF     		wfe
 1929              	@ 0 "" 2
 1930              		.thumb
 1931              		.syntax unified
 1932              	.L187:
1211:Drivers/STM32L4xx_HAL_Driver/Src/stm32l4xx_hal_pwr_ex.c ****   }
1212:Drivers/STM32L4xx_HAL_Driver/Src/stm32l4xx_hal_pwr_ex.c **** 
1213:Drivers/STM32L4xx_HAL_Driver/Src/stm32l4xx_hal_pwr_ex.c ****   /* Reset SLEEPDEEP bit of Cortex System Control Register */
1214:Drivers/STM32L4xx_HAL_Driver/Src/stm32l4xx_hal_pwr_ex.c ****   CLEAR_BIT(SCB->SCR, ((uint32_t)SCB_SCR_SLEEPDEEP_Msk));
 1933              		.loc 1 1214 3 view .LVU414
 1934 002a 084A     		ldr	r2, .L191+4
 1935 002c 1369     		ldr	r3, [r2, #16]
 1936 002e 23F00403 		bic	r3, r3, #4
 1937 0032 1361     		str	r3, [r2, #16]
1215:Drivers/STM32L4xx_HAL_Driver/Src/stm32l4xx_hal_pwr_ex.c **** }
 1938              		.loc 1 1215 1 is_stmt 0 view .LVU415
 1939 0034 10BD     		pop	{r4, pc}
 1940              	.LVL102:
 1941              	.L189:
1191:Drivers/STM32L4xx_HAL_Driver/Src/stm32l4xx_hal_pwr_ex.c **** 
 1942              		.loc 1 1191 3 discriminator 1 view .LVU416
 1943 0036 40F2A741 		movw	r1, #1191
 1944 003a 0548     		ldr	r0, .L191+8
 1945              	.LVL103:
1191:Drivers/STM32L4xx_HAL_Driver/Src/stm32l4xx_hal_pwr_ex.c **** 
 1946              		.loc 1 1191 3 discriminator 1 view .LVU417
 1947 003c FFF7FEFF 		bl	assert_failed
 1948              	.LVL104:
 1949 0040 E4E7     		b	.L185
 1950              	.L190:
1203:Drivers/STM32L4xx_HAL_Driver/Src/stm32l4xx_hal_pwr_ex.c ****   }
 1951              		.loc 1 1203 5 is_stmt 1 view .LVU418
 1952              		.syntax unified
 1953              	@ 1203 "Drivers/STM32L4xx_HAL_Driver/Src/stm32l4xx_hal_pwr_ex.c" 1
 1954 0042 30BF     		wfi
 1955              	@ 0 "" 2
 1956              		.thumb
 1957              		.syntax unified
 1958 0044 F1E7     		b	.L187
 1959              	.L192:
 1960 0046 00BF     		.align	2
 1961              	.L191:
 1962 0048 00700040 		.word	1073770496
 1963 004c 00ED00E0 		.word	-536810240
 1964 0050 00000000 		.word	.LC0
 1965              		.cfi_endproc
 1966              	.LFE318:
 1968              		.section	.text.HAL_PWREx_EnterSTOP1Mode,"ax",%progbits
 1969              		.align	1
ARM GAS  C:\Users\mathi\AppData\Local\Temp\cc6ocpEq.s 			page 58


 1970              		.global	HAL_PWREx_EnterSTOP1Mode
 1971              		.syntax unified
 1972              		.thumb
 1973              		.thumb_func
 1975              	HAL_PWREx_EnterSTOP1Mode:
 1976              	.LVL105:
 1977              	.LFB319:
1216:Drivers/STM32L4xx_HAL_Driver/Src/stm32l4xx_hal_pwr_ex.c **** 
1217:Drivers/STM32L4xx_HAL_Driver/Src/stm32l4xx_hal_pwr_ex.c **** 
1218:Drivers/STM32L4xx_HAL_Driver/Src/stm32l4xx_hal_pwr_ex.c **** /**
1219:Drivers/STM32L4xx_HAL_Driver/Src/stm32l4xx_hal_pwr_ex.c ****   * @brief Enter Stop 1 mode.
1220:Drivers/STM32L4xx_HAL_Driver/Src/stm32l4xx_hal_pwr_ex.c ****   * @note  In Stop 1 mode, only low power voltage regulator is ON.
1221:Drivers/STM32L4xx_HAL_Driver/Src/stm32l4xx_hal_pwr_ex.c ****   * @note  In Stop 1 mode, all I/O pins keep the same state as in Run mode.
1222:Drivers/STM32L4xx_HAL_Driver/Src/stm32l4xx_hal_pwr_ex.c ****   * @note  All clocks in the VCORE domain are stopped; the PLL, the MSI,
1223:Drivers/STM32L4xx_HAL_Driver/Src/stm32l4xx_hal_pwr_ex.c ****   *        the HSI and the HSE oscillators are disabled. Some peripherals with the wakeup capabilit
1224:Drivers/STM32L4xx_HAL_Driver/Src/stm32l4xx_hal_pwr_ex.c ****   *        (I2Cx, USARTx and LPUART) can switch on the HSI to receive a frame, and switch off the H
1225:Drivers/STM32L4xx_HAL_Driver/Src/stm32l4xx_hal_pwr_ex.c ****   *        after receiving the frame if it is not a wakeup frame. In this case, the HSI clock is pr
1226:Drivers/STM32L4xx_HAL_Driver/Src/stm32l4xx_hal_pwr_ex.c ****   *        only to the peripheral requesting it.
1227:Drivers/STM32L4xx_HAL_Driver/Src/stm32l4xx_hal_pwr_ex.c ****   *        SRAM1, SRAM2 and register contents are preserved.
1228:Drivers/STM32L4xx_HAL_Driver/Src/stm32l4xx_hal_pwr_ex.c ****   *        The BOR is available.
1229:Drivers/STM32L4xx_HAL_Driver/Src/stm32l4xx_hal_pwr_ex.c ****   * @note  When exiting Stop 1 mode by issuing an interrupt or a wakeup event,
1230:Drivers/STM32L4xx_HAL_Driver/Src/stm32l4xx_hal_pwr_ex.c ****   *         the HSI RC oscillator is selected as system clock if STOPWUCK bit in RCC_CFGR register
1231:Drivers/STM32L4xx_HAL_Driver/Src/stm32l4xx_hal_pwr_ex.c ****   *         is set; the MSI oscillator is selected if STOPWUCK is cleared.
1232:Drivers/STM32L4xx_HAL_Driver/Src/stm32l4xx_hal_pwr_ex.c ****   * @note  Due to low power mode, an additional startup delay is incurred when waking up from Stop 
1233:Drivers/STM32L4xx_HAL_Driver/Src/stm32l4xx_hal_pwr_ex.c ****   * @param STOPEntry  specifies if Stop mode in entered with WFI or WFE instruction.
1234:Drivers/STM32L4xx_HAL_Driver/Src/stm32l4xx_hal_pwr_ex.c ****   *          This parameter can be one of the following values:
1235:Drivers/STM32L4xx_HAL_Driver/Src/stm32l4xx_hal_pwr_ex.c ****   *            @arg @ref PWR_STOPENTRY_WFI  Enter Stop mode with WFI instruction
1236:Drivers/STM32L4xx_HAL_Driver/Src/stm32l4xx_hal_pwr_ex.c ****   *            @arg @ref PWR_STOPENTRY_WFE  Enter Stop mode with WFE instruction
1237:Drivers/STM32L4xx_HAL_Driver/Src/stm32l4xx_hal_pwr_ex.c ****   * @retval None
1238:Drivers/STM32L4xx_HAL_Driver/Src/stm32l4xx_hal_pwr_ex.c ****   */
1239:Drivers/STM32L4xx_HAL_Driver/Src/stm32l4xx_hal_pwr_ex.c **** void HAL_PWREx_EnterSTOP1Mode(uint8_t STOPEntry)
1240:Drivers/STM32L4xx_HAL_Driver/Src/stm32l4xx_hal_pwr_ex.c **** {
 1978              		.loc 1 1240 1 view -0
 1979              		.cfi_startproc
 1980              		@ args = 0, pretend = 0, frame = 0
 1981              		@ frame_needed = 0, uses_anonymous_args = 0
 1982              		.loc 1 1240 1 is_stmt 0 view .LVU420
 1983 0000 10B5     		push	{r4, lr}
 1984              		.cfi_def_cfa_offset 8
 1985              		.cfi_offset 4, -8
 1986              		.cfi_offset 14, -4
 1987 0002 0446     		mov	r4, r0
1241:Drivers/STM32L4xx_HAL_Driver/Src/stm32l4xx_hal_pwr_ex.c ****   /* Check the parameters */
1242:Drivers/STM32L4xx_HAL_Driver/Src/stm32l4xx_hal_pwr_ex.c ****   assert_param(IS_PWR_STOP_ENTRY(STOPEntry));
 1988              		.loc 1 1242 3 is_stmt 1 view .LVU421
 1989 0004 431E     		subs	r3, r0, #1
 1990 0006 DBB2     		uxtb	r3, r3
 1991 0008 012B     		cmp	r3, #1
 1992 000a 16D8     		bhi	.L198
 1993              	.LVL106:
 1994              	.L194:
1243:Drivers/STM32L4xx_HAL_Driver/Src/stm32l4xx_hal_pwr_ex.c **** 
1244:Drivers/STM32L4xx_HAL_Driver/Src/stm32l4xx_hal_pwr_ex.c ****   /* Stop 1 mode with Low-Power Regulator */
1245:Drivers/STM32L4xx_HAL_Driver/Src/stm32l4xx_hal_pwr_ex.c ****   MODIFY_REG(PWR->CR1, PWR_CR1_LPMS, PWR_CR1_LPMS_STOP1);
 1995              		.loc 1 1245 3 view .LVU422
 1996 000c 0F4A     		ldr	r2, .L200
 1997 000e 1368     		ldr	r3, [r2]
ARM GAS  C:\Users\mathi\AppData\Local\Temp\cc6ocpEq.s 			page 59


 1998 0010 23F00703 		bic	r3, r3, #7
 1999 0014 43F00103 		orr	r3, r3, #1
 2000 0018 1360     		str	r3, [r2]
1246:Drivers/STM32L4xx_HAL_Driver/Src/stm32l4xx_hal_pwr_ex.c **** 
1247:Drivers/STM32L4xx_HAL_Driver/Src/stm32l4xx_hal_pwr_ex.c ****   /* Set SLEEPDEEP bit of Cortex System Control Register */
1248:Drivers/STM32L4xx_HAL_Driver/Src/stm32l4xx_hal_pwr_ex.c ****   SET_BIT(SCB->SCR, ((uint32_t)SCB_SCR_SLEEPDEEP_Msk));
 2001              		.loc 1 1248 3 view .LVU423
 2002 001a 0D4A     		ldr	r2, .L200+4
 2003 001c 1369     		ldr	r3, [r2, #16]
 2004 001e 43F00403 		orr	r3, r3, #4
 2005 0022 1361     		str	r3, [r2, #16]
1249:Drivers/STM32L4xx_HAL_Driver/Src/stm32l4xx_hal_pwr_ex.c **** 
1250:Drivers/STM32L4xx_HAL_Driver/Src/stm32l4xx_hal_pwr_ex.c ****   /* Select Stop mode entry --------------------------------------------------*/
1251:Drivers/STM32L4xx_HAL_Driver/Src/stm32l4xx_hal_pwr_ex.c ****   if(STOPEntry == PWR_STOPENTRY_WFI)
 2006              		.loc 1 1251 3 view .LVU424
 2007              		.loc 1 1251 5 is_stmt 0 view .LVU425
 2008 0024 012C     		cmp	r4, #1
 2009 0026 0ED0     		beq	.L199
1252:Drivers/STM32L4xx_HAL_Driver/Src/stm32l4xx_hal_pwr_ex.c ****   {
1253:Drivers/STM32L4xx_HAL_Driver/Src/stm32l4xx_hal_pwr_ex.c ****     /* Request Wait For Interrupt */
1254:Drivers/STM32L4xx_HAL_Driver/Src/stm32l4xx_hal_pwr_ex.c ****     __WFI();
1255:Drivers/STM32L4xx_HAL_Driver/Src/stm32l4xx_hal_pwr_ex.c ****   }
1256:Drivers/STM32L4xx_HAL_Driver/Src/stm32l4xx_hal_pwr_ex.c ****   else
1257:Drivers/STM32L4xx_HAL_Driver/Src/stm32l4xx_hal_pwr_ex.c ****   {
1258:Drivers/STM32L4xx_HAL_Driver/Src/stm32l4xx_hal_pwr_ex.c ****     /* Request Wait For Event */
1259:Drivers/STM32L4xx_HAL_Driver/Src/stm32l4xx_hal_pwr_ex.c ****     __SEV();
 2010              		.loc 1 1259 5 is_stmt 1 view .LVU426
 2011              		.syntax unified
 2012              	@ 1259 "Drivers/STM32L4xx_HAL_Driver/Src/stm32l4xx_hal_pwr_ex.c" 1
 2013 0028 40BF     		sev
 2014              	@ 0 "" 2
1260:Drivers/STM32L4xx_HAL_Driver/Src/stm32l4xx_hal_pwr_ex.c ****     __WFE();
 2015              		.loc 1 1260 5 view .LVU427
 2016              	@ 1260 "Drivers/STM32L4xx_HAL_Driver/Src/stm32l4xx_hal_pwr_ex.c" 1
 2017 002a 20BF     		wfe
 2018              	@ 0 "" 2
1261:Drivers/STM32L4xx_HAL_Driver/Src/stm32l4xx_hal_pwr_ex.c ****     __WFE();
 2019              		.loc 1 1261 5 view .LVU428
 2020              	@ 1261 "Drivers/STM32L4xx_HAL_Driver/Src/stm32l4xx_hal_pwr_ex.c" 1
 2021 002c 20BF     		wfe
 2022              	@ 0 "" 2
 2023              		.thumb
 2024              		.syntax unified
 2025              	.L196:
1262:Drivers/STM32L4xx_HAL_Driver/Src/stm32l4xx_hal_pwr_ex.c ****   }
1263:Drivers/STM32L4xx_HAL_Driver/Src/stm32l4xx_hal_pwr_ex.c **** 
1264:Drivers/STM32L4xx_HAL_Driver/Src/stm32l4xx_hal_pwr_ex.c ****   /* Reset SLEEPDEEP bit of Cortex System Control Register */
1265:Drivers/STM32L4xx_HAL_Driver/Src/stm32l4xx_hal_pwr_ex.c ****   CLEAR_BIT(SCB->SCR, ((uint32_t)SCB_SCR_SLEEPDEEP_Msk));
 2026              		.loc 1 1265 3 view .LVU429
 2027 002e 084A     		ldr	r2, .L200+4
 2028 0030 1369     		ldr	r3, [r2, #16]
 2029 0032 23F00403 		bic	r3, r3, #4
 2030 0036 1361     		str	r3, [r2, #16]
1266:Drivers/STM32L4xx_HAL_Driver/Src/stm32l4xx_hal_pwr_ex.c **** }
 2031              		.loc 1 1266 1 is_stmt 0 view .LVU430
 2032 0038 10BD     		pop	{r4, pc}
 2033              	.LVL107:
ARM GAS  C:\Users\mathi\AppData\Local\Temp\cc6ocpEq.s 			page 60


 2034              	.L198:
1242:Drivers/STM32L4xx_HAL_Driver/Src/stm32l4xx_hal_pwr_ex.c **** 
 2035              		.loc 1 1242 3 discriminator 1 view .LVU431
 2036 003a 40F2DA41 		movw	r1, #1242
 2037 003e 0548     		ldr	r0, .L200+8
 2038              	.LVL108:
1242:Drivers/STM32L4xx_HAL_Driver/Src/stm32l4xx_hal_pwr_ex.c **** 
 2039              		.loc 1 1242 3 discriminator 1 view .LVU432
 2040 0040 FFF7FEFF 		bl	assert_failed
 2041              	.LVL109:
 2042 0044 E2E7     		b	.L194
 2043              	.L199:
1254:Drivers/STM32L4xx_HAL_Driver/Src/stm32l4xx_hal_pwr_ex.c ****   }
 2044              		.loc 1 1254 5 is_stmt 1 view .LVU433
 2045              		.syntax unified
 2046              	@ 1254 "Drivers/STM32L4xx_HAL_Driver/Src/stm32l4xx_hal_pwr_ex.c" 1
 2047 0046 30BF     		wfi
 2048              	@ 0 "" 2
 2049              		.thumb
 2050              		.syntax unified
 2051 0048 F1E7     		b	.L196
 2052              	.L201:
 2053 004a 00BF     		.align	2
 2054              	.L200:
 2055 004c 00700040 		.word	1073770496
 2056 0050 00ED00E0 		.word	-536810240
 2057 0054 00000000 		.word	.LC0
 2058              		.cfi_endproc
 2059              	.LFE319:
 2061              		.section	.text.HAL_PWREx_EnterSTOP2Mode,"ax",%progbits
 2062              		.align	1
 2063              		.global	HAL_PWREx_EnterSTOP2Mode
 2064              		.syntax unified
 2065              		.thumb
 2066              		.thumb_func
 2068              	HAL_PWREx_EnterSTOP2Mode:
 2069              	.LVL110:
 2070              	.LFB320:
1267:Drivers/STM32L4xx_HAL_Driver/Src/stm32l4xx_hal_pwr_ex.c **** 
1268:Drivers/STM32L4xx_HAL_Driver/Src/stm32l4xx_hal_pwr_ex.c **** 
1269:Drivers/STM32L4xx_HAL_Driver/Src/stm32l4xx_hal_pwr_ex.c **** /**
1270:Drivers/STM32L4xx_HAL_Driver/Src/stm32l4xx_hal_pwr_ex.c ****   * @brief Enter Stop 2 mode.
1271:Drivers/STM32L4xx_HAL_Driver/Src/stm32l4xx_hal_pwr_ex.c ****   * @note  In Stop 2 mode, only low power voltage regulator is ON.
1272:Drivers/STM32L4xx_HAL_Driver/Src/stm32l4xx_hal_pwr_ex.c ****   * @note  In Stop 2 mode, all I/O pins keep the same state as in Run mode.
1273:Drivers/STM32L4xx_HAL_Driver/Src/stm32l4xx_hal_pwr_ex.c ****   * @note  All clocks in the VCORE domain are stopped, the PLL, the MSI,
1274:Drivers/STM32L4xx_HAL_Driver/Src/stm32l4xx_hal_pwr_ex.c ****   *        the HSI and the HSE oscillators are disabled. Some peripherals with wakeup capability
1275:Drivers/STM32L4xx_HAL_Driver/Src/stm32l4xx_hal_pwr_ex.c ****   *        (LCD, LPTIM1, I2C3 and LPUART) can switch on the HSI to receive a frame, and switch off 
1276:Drivers/STM32L4xx_HAL_Driver/Src/stm32l4xx_hal_pwr_ex.c ****   *        receiving the frame if it is not a wakeup frame. In this case the HSI clock is propagate
1277:Drivers/STM32L4xx_HAL_Driver/Src/stm32l4xx_hal_pwr_ex.c ****   *        to the peripheral requesting it.
1278:Drivers/STM32L4xx_HAL_Driver/Src/stm32l4xx_hal_pwr_ex.c ****   *        SRAM1, SRAM2 and register contents are preserved.
1279:Drivers/STM32L4xx_HAL_Driver/Src/stm32l4xx_hal_pwr_ex.c ****   *        SRAM3 content is preserved depending on RRSTP bit setting (not available on all devices)
1280:Drivers/STM32L4xx_HAL_Driver/Src/stm32l4xx_hal_pwr_ex.c ****   *        The BOR is available.
1281:Drivers/STM32L4xx_HAL_Driver/Src/stm32l4xx_hal_pwr_ex.c ****   *        The voltage regulator is set in low-power mode but LPR bit must be cleared to enter stop
1282:Drivers/STM32L4xx_HAL_Driver/Src/stm32l4xx_hal_pwr_ex.c ****   *        Otherwise, Stop 1 mode is entered.
1283:Drivers/STM32L4xx_HAL_Driver/Src/stm32l4xx_hal_pwr_ex.c ****   * @note  When exiting Stop 2 mode by issuing an interrupt or a wakeup event,
1284:Drivers/STM32L4xx_HAL_Driver/Src/stm32l4xx_hal_pwr_ex.c ****   *         the HSI RC oscillator is selected as system clock if STOPWUCK bit in RCC_CFGR register
1285:Drivers/STM32L4xx_HAL_Driver/Src/stm32l4xx_hal_pwr_ex.c ****   *         is set; the MSI oscillator is selected if STOPWUCK is cleared.
ARM GAS  C:\Users\mathi\AppData\Local\Temp\cc6ocpEq.s 			page 61


1286:Drivers/STM32L4xx_HAL_Driver/Src/stm32l4xx_hal_pwr_ex.c ****   * @param STOPEntry  specifies if Stop mode in entered with WFI or WFE instruction.
1287:Drivers/STM32L4xx_HAL_Driver/Src/stm32l4xx_hal_pwr_ex.c ****   *          This parameter can be one of the following values:
1288:Drivers/STM32L4xx_HAL_Driver/Src/stm32l4xx_hal_pwr_ex.c ****   *            @arg @ref PWR_STOPENTRY_WFI  Enter Stop mode with WFI instruction
1289:Drivers/STM32L4xx_HAL_Driver/Src/stm32l4xx_hal_pwr_ex.c ****   *            @arg @ref PWR_STOPENTRY_WFE  Enter Stop mode with WFE instruction
1290:Drivers/STM32L4xx_HAL_Driver/Src/stm32l4xx_hal_pwr_ex.c ****   * @retval None
1291:Drivers/STM32L4xx_HAL_Driver/Src/stm32l4xx_hal_pwr_ex.c ****   */
1292:Drivers/STM32L4xx_HAL_Driver/Src/stm32l4xx_hal_pwr_ex.c **** void HAL_PWREx_EnterSTOP2Mode(uint8_t STOPEntry)
1293:Drivers/STM32L4xx_HAL_Driver/Src/stm32l4xx_hal_pwr_ex.c **** {
 2071              		.loc 1 1293 1 view -0
 2072              		.cfi_startproc
 2073              		@ args = 0, pretend = 0, frame = 0
 2074              		@ frame_needed = 0, uses_anonymous_args = 0
 2075              		.loc 1 1293 1 is_stmt 0 view .LVU435
 2076 0000 10B5     		push	{r4, lr}
 2077              		.cfi_def_cfa_offset 8
 2078              		.cfi_offset 4, -8
 2079              		.cfi_offset 14, -4
 2080 0002 0446     		mov	r4, r0
1294:Drivers/STM32L4xx_HAL_Driver/Src/stm32l4xx_hal_pwr_ex.c ****   /* Check the parameter */
1295:Drivers/STM32L4xx_HAL_Driver/Src/stm32l4xx_hal_pwr_ex.c ****   assert_param(IS_PWR_STOP_ENTRY(STOPEntry));
 2081              		.loc 1 1295 3 is_stmt 1 view .LVU436
 2082 0004 431E     		subs	r3, r0, #1
 2083 0006 DBB2     		uxtb	r3, r3
 2084 0008 012B     		cmp	r3, #1
 2085 000a 16D8     		bhi	.L207
 2086              	.LVL111:
 2087              	.L203:
1296:Drivers/STM32L4xx_HAL_Driver/Src/stm32l4xx_hal_pwr_ex.c **** 
1297:Drivers/STM32L4xx_HAL_Driver/Src/stm32l4xx_hal_pwr_ex.c ****   /* Set Stop mode 2 */
1298:Drivers/STM32L4xx_HAL_Driver/Src/stm32l4xx_hal_pwr_ex.c ****   MODIFY_REG(PWR->CR1, PWR_CR1_LPMS, PWR_CR1_LPMS_STOP2);
 2088              		.loc 1 1298 3 view .LVU437
 2089 000c 0F4A     		ldr	r2, .L209
 2090 000e 1368     		ldr	r3, [r2]
 2091 0010 23F00703 		bic	r3, r3, #7
 2092 0014 43F00203 		orr	r3, r3, #2
 2093 0018 1360     		str	r3, [r2]
1299:Drivers/STM32L4xx_HAL_Driver/Src/stm32l4xx_hal_pwr_ex.c **** 
1300:Drivers/STM32L4xx_HAL_Driver/Src/stm32l4xx_hal_pwr_ex.c ****   /* Set SLEEPDEEP bit of Cortex System Control Register */
1301:Drivers/STM32L4xx_HAL_Driver/Src/stm32l4xx_hal_pwr_ex.c ****   SET_BIT(SCB->SCR, ((uint32_t)SCB_SCR_SLEEPDEEP_Msk));
 2094              		.loc 1 1301 3 view .LVU438
 2095 001a 0D4A     		ldr	r2, .L209+4
 2096 001c 1369     		ldr	r3, [r2, #16]
 2097 001e 43F00403 		orr	r3, r3, #4
 2098 0022 1361     		str	r3, [r2, #16]
1302:Drivers/STM32L4xx_HAL_Driver/Src/stm32l4xx_hal_pwr_ex.c **** 
1303:Drivers/STM32L4xx_HAL_Driver/Src/stm32l4xx_hal_pwr_ex.c ****   /* Select Stop mode entry --------------------------------------------------*/
1304:Drivers/STM32L4xx_HAL_Driver/Src/stm32l4xx_hal_pwr_ex.c ****   if(STOPEntry == PWR_STOPENTRY_WFI)
 2099              		.loc 1 1304 3 view .LVU439
 2100              		.loc 1 1304 5 is_stmt 0 view .LVU440
 2101 0024 012C     		cmp	r4, #1
 2102 0026 0ED0     		beq	.L208
1305:Drivers/STM32L4xx_HAL_Driver/Src/stm32l4xx_hal_pwr_ex.c ****   {
1306:Drivers/STM32L4xx_HAL_Driver/Src/stm32l4xx_hal_pwr_ex.c ****     /* Request Wait For Interrupt */
1307:Drivers/STM32L4xx_HAL_Driver/Src/stm32l4xx_hal_pwr_ex.c ****     __WFI();
1308:Drivers/STM32L4xx_HAL_Driver/Src/stm32l4xx_hal_pwr_ex.c ****   }
1309:Drivers/STM32L4xx_HAL_Driver/Src/stm32l4xx_hal_pwr_ex.c ****   else
1310:Drivers/STM32L4xx_HAL_Driver/Src/stm32l4xx_hal_pwr_ex.c ****   {
ARM GAS  C:\Users\mathi\AppData\Local\Temp\cc6ocpEq.s 			page 62


1311:Drivers/STM32L4xx_HAL_Driver/Src/stm32l4xx_hal_pwr_ex.c ****     /* Request Wait For Event */
1312:Drivers/STM32L4xx_HAL_Driver/Src/stm32l4xx_hal_pwr_ex.c ****     __SEV();
 2103              		.loc 1 1312 5 is_stmt 1 view .LVU441
 2104              		.syntax unified
 2105              	@ 1312 "Drivers/STM32L4xx_HAL_Driver/Src/stm32l4xx_hal_pwr_ex.c" 1
 2106 0028 40BF     		sev
 2107              	@ 0 "" 2
1313:Drivers/STM32L4xx_HAL_Driver/Src/stm32l4xx_hal_pwr_ex.c ****     __WFE();
 2108              		.loc 1 1313 5 view .LVU442
 2109              	@ 1313 "Drivers/STM32L4xx_HAL_Driver/Src/stm32l4xx_hal_pwr_ex.c" 1
 2110 002a 20BF     		wfe
 2111              	@ 0 "" 2
1314:Drivers/STM32L4xx_HAL_Driver/Src/stm32l4xx_hal_pwr_ex.c ****     __WFE();
 2112              		.loc 1 1314 5 view .LVU443
 2113              	@ 1314 "Drivers/STM32L4xx_HAL_Driver/Src/stm32l4xx_hal_pwr_ex.c" 1
 2114 002c 20BF     		wfe
 2115              	@ 0 "" 2
 2116              		.thumb
 2117              		.syntax unified
 2118              	.L205:
1315:Drivers/STM32L4xx_HAL_Driver/Src/stm32l4xx_hal_pwr_ex.c ****   }
1316:Drivers/STM32L4xx_HAL_Driver/Src/stm32l4xx_hal_pwr_ex.c **** 
1317:Drivers/STM32L4xx_HAL_Driver/Src/stm32l4xx_hal_pwr_ex.c ****   /* Reset SLEEPDEEP bit of Cortex System Control Register */
1318:Drivers/STM32L4xx_HAL_Driver/Src/stm32l4xx_hal_pwr_ex.c ****   CLEAR_BIT(SCB->SCR, ((uint32_t)SCB_SCR_SLEEPDEEP_Msk));
 2119              		.loc 1 1318 3 view .LVU444
 2120 002e 084A     		ldr	r2, .L209+4
 2121 0030 1369     		ldr	r3, [r2, #16]
 2122 0032 23F00403 		bic	r3, r3, #4
 2123 0036 1361     		str	r3, [r2, #16]
1319:Drivers/STM32L4xx_HAL_Driver/Src/stm32l4xx_hal_pwr_ex.c **** }
 2124              		.loc 1 1319 1 is_stmt 0 view .LVU445
 2125 0038 10BD     		pop	{r4, pc}
 2126              	.LVL112:
 2127              	.L207:
1295:Drivers/STM32L4xx_HAL_Driver/Src/stm32l4xx_hal_pwr_ex.c **** 
 2128              		.loc 1 1295 3 discriminator 1 view .LVU446
 2129 003a 40F20F51 		movw	r1, #1295
 2130 003e 0548     		ldr	r0, .L209+8
 2131              	.LVL113:
1295:Drivers/STM32L4xx_HAL_Driver/Src/stm32l4xx_hal_pwr_ex.c **** 
 2132              		.loc 1 1295 3 discriminator 1 view .LVU447
 2133 0040 FFF7FEFF 		bl	assert_failed
 2134              	.LVL114:
 2135 0044 E2E7     		b	.L203
 2136              	.L208:
1307:Drivers/STM32L4xx_HAL_Driver/Src/stm32l4xx_hal_pwr_ex.c ****   }
 2137              		.loc 1 1307 5 is_stmt 1 view .LVU448
 2138              		.syntax unified
 2139              	@ 1307 "Drivers/STM32L4xx_HAL_Driver/Src/stm32l4xx_hal_pwr_ex.c" 1
 2140 0046 30BF     		wfi
 2141              	@ 0 "" 2
 2142              		.thumb
 2143              		.syntax unified
 2144 0048 F1E7     		b	.L205
 2145              	.L210:
 2146 004a 00BF     		.align	2
 2147              	.L209:
ARM GAS  C:\Users\mathi\AppData\Local\Temp\cc6ocpEq.s 			page 63


 2148 004c 00700040 		.word	1073770496
 2149 0050 00ED00E0 		.word	-536810240
 2150 0054 00000000 		.word	.LC0
 2151              		.cfi_endproc
 2152              	.LFE320:
 2154              		.section	.text.HAL_PWREx_EnterSHUTDOWNMode,"ax",%progbits
 2155              		.align	1
 2156              		.global	HAL_PWREx_EnterSHUTDOWNMode
 2157              		.syntax unified
 2158              		.thumb
 2159              		.thumb_func
 2161              	HAL_PWREx_EnterSHUTDOWNMode:
 2162              	.LFB321:
1320:Drivers/STM32L4xx_HAL_Driver/Src/stm32l4xx_hal_pwr_ex.c **** 
1321:Drivers/STM32L4xx_HAL_Driver/Src/stm32l4xx_hal_pwr_ex.c **** 
1322:Drivers/STM32L4xx_HAL_Driver/Src/stm32l4xx_hal_pwr_ex.c **** 
1323:Drivers/STM32L4xx_HAL_Driver/Src/stm32l4xx_hal_pwr_ex.c **** 
1324:Drivers/STM32L4xx_HAL_Driver/Src/stm32l4xx_hal_pwr_ex.c **** 
1325:Drivers/STM32L4xx_HAL_Driver/Src/stm32l4xx_hal_pwr_ex.c **** /**
1326:Drivers/STM32L4xx_HAL_Driver/Src/stm32l4xx_hal_pwr_ex.c ****   * @brief Enter Shutdown mode.
1327:Drivers/STM32L4xx_HAL_Driver/Src/stm32l4xx_hal_pwr_ex.c ****   * @note  In Shutdown mode, the PLL, the HSI, the MSI, the LSI and the HSE oscillators are switche
1328:Drivers/STM32L4xx_HAL_Driver/Src/stm32l4xx_hal_pwr_ex.c ****   *        off. The voltage regulator is disabled and Vcore domain is powered off.
1329:Drivers/STM32L4xx_HAL_Driver/Src/stm32l4xx_hal_pwr_ex.c ****   *        SRAM1, SRAM2 and registers contents are lost except for registers in the Backup domain.
1330:Drivers/STM32L4xx_HAL_Driver/Src/stm32l4xx_hal_pwr_ex.c ****   *        The BOR is not available.
1331:Drivers/STM32L4xx_HAL_Driver/Src/stm32l4xx_hal_pwr_ex.c ****   * @note  The I/Os can be configured either with a pull-up or pull-down or can be kept in analog s
1332:Drivers/STM32L4xx_HAL_Driver/Src/stm32l4xx_hal_pwr_ex.c ****   * @retval None
1333:Drivers/STM32L4xx_HAL_Driver/Src/stm32l4xx_hal_pwr_ex.c ****   */
1334:Drivers/STM32L4xx_HAL_Driver/Src/stm32l4xx_hal_pwr_ex.c **** void HAL_PWREx_EnterSHUTDOWNMode(void)
1335:Drivers/STM32L4xx_HAL_Driver/Src/stm32l4xx_hal_pwr_ex.c **** {
 2163              		.loc 1 1335 1 view -0
 2164              		.cfi_startproc
 2165              		@ args = 0, pretend = 0, frame = 0
 2166              		@ frame_needed = 0, uses_anonymous_args = 0
 2167              		@ link register save eliminated.
1336:Drivers/STM32L4xx_HAL_Driver/Src/stm32l4xx_hal_pwr_ex.c **** 
1337:Drivers/STM32L4xx_HAL_Driver/Src/stm32l4xx_hal_pwr_ex.c ****   /* Set Shutdown mode */
1338:Drivers/STM32L4xx_HAL_Driver/Src/stm32l4xx_hal_pwr_ex.c ****   MODIFY_REG(PWR->CR1, PWR_CR1_LPMS, PWR_CR1_LPMS_SHUTDOWN);
 2168              		.loc 1 1338 3 view .LVU450
 2169 0000 064A     		ldr	r2, .L212
 2170 0002 1368     		ldr	r3, [r2]
 2171 0004 23F00703 		bic	r3, r3, #7
 2172 0008 43F00403 		orr	r3, r3, #4
 2173 000c 1360     		str	r3, [r2]
1339:Drivers/STM32L4xx_HAL_Driver/Src/stm32l4xx_hal_pwr_ex.c **** 
1340:Drivers/STM32L4xx_HAL_Driver/Src/stm32l4xx_hal_pwr_ex.c ****   /* Set SLEEPDEEP bit of Cortex System Control Register */
1341:Drivers/STM32L4xx_HAL_Driver/Src/stm32l4xx_hal_pwr_ex.c ****   SET_BIT(SCB->SCR, ((uint32_t)SCB_SCR_SLEEPDEEP_Msk));
 2174              		.loc 1 1341 3 view .LVU451
 2175 000e 044A     		ldr	r2, .L212+4
 2176 0010 1369     		ldr	r3, [r2, #16]
 2177 0012 43F00403 		orr	r3, r3, #4
 2178 0016 1361     		str	r3, [r2, #16]
1342:Drivers/STM32L4xx_HAL_Driver/Src/stm32l4xx_hal_pwr_ex.c **** 
1343:Drivers/STM32L4xx_HAL_Driver/Src/stm32l4xx_hal_pwr_ex.c **** /* This option is used to ensure that store operations are completed */
1344:Drivers/STM32L4xx_HAL_Driver/Src/stm32l4xx_hal_pwr_ex.c **** #if defined ( __CC_ARM)
1345:Drivers/STM32L4xx_HAL_Driver/Src/stm32l4xx_hal_pwr_ex.c ****   __force_stores();
1346:Drivers/STM32L4xx_HAL_Driver/Src/stm32l4xx_hal_pwr_ex.c **** #endif
1347:Drivers/STM32L4xx_HAL_Driver/Src/stm32l4xx_hal_pwr_ex.c ****   /* Request Wait For Interrupt */
ARM GAS  C:\Users\mathi\AppData\Local\Temp\cc6ocpEq.s 			page 64


1348:Drivers/STM32L4xx_HAL_Driver/Src/stm32l4xx_hal_pwr_ex.c ****   __WFI();
 2179              		.loc 1 1348 3 view .LVU452
 2180              		.syntax unified
 2181              	@ 1348 "Drivers/STM32L4xx_HAL_Driver/Src/stm32l4xx_hal_pwr_ex.c" 1
 2182 0018 30BF     		wfi
 2183              	@ 0 "" 2
1349:Drivers/STM32L4xx_HAL_Driver/Src/stm32l4xx_hal_pwr_ex.c **** }
 2184              		.loc 1 1349 1 is_stmt 0 view .LVU453
 2185              		.thumb
 2186              		.syntax unified
 2187 001a 7047     		bx	lr
 2188              	.L213:
 2189              		.align	2
 2190              	.L212:
 2191 001c 00700040 		.word	1073770496
 2192 0020 00ED00E0 		.word	-536810240
 2193              		.cfi_endproc
 2194              	.LFE321:
 2196              		.section	.text.HAL_PWREx_PVM1Callback,"ax",%progbits
 2197              		.align	1
 2198              		.weak	HAL_PWREx_PVM1Callback
 2199              		.syntax unified
 2200              		.thumb
 2201              		.thumb_func
 2203              	HAL_PWREx_PVM1Callback:
 2204              	.LFB323:
1350:Drivers/STM32L4xx_HAL_Driver/Src/stm32l4xx_hal_pwr_ex.c **** 
1351:Drivers/STM32L4xx_HAL_Driver/Src/stm32l4xx_hal_pwr_ex.c **** 
1352:Drivers/STM32L4xx_HAL_Driver/Src/stm32l4xx_hal_pwr_ex.c **** 
1353:Drivers/STM32L4xx_HAL_Driver/Src/stm32l4xx_hal_pwr_ex.c **** 
1354:Drivers/STM32L4xx_HAL_Driver/Src/stm32l4xx_hal_pwr_ex.c **** /**
1355:Drivers/STM32L4xx_HAL_Driver/Src/stm32l4xx_hal_pwr_ex.c ****   * @brief This function handles the PWR PVD/PVMx interrupt request.
1356:Drivers/STM32L4xx_HAL_Driver/Src/stm32l4xx_hal_pwr_ex.c ****   * @note This API should be called under the PVD_PVM_IRQHandler().
1357:Drivers/STM32L4xx_HAL_Driver/Src/stm32l4xx_hal_pwr_ex.c ****   * @retval None
1358:Drivers/STM32L4xx_HAL_Driver/Src/stm32l4xx_hal_pwr_ex.c ****   */
1359:Drivers/STM32L4xx_HAL_Driver/Src/stm32l4xx_hal_pwr_ex.c **** void HAL_PWREx_PVD_PVM_IRQHandler(void)
1360:Drivers/STM32L4xx_HAL_Driver/Src/stm32l4xx_hal_pwr_ex.c **** {
1361:Drivers/STM32L4xx_HAL_Driver/Src/stm32l4xx_hal_pwr_ex.c ****   /* Check PWR exti flag */
1362:Drivers/STM32L4xx_HAL_Driver/Src/stm32l4xx_hal_pwr_ex.c ****   if(__HAL_PWR_PVD_EXTI_GET_FLAG() != 0x0U)
1363:Drivers/STM32L4xx_HAL_Driver/Src/stm32l4xx_hal_pwr_ex.c ****   {
1364:Drivers/STM32L4xx_HAL_Driver/Src/stm32l4xx_hal_pwr_ex.c ****     /* PWR PVD interrupt user callback */
1365:Drivers/STM32L4xx_HAL_Driver/Src/stm32l4xx_hal_pwr_ex.c ****     HAL_PWR_PVDCallback();
1366:Drivers/STM32L4xx_HAL_Driver/Src/stm32l4xx_hal_pwr_ex.c **** 
1367:Drivers/STM32L4xx_HAL_Driver/Src/stm32l4xx_hal_pwr_ex.c ****     /* Clear PVD exti pending bit */
1368:Drivers/STM32L4xx_HAL_Driver/Src/stm32l4xx_hal_pwr_ex.c ****     __HAL_PWR_PVD_EXTI_CLEAR_FLAG();
1369:Drivers/STM32L4xx_HAL_Driver/Src/stm32l4xx_hal_pwr_ex.c ****   }
1370:Drivers/STM32L4xx_HAL_Driver/Src/stm32l4xx_hal_pwr_ex.c ****   /* Next, successively check PVMx exti flags */
1371:Drivers/STM32L4xx_HAL_Driver/Src/stm32l4xx_hal_pwr_ex.c **** #if defined(PWR_CR2_PVME1)
1372:Drivers/STM32L4xx_HAL_Driver/Src/stm32l4xx_hal_pwr_ex.c ****   if(__HAL_PWR_PVM1_EXTI_GET_FLAG() != 0x0U)
1373:Drivers/STM32L4xx_HAL_Driver/Src/stm32l4xx_hal_pwr_ex.c ****   {
1374:Drivers/STM32L4xx_HAL_Driver/Src/stm32l4xx_hal_pwr_ex.c ****     /* PWR PVM1 interrupt user callback */
1375:Drivers/STM32L4xx_HAL_Driver/Src/stm32l4xx_hal_pwr_ex.c ****     HAL_PWREx_PVM1Callback();
1376:Drivers/STM32L4xx_HAL_Driver/Src/stm32l4xx_hal_pwr_ex.c **** 
1377:Drivers/STM32L4xx_HAL_Driver/Src/stm32l4xx_hal_pwr_ex.c ****     /* Clear PVM1 exti pending bit */
1378:Drivers/STM32L4xx_HAL_Driver/Src/stm32l4xx_hal_pwr_ex.c ****     __HAL_PWR_PVM1_EXTI_CLEAR_FLAG();
1379:Drivers/STM32L4xx_HAL_Driver/Src/stm32l4xx_hal_pwr_ex.c ****   }
1380:Drivers/STM32L4xx_HAL_Driver/Src/stm32l4xx_hal_pwr_ex.c **** #endif /* PWR_CR2_PVME1 */
ARM GAS  C:\Users\mathi\AppData\Local\Temp\cc6ocpEq.s 			page 65


1381:Drivers/STM32L4xx_HAL_Driver/Src/stm32l4xx_hal_pwr_ex.c **** #if defined(PWR_CR2_PVME2)
1382:Drivers/STM32L4xx_HAL_Driver/Src/stm32l4xx_hal_pwr_ex.c ****   if(__HAL_PWR_PVM2_EXTI_GET_FLAG() != 0x0U)
1383:Drivers/STM32L4xx_HAL_Driver/Src/stm32l4xx_hal_pwr_ex.c ****   {
1384:Drivers/STM32L4xx_HAL_Driver/Src/stm32l4xx_hal_pwr_ex.c ****     /* PWR PVM2 interrupt user callback */
1385:Drivers/STM32L4xx_HAL_Driver/Src/stm32l4xx_hal_pwr_ex.c ****     HAL_PWREx_PVM2Callback();
1386:Drivers/STM32L4xx_HAL_Driver/Src/stm32l4xx_hal_pwr_ex.c **** 
1387:Drivers/STM32L4xx_HAL_Driver/Src/stm32l4xx_hal_pwr_ex.c ****     /* Clear PVM2 exti pending bit */
1388:Drivers/STM32L4xx_HAL_Driver/Src/stm32l4xx_hal_pwr_ex.c ****     __HAL_PWR_PVM2_EXTI_CLEAR_FLAG();
1389:Drivers/STM32L4xx_HAL_Driver/Src/stm32l4xx_hal_pwr_ex.c ****   }
1390:Drivers/STM32L4xx_HAL_Driver/Src/stm32l4xx_hal_pwr_ex.c **** #endif /* PWR_CR2_PVME2 */
1391:Drivers/STM32L4xx_HAL_Driver/Src/stm32l4xx_hal_pwr_ex.c ****   if(__HAL_PWR_PVM3_EXTI_GET_FLAG() != 0x0U)
1392:Drivers/STM32L4xx_HAL_Driver/Src/stm32l4xx_hal_pwr_ex.c ****   {
1393:Drivers/STM32L4xx_HAL_Driver/Src/stm32l4xx_hal_pwr_ex.c ****     /* PWR PVM3 interrupt user callback */
1394:Drivers/STM32L4xx_HAL_Driver/Src/stm32l4xx_hal_pwr_ex.c ****     HAL_PWREx_PVM3Callback();
1395:Drivers/STM32L4xx_HAL_Driver/Src/stm32l4xx_hal_pwr_ex.c **** 
1396:Drivers/STM32L4xx_HAL_Driver/Src/stm32l4xx_hal_pwr_ex.c ****     /* Clear PVM3 exti pending bit */
1397:Drivers/STM32L4xx_HAL_Driver/Src/stm32l4xx_hal_pwr_ex.c ****     __HAL_PWR_PVM3_EXTI_CLEAR_FLAG();
1398:Drivers/STM32L4xx_HAL_Driver/Src/stm32l4xx_hal_pwr_ex.c ****   }
1399:Drivers/STM32L4xx_HAL_Driver/Src/stm32l4xx_hal_pwr_ex.c ****   if(__HAL_PWR_PVM4_EXTI_GET_FLAG() != 0x0U)
1400:Drivers/STM32L4xx_HAL_Driver/Src/stm32l4xx_hal_pwr_ex.c ****   {
1401:Drivers/STM32L4xx_HAL_Driver/Src/stm32l4xx_hal_pwr_ex.c ****     /* PWR PVM4 interrupt user callback */
1402:Drivers/STM32L4xx_HAL_Driver/Src/stm32l4xx_hal_pwr_ex.c ****     HAL_PWREx_PVM4Callback();
1403:Drivers/STM32L4xx_HAL_Driver/Src/stm32l4xx_hal_pwr_ex.c **** 
1404:Drivers/STM32L4xx_HAL_Driver/Src/stm32l4xx_hal_pwr_ex.c ****     /* Clear PVM4 exti pending bit */
1405:Drivers/STM32L4xx_HAL_Driver/Src/stm32l4xx_hal_pwr_ex.c ****     __HAL_PWR_PVM4_EXTI_CLEAR_FLAG();
1406:Drivers/STM32L4xx_HAL_Driver/Src/stm32l4xx_hal_pwr_ex.c ****   }
1407:Drivers/STM32L4xx_HAL_Driver/Src/stm32l4xx_hal_pwr_ex.c **** }
1408:Drivers/STM32L4xx_HAL_Driver/Src/stm32l4xx_hal_pwr_ex.c **** 
1409:Drivers/STM32L4xx_HAL_Driver/Src/stm32l4xx_hal_pwr_ex.c **** 
1410:Drivers/STM32L4xx_HAL_Driver/Src/stm32l4xx_hal_pwr_ex.c **** #if defined(PWR_CR2_PVME1)
1411:Drivers/STM32L4xx_HAL_Driver/Src/stm32l4xx_hal_pwr_ex.c **** /**
1412:Drivers/STM32L4xx_HAL_Driver/Src/stm32l4xx_hal_pwr_ex.c ****   * @brief PWR PVM1 interrupt callback
1413:Drivers/STM32L4xx_HAL_Driver/Src/stm32l4xx_hal_pwr_ex.c ****   * @retval None
1414:Drivers/STM32L4xx_HAL_Driver/Src/stm32l4xx_hal_pwr_ex.c ****   */
1415:Drivers/STM32L4xx_HAL_Driver/Src/stm32l4xx_hal_pwr_ex.c **** __weak void HAL_PWREx_PVM1Callback(void)
1416:Drivers/STM32L4xx_HAL_Driver/Src/stm32l4xx_hal_pwr_ex.c **** {
 2205              		.loc 1 1416 1 is_stmt 1 view -0
 2206              		.cfi_startproc
 2207              		@ args = 0, pretend = 0, frame = 0
 2208              		@ frame_needed = 0, uses_anonymous_args = 0
 2209              		@ link register save eliminated.
1417:Drivers/STM32L4xx_HAL_Driver/Src/stm32l4xx_hal_pwr_ex.c ****   /* NOTE : This function should not be modified; when the callback is needed,
1418:Drivers/STM32L4xx_HAL_Driver/Src/stm32l4xx_hal_pwr_ex.c ****             HAL_PWREx_PVM1Callback() API can be implemented in the user file
1419:Drivers/STM32L4xx_HAL_Driver/Src/stm32l4xx_hal_pwr_ex.c ****    */
1420:Drivers/STM32L4xx_HAL_Driver/Src/stm32l4xx_hal_pwr_ex.c **** }
 2210              		.loc 1 1420 1 view .LVU455
 2211 0000 7047     		bx	lr
 2212              		.cfi_endproc
 2213              	.LFE323:
 2215              		.section	.text.HAL_PWREx_PVM3Callback,"ax",%progbits
 2216              		.align	1
 2217              		.weak	HAL_PWREx_PVM3Callback
 2218              		.syntax unified
 2219              		.thumb
 2220              		.thumb_func
 2222              	HAL_PWREx_PVM3Callback:
 2223              	.LFB324:
ARM GAS  C:\Users\mathi\AppData\Local\Temp\cc6ocpEq.s 			page 66


1421:Drivers/STM32L4xx_HAL_Driver/Src/stm32l4xx_hal_pwr_ex.c **** #endif /* PWR_CR2_PVME1 */
1422:Drivers/STM32L4xx_HAL_Driver/Src/stm32l4xx_hal_pwr_ex.c **** 
1423:Drivers/STM32L4xx_HAL_Driver/Src/stm32l4xx_hal_pwr_ex.c **** #if defined(PWR_CR2_PVME2)
1424:Drivers/STM32L4xx_HAL_Driver/Src/stm32l4xx_hal_pwr_ex.c **** /**
1425:Drivers/STM32L4xx_HAL_Driver/Src/stm32l4xx_hal_pwr_ex.c ****   * @brief PWR PVM2 interrupt callback
1426:Drivers/STM32L4xx_HAL_Driver/Src/stm32l4xx_hal_pwr_ex.c ****   * @retval None
1427:Drivers/STM32L4xx_HAL_Driver/Src/stm32l4xx_hal_pwr_ex.c ****   */
1428:Drivers/STM32L4xx_HAL_Driver/Src/stm32l4xx_hal_pwr_ex.c **** __weak void HAL_PWREx_PVM2Callback(void)
1429:Drivers/STM32L4xx_HAL_Driver/Src/stm32l4xx_hal_pwr_ex.c **** {
1430:Drivers/STM32L4xx_HAL_Driver/Src/stm32l4xx_hal_pwr_ex.c ****   /* NOTE : This function should not be modified; when the callback is needed,
1431:Drivers/STM32L4xx_HAL_Driver/Src/stm32l4xx_hal_pwr_ex.c ****             HAL_PWREx_PVM2Callback() API can be implemented in the user file
1432:Drivers/STM32L4xx_HAL_Driver/Src/stm32l4xx_hal_pwr_ex.c ****    */
1433:Drivers/STM32L4xx_HAL_Driver/Src/stm32l4xx_hal_pwr_ex.c **** }
1434:Drivers/STM32L4xx_HAL_Driver/Src/stm32l4xx_hal_pwr_ex.c **** #endif /* PWR_CR2_PVME2 */
1435:Drivers/STM32L4xx_HAL_Driver/Src/stm32l4xx_hal_pwr_ex.c **** 
1436:Drivers/STM32L4xx_HAL_Driver/Src/stm32l4xx_hal_pwr_ex.c **** /**
1437:Drivers/STM32L4xx_HAL_Driver/Src/stm32l4xx_hal_pwr_ex.c ****   * @brief PWR PVM3 interrupt callback
1438:Drivers/STM32L4xx_HAL_Driver/Src/stm32l4xx_hal_pwr_ex.c ****   * @retval None
1439:Drivers/STM32L4xx_HAL_Driver/Src/stm32l4xx_hal_pwr_ex.c ****   */
1440:Drivers/STM32L4xx_HAL_Driver/Src/stm32l4xx_hal_pwr_ex.c **** __weak void HAL_PWREx_PVM3Callback(void)
1441:Drivers/STM32L4xx_HAL_Driver/Src/stm32l4xx_hal_pwr_ex.c **** {
 2224              		.loc 1 1441 1 view -0
 2225              		.cfi_startproc
 2226              		@ args = 0, pretend = 0, frame = 0
 2227              		@ frame_needed = 0, uses_anonymous_args = 0
 2228              		@ link register save eliminated.
1442:Drivers/STM32L4xx_HAL_Driver/Src/stm32l4xx_hal_pwr_ex.c ****   /* NOTE : This function should not be modified; when the callback is needed,
1443:Drivers/STM32L4xx_HAL_Driver/Src/stm32l4xx_hal_pwr_ex.c ****             HAL_PWREx_PVM3Callback() API can be implemented in the user file
1444:Drivers/STM32L4xx_HAL_Driver/Src/stm32l4xx_hal_pwr_ex.c ****    */
1445:Drivers/STM32L4xx_HAL_Driver/Src/stm32l4xx_hal_pwr_ex.c **** }
 2229              		.loc 1 1445 1 view .LVU457
 2230 0000 7047     		bx	lr
 2231              		.cfi_endproc
 2232              	.LFE324:
 2234              		.section	.text.HAL_PWREx_PVM4Callback,"ax",%progbits
 2235              		.align	1
 2236              		.weak	HAL_PWREx_PVM4Callback
 2237              		.syntax unified
 2238              		.thumb
 2239              		.thumb_func
 2241              	HAL_PWREx_PVM4Callback:
 2242              	.LFB325:
1446:Drivers/STM32L4xx_HAL_Driver/Src/stm32l4xx_hal_pwr_ex.c **** 
1447:Drivers/STM32L4xx_HAL_Driver/Src/stm32l4xx_hal_pwr_ex.c **** /**
1448:Drivers/STM32L4xx_HAL_Driver/Src/stm32l4xx_hal_pwr_ex.c ****   * @brief PWR PVM4 interrupt callback
1449:Drivers/STM32L4xx_HAL_Driver/Src/stm32l4xx_hal_pwr_ex.c ****   * @retval None
1450:Drivers/STM32L4xx_HAL_Driver/Src/stm32l4xx_hal_pwr_ex.c ****   */
1451:Drivers/STM32L4xx_HAL_Driver/Src/stm32l4xx_hal_pwr_ex.c **** __weak void HAL_PWREx_PVM4Callback(void)
1452:Drivers/STM32L4xx_HAL_Driver/Src/stm32l4xx_hal_pwr_ex.c **** {
 2243              		.loc 1 1452 1 view -0
 2244              		.cfi_startproc
 2245              		@ args = 0, pretend = 0, frame = 0
 2246              		@ frame_needed = 0, uses_anonymous_args = 0
 2247              		@ link register save eliminated.
1453:Drivers/STM32L4xx_HAL_Driver/Src/stm32l4xx_hal_pwr_ex.c ****   /* NOTE : This function should not be modified; when the callback is needed,
1454:Drivers/STM32L4xx_HAL_Driver/Src/stm32l4xx_hal_pwr_ex.c ****             HAL_PWREx_PVM4Callback() API can be implemented in the user file
1455:Drivers/STM32L4xx_HAL_Driver/Src/stm32l4xx_hal_pwr_ex.c ****    */
ARM GAS  C:\Users\mathi\AppData\Local\Temp\cc6ocpEq.s 			page 67


1456:Drivers/STM32L4xx_HAL_Driver/Src/stm32l4xx_hal_pwr_ex.c **** }
 2248              		.loc 1 1456 1 view .LVU459
 2249 0000 7047     		bx	lr
 2250              		.cfi_endproc
 2251              	.LFE325:
 2253              		.section	.text.HAL_PWREx_PVD_PVM_IRQHandler,"ax",%progbits
 2254              		.align	1
 2255              		.global	HAL_PWREx_PVD_PVM_IRQHandler
 2256              		.syntax unified
 2257              		.thumb
 2258              		.thumb_func
 2260              	HAL_PWREx_PVD_PVM_IRQHandler:
 2261              	.LFB322:
1360:Drivers/STM32L4xx_HAL_Driver/Src/stm32l4xx_hal_pwr_ex.c ****   /* Check PWR exti flag */
 2262              		.loc 1 1360 1 view -0
 2263              		.cfi_startproc
 2264              		@ args = 0, pretend = 0, frame = 0
 2265              		@ frame_needed = 0, uses_anonymous_args = 0
 2266 0000 08B5     		push	{r3, lr}
 2267              		.cfi_def_cfa_offset 8
 2268              		.cfi_offset 3, -8
 2269              		.cfi_offset 14, -4
1362:Drivers/STM32L4xx_HAL_Driver/Src/stm32l4xx_hal_pwr_ex.c ****   {
 2270              		.loc 1 1362 3 view .LVU461
1362:Drivers/STM32L4xx_HAL_Driver/Src/stm32l4xx_hal_pwr_ex.c ****   {
 2271              		.loc 1 1362 6 is_stmt 0 view .LVU462
 2272 0002 174B     		ldr	r3, .L227
 2273 0004 5B69     		ldr	r3, [r3, #20]
1362:Drivers/STM32L4xx_HAL_Driver/Src/stm32l4xx_hal_pwr_ex.c ****   {
 2274              		.loc 1 1362 5 view .LVU463
 2275 0006 13F4803F 		tst	r3, #65536
 2276 000a 0FD1     		bne	.L223
 2277              	.L218:
1372:Drivers/STM32L4xx_HAL_Driver/Src/stm32l4xx_hal_pwr_ex.c ****   {
 2278              		.loc 1 1372 3 is_stmt 1 view .LVU464
1372:Drivers/STM32L4xx_HAL_Driver/Src/stm32l4xx_hal_pwr_ex.c ****   {
 2279              		.loc 1 1372 6 is_stmt 0 view .LVU465
 2280 000c 144B     		ldr	r3, .L227
 2281 000e 5B6B     		ldr	r3, [r3, #52]
1372:Drivers/STM32L4xx_HAL_Driver/Src/stm32l4xx_hal_pwr_ex.c ****   {
 2282              		.loc 1 1372 5 view .LVU466
 2283 0010 13F0080F 		tst	r3, #8
 2284 0014 11D1     		bne	.L224
 2285              	.L219:
1391:Drivers/STM32L4xx_HAL_Driver/Src/stm32l4xx_hal_pwr_ex.c ****   {
 2286              		.loc 1 1391 3 is_stmt 1 view .LVU467
1391:Drivers/STM32L4xx_HAL_Driver/Src/stm32l4xx_hal_pwr_ex.c ****   {
 2287              		.loc 1 1391 6 is_stmt 0 view .LVU468
 2288 0016 124B     		ldr	r3, .L227
 2289 0018 5B6B     		ldr	r3, [r3, #52]
1391:Drivers/STM32L4xx_HAL_Driver/Src/stm32l4xx_hal_pwr_ex.c ****   {
 2290              		.loc 1 1391 5 view .LVU469
 2291 001a 13F0200F 		tst	r3, #32
 2292 001e 12D1     		bne	.L225
 2293              	.L220:
1399:Drivers/STM32L4xx_HAL_Driver/Src/stm32l4xx_hal_pwr_ex.c ****   {
 2294              		.loc 1 1399 3 is_stmt 1 view .LVU470
ARM GAS  C:\Users\mathi\AppData\Local\Temp\cc6ocpEq.s 			page 68


1399:Drivers/STM32L4xx_HAL_Driver/Src/stm32l4xx_hal_pwr_ex.c ****   {
 2295              		.loc 1 1399 6 is_stmt 0 view .LVU471
 2296 0020 0F4B     		ldr	r3, .L227
 2297 0022 5B6B     		ldr	r3, [r3, #52]
1399:Drivers/STM32L4xx_HAL_Driver/Src/stm32l4xx_hal_pwr_ex.c ****   {
 2298              		.loc 1 1399 5 view .LVU472
 2299 0024 13F0400F 		tst	r3, #64
 2300 0028 13D1     		bne	.L226
 2301              	.L217:
1407:Drivers/STM32L4xx_HAL_Driver/Src/stm32l4xx_hal_pwr_ex.c **** 
 2302              		.loc 1 1407 1 view .LVU473
 2303 002a 08BD     		pop	{r3, pc}
 2304              	.L223:
1365:Drivers/STM32L4xx_HAL_Driver/Src/stm32l4xx_hal_pwr_ex.c **** 
 2305              		.loc 1 1365 5 is_stmt 1 view .LVU474
 2306 002c FFF7FEFF 		bl	HAL_PWR_PVDCallback
 2307              	.LVL115:
1368:Drivers/STM32L4xx_HAL_Driver/Src/stm32l4xx_hal_pwr_ex.c ****   }
 2308              		.loc 1 1368 5 view .LVU475
 2309 0030 0B4B     		ldr	r3, .L227
 2310 0032 4FF48032 		mov	r2, #65536
 2311 0036 5A61     		str	r2, [r3, #20]
 2312 0038 E8E7     		b	.L218
 2313              	.L224:
1375:Drivers/STM32L4xx_HAL_Driver/Src/stm32l4xx_hal_pwr_ex.c **** 
 2314              		.loc 1 1375 5 view .LVU476
 2315 003a FFF7FEFF 		bl	HAL_PWREx_PVM1Callback
 2316              	.LVL116:
1378:Drivers/STM32L4xx_HAL_Driver/Src/stm32l4xx_hal_pwr_ex.c ****   }
 2317              		.loc 1 1378 5 view .LVU477
 2318 003e 084B     		ldr	r3, .L227
 2319 0040 0822     		movs	r2, #8
 2320 0042 5A63     		str	r2, [r3, #52]
 2321 0044 E7E7     		b	.L219
 2322              	.L225:
1394:Drivers/STM32L4xx_HAL_Driver/Src/stm32l4xx_hal_pwr_ex.c **** 
 2323              		.loc 1 1394 5 view .LVU478
 2324 0046 FFF7FEFF 		bl	HAL_PWREx_PVM3Callback
 2325              	.LVL117:
1397:Drivers/STM32L4xx_HAL_Driver/Src/stm32l4xx_hal_pwr_ex.c ****   }
 2326              		.loc 1 1397 5 view .LVU479
 2327 004a 054B     		ldr	r3, .L227
 2328 004c 2022     		movs	r2, #32
 2329 004e 5A63     		str	r2, [r3, #52]
 2330 0050 E6E7     		b	.L220
 2331              	.L226:
1402:Drivers/STM32L4xx_HAL_Driver/Src/stm32l4xx_hal_pwr_ex.c **** 
 2332              		.loc 1 1402 5 view .LVU480
 2333 0052 FFF7FEFF 		bl	HAL_PWREx_PVM4Callback
 2334              	.LVL118:
1405:Drivers/STM32L4xx_HAL_Driver/Src/stm32l4xx_hal_pwr_ex.c ****   }
 2335              		.loc 1 1405 5 view .LVU481
 2336 0056 024B     		ldr	r3, .L227
 2337 0058 4022     		movs	r2, #64
 2338 005a 5A63     		str	r2, [r3, #52]
1407:Drivers/STM32L4xx_HAL_Driver/Src/stm32l4xx_hal_pwr_ex.c **** 
 2339              		.loc 1 1407 1 is_stmt 0 view .LVU482
ARM GAS  C:\Users\mathi\AppData\Local\Temp\cc6ocpEq.s 			page 69


 2340 005c E5E7     		b	.L217
 2341              	.L228:
 2342 005e 00BF     		.align	2
 2343              	.L227:
 2344 0060 00040140 		.word	1073808384
 2345              		.cfi_endproc
 2346              	.LFE322:
 2348              		.text
 2349              	.Letext0:
 2350              		.file 2 "C:/Users/mathi/AppData/Roaming/Code/User/globalStorage/bmd.stm32-for-vscode/@xpack-dev-to
 2351              		.file 3 "C:/Users/mathi/AppData/Roaming/Code/User/globalStorage/bmd.stm32-for-vscode/@xpack-dev-to
 2352              		.file 4 "Drivers/CMSIS/Include/core_cm4.h"
 2353              		.file 5 "Drivers/CMSIS/Device/ST/STM32L4xx/Include/stm32l452xx.h"
 2354              		.file 6 "Drivers/STM32L4xx_HAL_Driver/Inc/stm32l4xx_hal_def.h"
